
cfe6348:     format de fichier elf32-bigmips

Déassemblage de la section .text:

80401000 <_ftext>:
80401000:	1000001e 	b	8040107c <cpu_reset>
80401004:	00000000 	nop

80401008 <vec_apientry>:
80401008:	100000b0 	b	804012cc <cpu_apientry>
8040100c:	00000000 	nop
80401010:	43464531 	c0	0x1464531
80401014:	43464531 	c0	0x1464531

80401018 <segment_table>:
80401018:	8041c554 8041c560 8041e440 80422d20     .A.T.A.`.A.@.B- 
80401028:	80401000 8041e440 80426390 00000000     .@...A.@.Bc.....
80401038:	00000000 804012cc                       .....@..

80401040 <init_table>:
80401040:	80403f70 80403f88 80403f78 8040baec     .@?p.@?..@?x.@..
80401050:	8040bbb8 8040bbb8 8040bbb8 8040bbc0     .@...@...@...@..
80401060:	80403f80 8040bbc8 8040bc90 80407f40     .@?..@...@...@.@
80401070:	80407e40 8040f1cc 8040bbb8              .@~@.@...@..

8040107c <cpu_reset>:
8040107c:	3c1b8040 	lui	k1,0x8040
80401080:	277b1040 	addiu	k1,k1,4160
80401084:	8f7b0000 	lw	k1,0(k1)
80401088:	0360f809 	jalr	k1
8040108c:	00000000 	nop
80401090:	3c044845 	lui	a0,0x4845
80401094:	34844c4f 	ori	a0,a0,0x4c4f
80401098:	0c100fe2 	jal	80403f88 <board_setleds>
8040109c:	00000000 	nop
804010a0:	3c048040 	lui	a0,0x8040
804010a4:	24841018 	addiu	a0,a0,4120
804010a8:	8c9c0018 	lw	gp,24(a0)
804010ac:	3c045a42 	lui	a0,0x5a42
804010b0:	34845353 	ori	a0,a0,0x5353
804010b4:	0c100fe2 	jal	80403f88 <board_setleds>
804010b8:	00000000 	nop
804010bc:	3c048040 	lui	a0,0x8040
804010c0:	24841018 	addiu	a0,a0,4120

804010c4 <__ZeroBss>:
804010c4:	8c820014 	lw	v0,20(a0)
804010c8:	8c83000c 	lw	v1,12(a0)
804010cc:	ac400000 	sw	zero,0(v0)
804010d0:	ac400004 	sw	zero,4(v0)
804010d4:	ac400008 	sw	zero,8(v0)
804010d8:	ac40000c 	sw	zero,12(v0)
804010dc:	20420010 	addi	v0,v0,16
804010e0:	0043082a 	slt	at,v0,v1
804010e4:	1420fff9 	bnez	at,804010cc <__ZeroBss+0x8>
804010e8:	00000000 	nop
804010ec:	241a0100 	li	k0,256

804010f0 <__MemVars>:
804010f0:	af9a800c 	sw	k0,-32756(gp)
804010f4:	af80801c 	sw	zero,-32740(gp)
804010f8:	00001021 	move	v0,zero
804010fc:	3c048040 	lui	a0,0x8040
80401100:	24841018 	addiu	a0,a0,4120
80401104:	8c820010 	lw	v0,16(a0)
80401108:	8c83000c 	lw	v1,12(a0)
8040110c:	af828018 	sw	v0,-32744(gp)
80401110:	af838014 	sw	v1,-32748(gp)
80401114:	3c010010 	lui	at,0x10
80401118:	00611820 	add	v1,v1,at
8040111c:	20632000 	addi	v1,v1,8192
80401120:	af838010 	sw	v1,-32752(gp)
80401124:	af808000 	sw	zero,-32768(gp)
80401128:	8c890010 	lw	t1,16(a0)
8040112c:	8c880000 	lw	t0,0(a0)
80401130:	01094022 	sub	t0,t0,t1
80401134:	af888008 	sw	t0,-32760(gp)
80401138:	af898004 	sw	t1,-32764(gp)
8040113c:	40027800 	mfc0	v0,c0_prid
80401140:	af828020 	sw	v0,-32736(gp)
80401144:	3c044d41 	lui	a0,0x4d41
80401148:	3484494e 	ori	a0,a0,0x494e
8040114c:	0c100fe2 	jal	80403f88 <board_setleds>
80401150:	00000000 	nop
80401154:	8f9d8014 	lw	sp,-32748(gp)
80401158:	3c010010 	lui	at,0x10
8040115c:	34211ff8 	ori	at,at,0x1ff8
80401160:	03a1e820 	add	sp,sp,at
80401164:	24040000 	li	a0,0
80401168:	24050000 	li	a1,0
8040116c:	3c1b8040 	lui	k1,0x8040
80401170:	277b1040 	addiu	k1,k1,4160
80401174:	8f7b002c 	lw	k1,44(k1)
80401178:	0360f809 	jalr	k1
8040117c:	00000000 	nop

80401180 <crash_sim>:
80401180:	24020001 	li	v0,1
80401184:	24040000 	li	a0,0
80401188:	0000328c 	syscall	0xca
8040118c:	1000ffbb 	b	8040107c <cpu_reset>
80401190:	00000000 	nop

80401194 <cfe_warmstart>:
80401194:	afa40000 	sw	a0,0(sp)
80401198:	3c028040 	lui	v0,0x8040
8040119c:	24421040 	addiu	v0,v0,4160
804011a0:	8c42001c 	lw	v0,28(v0)
804011a4:	0040f809 	jalr	v0
804011a8:	00000000 	nop
804011ac:	8fa40000 	lw	a0,0(sp)
804011b0:	8f9d8014 	lw	sp,-32748(gp)
804011b4:	3c010010 	lui	at,0x10
804011b8:	34211ff8 	ori	at,at,0x1ff8
804011bc:	03a1e820 	add	sp,sp,at
804011c0:	3c1b8040 	lui	k1,0x8040
804011c4:	277b1040 	addiu	k1,k1,4160
804011c8:	8f7b0030 	lw	k1,48(k1)
804011cc:	0360f809 	jalr	k1
804011d0:	00000000 	nop

804011d4 <_cfe_flushcache>:
804011d4:	23bdffe0 	addi	sp,sp,-32
804011d8:	afbf0000 	sw	ra,0(sp)
804011dc:	afa40008 	sw	a0,8(sp)
804011e0:	afb00010 	sw	s0,16(sp)
804011e4:	afa30020 	sw	v1,32(sp)
804011e8:	3c1b8040 	lui	k1,0x8040
804011ec:	277b1040 	addiu	k1,k1,4160
804011f0:	8f7b0024 	lw	k1,36(k1)
804011f4:	0360f809 	jalr	k1
804011f8:	00000000 	nop
804011fc:	8fa30020 	lw	v1,32(sp)
80401200:	8fb00010 	lw	s0,16(sp)
80401204:	8fa40008 	lw	a0,8(sp)
80401208:	8fbf0000 	lw	ra,0(sp)
8040120c:	23bd0020 	addi	sp,sp,32
80401210:	03e00008 	jr	ra
80401214:	00000000 	nop

80401218 <cfe_launch>:
80401218:	23bdfff8 	addi	sp,sp,-8
8040121c:	afa40000 	sw	a0,0(sp)
80401220:	40026000 	mfc0	v0,c0_status
80401224:	24030001 	li	v1,1
80401228:	00601827 	nor	v1,v1,zero
8040122c:	00431024 	and	v0,v0,v1
80401230:	40826000 	mtc0	v0,c0_status
80401234:	24040003 	li	a0,3
80401238:	3c1b8040 	lui	k1,0x8040
8040123c:	277b1040 	addiu	k1,k1,4160
80401240:	8f7b0024 	lw	k1,36(k1)
80401244:	0360f809 	jalr	k1
80401248:	00000000 	nop
8040124c:	08100495 	j	80401254 <RunProgram>
80401250:	00000000 	nop

80401254 <RunProgram>:
80401254:	3c068040 	lui	a2,0x8040
80401258:	24c61018 	addiu	a2,a2,4120
8040125c:	8cc60024 	lw	a2,36(a2)
80401260:	00804021 	move	t0,a0
80401264:	00002821 	move	a1,zero
80401268:	03802021 	move	a0,gp
8040126c:	3c074346 	lui	a3,0x4346
80401270:	34e74531 	ori	a3,a3,0x4531
80401274:	8fa80000 	lw	t0,0(sp)
80401278:	01000008 	jr	t0
8040127c:	00000000 	nop

80401280 <cfe_leds>:
80401280:	08100fe2 	j	80403f88 <board_setleds>
80401284:	00000000 	nop

80401288 <cpu_tlbfill>:
80401288:	03e0d021 	move	k0,ra
8040128c:	3c1b8040 	lui	k1,0x8040
80401290:	277b1040 	addiu	k1,k1,4160
80401294:	8f7b0028 	lw	k1,40(k1)
80401298:	0340f821 	move	ra,k0
8040129c:	03600008 	jr	k1
804012a0:	00000000 	nop

804012a4 <cpu_xtlbfill>:
804012a4:	08100554 	j	80401550 <_exc_entry>
804012a8:	00000000 	nop

804012ac <cpu_cacheerr>:
804012ac:	08100554 	j	80401550 <_exc_entry>
804012b0:	00000000 	nop

804012b4 <cpu_exception>:
804012b4:	08100554 	j	80401550 <_exc_entry>
804012b8:	00000000 	nop

804012bc <cpu_interrupt>:
804012bc:	08100554 	j	80401550 <_exc_entry>
804012c0:	00000000 	nop

804012c4 <cpu_ejtag>:
804012c4:	0810041f 	j	8040107c <cpu_reset>
804012c8:	00000000 	nop

804012cc <cpu_apientry>:
804012cc:	23bdffa8 	addi	sp,sp,-88
804012d0:	40026000 	mfc0	v0,c0_status
804012d4:	afa20000 	sw	v0,0(sp)
804012d8:	24080001 	li	t0,1
804012dc:	01004027 	nor	t0,t0,zero
804012e0:	00481024 	and	v0,v0,t0
804012e4:	40826000 	mtc0	v0,c0_status
804012e8:	afbc0008 	sw	gp,8(sp)
804012ec:	afbf0010 	sw	ra,16(sp)
804012f0:	afb00018 	sw	s0,24(sp)
804012f4:	afb10020 	sw	s1,32(sp)
804012f8:	afb20028 	sw	s2,40(sp)
804012fc:	afb30030 	sw	s3,48(sp)
80401300:	afb40038 	sw	s4,56(sp)
80401304:	afb50040 	sw	s5,64(sp)
80401308:	afb60048 	sw	s6,72(sp)
8040130c:	afb70050 	sw	s7,80(sp)
80401310:	0080e021 	move	gp,a0
80401314:	00a02021 	move	a0,a1
80401318:	3c1b8040 	lui	k1,0x8040
8040131c:	277b1040 	addiu	k1,k1,4160
80401320:	8f7b0034 	lw	k1,52(k1)
80401324:	0360f809 	jalr	k1
80401328:	00000000 	nop
8040132c:	8fb70050 	lw	s7,80(sp)
80401330:	8fb60048 	lw	s6,72(sp)
80401334:	8fb50040 	lw	s5,64(sp)
80401338:	8fb40038 	lw	s4,56(sp)
8040133c:	8fb30030 	lw	s3,48(sp)
80401340:	8fb20028 	lw	s2,40(sp)
80401344:	8fb10020 	lw	s1,32(sp)
80401348:	8fb00018 	lw	s0,24(sp)
8040134c:	8fbf0010 	lw	ra,16(sp)
80401350:	8fbc0008 	lw	gp,8(sp)
80401354:	8fa80000 	lw	t0,0(sp)
80401358:	23bd0058 	addi	sp,sp,88
8040135c:	40886000 	mtc0	t0,c0_status
80401360:	03e00008 	jr	ra
80401364:	00000000 	nop
80401368:	00000000 	nop

8040136c <cpu_kseg0_switch>:
8040136c:	3c011fff 	lui	at,0x1fff
80401370:	3421ffff 	ori	at,at,0xffff
80401374:	03e1f824 	and	ra,ra,at
80401378:	3c018000 	lui	at,0x8000
8040137c:	03e1f825 	or	ra,ra,at
80401380:	03e00008 	jr	ra
80401384:	00000000 	nop

80401388 <_getstatus>:
80401388:	40026000 	mfc0	v0,c0_status
8040138c:	03e00008 	jr	ra
80401390:	00000000 	nop

80401394 <_setstatus>:
80401394:	40846000 	mtc0	a0,c0_status
80401398:	03e00008 	jr	ra
8040139c:	00000000 	nop

804013a0 <_getcause>:
804013a0:	40026800 	mfc0	v0,c0_cause
804013a4:	03e00008 	jr	ra
804013a8:	00000000 	nop

804013ac <_getticks>:
804013ac:	40024800 	mfc0	v0,c0_count
804013b0:	03e00008 	jr	ra
804013b4:	00000000 	nop

804013b8 <_setalarm>:
804013b8:	40845800 	mtc0	a0,c0_compare
804013bc:	03e00008 	jr	ra
804013c0:	00000000 	nop

804013c4 <_setcontext>:
804013c4:	40842000 	mtc0	a0,c0_context
804013c8:	03e00008 	jr	ra
804013cc:	00000000 	nop

804013d0 <_getsegtbl>:
804013d0:	03e04021 	move	t0,ra
804013d4:	3c028040 	lui	v0,0x8040
804013d8:	24421018 	addiu	v0,v0,4120
804013dc:	0100f821 	move	ra,t0
804013e0:	03e00008 	jr	ra
804013e4:	00000000 	nop

804013e8 <_wbflush>:
804013e8:	0000000f 	sync
804013ec:	27888128 	addiu	t0,gp,-32472
804013f0:	3c01a000 	lui	at,0xa000
804013f4:	01014025 	or	t0,t0,at
804013f8:	8d000000 	lw	zero,0(t0)
804013fc:	03e00008 	jr	ra
80401400:	00000000 	nop

80401404 <_exc_cerr_htable>:
80401404:	8040140c 8040143c                       .@...@.<

8040140c <_exc_cerr_template>:
8040140c:	ac1a0050 	sw	k0,80(zero)
80401410:	ac1b0058 	sw	k1,88(zero)
80401414:	ac1f0060 	sw	ra,96(zero)
80401418:	ac1c0068 	sw	gp,104(zero)
8040141c:	8c1a0070 	lw	k0,112(zero)
80401420:	0340f809 	jalr	k0
80401424:	00000000 	nop
80401428:	8c1a0050 	lw	k0,80(zero)
8040142c:	8c1b0058 	lw	k1,88(zero)
80401430:	8c1f0060 	lw	ra,96(zero)
80401434:	8c1c0068 	lw	gp,104(zero)
80401438:	42000018 	eret

8040143c <_exc_setup_locore>:
8040143c:	03e06021 	move	t4,ra
80401440:	3c08a000 	lui	t0,0xa000
80401444:	35080040 	ori	t0,t0,0x40
80401448:	ad1c0000 	sw	gp,0(t0)
8040144c:	3c091fff 	lui	t1,0x1fff
80401450:	3529ffff 	ori	t1,t1,0xffff
80401454:	00892024 	and	a0,a0,t1
80401458:	3c09a000 	lui	t1,0xa000
8040145c:	00892025 	or	a0,a0,t1
80401460:	3c08a000 	lui	t0,0xa000
80401464:	35080070 	ori	t0,t0,0x70
80401468:	ad040000 	sw	a0,0(t0)
8040146c:	3c08a000 	lui	t0,0xa000
80401470:	35080100 	ori	t0,t0,0x100
80401474:	3c098040 	lui	t1,0x8040
80401478:	25291404 	addiu	t1,t1,5124
8040147c:	8d2a0004 	lw	t2,4(t1)
80401480:	8d290000 	lw	t1,0(t1)
80401484:	8d2b0000 	lw	t3,0(t1)
80401488:	ad0b0000 	sw	t3,0(t0)
8040148c:	21080004 	addi	t0,t0,4
80401490:	21290004 	addi	t1,t1,4
80401494:	012a082a 	slt	at,t1,t2
80401498:	1420fffa 	bnez	at,80401484 <_exc_setup_locore+0x48>
8040149c:	00000000 	nop
804014a0:	3c088000 	lui	t0,0x8000
804014a4:	35080040 	ori	t0,t0,0x40
804014a8:	ad1c0000 	sw	gp,0(t0)
804014ac:	3c088000 	lui	t0,0x8000
804014b0:	35080070 	ori	t0,t0,0x70
804014b4:	ad040000 	sw	a0,0(t0)
804014b8:	3c088000 	lui	t0,0x8000
804014bc:	35080100 	ori	t0,t0,0x100
804014c0:	3c098040 	lui	t1,0x8040
804014c4:	25291404 	addiu	t1,t1,5124
804014c8:	8d2a0004 	lw	t2,4(t1)
804014cc:	8d290000 	lw	t1,0(t1)
804014d0:	8d2b0000 	lw	t3,0(t1)
804014d4:	ad0b0000 	sw	t3,0(t0)
804014d8:	21080004 	addi	t0,t0,4
804014dc:	21290004 	addi	t1,t1,4
804014e0:	012a082a 	slt	at,t1,t2
804014e4:	1420fffa 	bnez	at,804014d0 <_exc_setup_locore+0x94>
804014e8:	00000000 	nop
804014ec:	0180f821 	move	ra,t4
804014f0:	03e00008 	jr	ra
804014f4:	00000000 	nop

804014f8 <_exc_setvector>:
804014f8:	27828024 	addiu	v0,gp,-32732
804014fc:	000420c2 	srl	a0,a0,0x3
80401500:	00042080 	sll	a0,a0,0x2
80401504:	00441020 	add	v0,v0,a0
80401508:	ac450000 	sw	a1,0(v0)
8040150c:	03e00008 	jr	ra
80401510:	00000000 	nop

80401514 <_exc_crash_sim>:
80401514:	24020001 	li	v0,1
80401518:	3403dead 	li	v1,0xdead
8040151c:	24040000 	li	a0,0
80401520:	0000328c 	syscall	0xca
80401524:	1000ffff 	b	80401524 <_exc_crash_sim+0x10>
80401528:	00000000 	nop

8040152c <_exc_cache_crash_sim>:
8040152c:	24020001 	li	v0,1
80401530:	3403badc 	li	v1,0xbadc
80401534:	24040000 	li	a0,0
80401538:	0000328c 	syscall	0xca
8040153c:	1000ffff 	b	8040153c <_exc_cache_crash_sim+0x10>
80401540:	00000000 	nop

80401544 <_exc_restart>:
80401544:	3c08bfc0 	lui	t0,0xbfc0
80401548:	01000008 	jr	t0
8040154c:	00000000 	nop

80401550 <_exc_entry>:
80401550:	27bbfdb0 	addiu	k1,sp,-592
80401554:	001bd8c2 	srl	k1,k1,0x3
80401558:	001bd8c0 	sll	k1,k1,0x3
8040155c:	af600040 	sw	zero,64(k1)
80401560:	af610048 	sw	at,72(k1)
80401564:	af620050 	sw	v0,80(k1)
80401568:	af630058 	sw	v1,88(k1)
8040156c:	af640060 	sw	a0,96(k1)
80401570:	af650068 	sw	a1,104(k1)
80401574:	af660070 	sw	a2,112(k1)
80401578:	af670078 	sw	a3,120(k1)
8040157c:	af680080 	sw	t0,128(k1)
80401580:	af690088 	sw	t1,136(k1)
80401584:	af6a0090 	sw	t2,144(k1)
80401588:	af6b0098 	sw	t3,152(k1)
8040158c:	af6c00a0 	sw	t4,160(k1)
80401590:	af6d00a8 	sw	t5,168(k1)
80401594:	af6e00b0 	sw	t6,176(k1)
80401598:	af6f00b8 	sw	t7,184(k1)
8040159c:	af7000c0 	sw	s0,192(k1)
804015a0:	af7100c8 	sw	s1,200(k1)
804015a4:	af7200d0 	sw	s2,208(k1)
804015a8:	af7300d8 	sw	s3,216(k1)
804015ac:	af7400e0 	sw	s4,224(k1)
804015b0:	af7500e8 	sw	s5,232(k1)
804015b4:	af7600f0 	sw	s6,240(k1)
804015b8:	af7700f8 	sw	s7,248(k1)
804015bc:	af780100 	sw	t8,256(k1)
804015c0:	af790108 	sw	t9,264(k1)
804015c4:	af7c0120 	sw	gp,288(k1)
804015c8:	af7d0128 	sw	sp,296(k1)
804015cc:	af7e0130 	sw	s8,304(k1)
804015d0:	af7f0138 	sw	ra,312(k1)
804015d4:	40086800 	mfc0	t0,c0_cause
804015d8:	40096000 	mfc0	t1,c0_status
804015dc:	400a4000 	mfc0	t2,c0_badvaddr
804015e0:	400b7000 	mfc0	t3,c0_epc
804015e4:	400c7800 	mfc0	t4,c0_prid
804015e8:	00006812 	mflo	t5
804015ec:	00007010 	mfhi	t6
804015f0:	af680008 	sw	t0,8(k1)
804015f4:	af690000 	sw	t1,0(k1)
804015f8:	af6a0018 	sw	t2,24(k1)
804015fc:	af6b0010 	sw	t3,16(k1)
80401600:	af6c0020 	sw	t4,32(k1)
80401604:	af6d0140 	sw	t5,320(k1)
80401608:	af6e0148 	sw	t6,328(k1)
8040160c:	3c1c8042 	lui	gp,0x8042
80401610:	279c6390 	addiu	gp,gp,25488
80401614:	03402021 	move	a0,k0
80401618:	03602821 	move	a1,k1
8040161c:	27888024 	addiu	t0,gp,-32732
80401620:	001ad0c2 	srl	k0,k0,0x3
80401624:	001ad080 	sll	k0,k0,0x2
80401628:	011a4021 	addu	t0,t0,k0
8040162c:	8d080000 	lw	t0,0(t0)
80401630:	0360e821 	move	sp,k1
80401634:	0100f809 	jalr	t0
80401638:	00000000 	nop
8040163c:	03a0d821 	move	k1,sp
80401640:	8f610048 	lw	at,72(k1)
80401644:	8f680140 	lw	t0,320(k1)
80401648:	8f690148 	lw	t1,328(k1)
8040164c:	01000013 	mtlo	t0
80401650:	01200011 	mthi	t1
80401654:	8f640060 	lw	a0,96(k1)
80401658:	8f650068 	lw	a1,104(k1)
8040165c:	8f660070 	lw	a2,112(k1)
80401660:	8f670078 	lw	a3,120(k1)
80401664:	8f680080 	lw	t0,128(k1)
80401668:	8f690088 	lw	t1,136(k1)
8040166c:	8f6a0090 	lw	t2,144(k1)
80401670:	8f6b0098 	lw	t3,152(k1)
80401674:	8f6c00a0 	lw	t4,160(k1)
80401678:	8f6d00a8 	lw	t5,168(k1)
8040167c:	8f6e00b0 	lw	t6,176(k1)
80401680:	8f6f00b8 	lw	t7,184(k1)
80401684:	8f7000c0 	lw	s0,192(k1)
80401688:	8f7100c8 	lw	s1,200(k1)
8040168c:	8f7200d0 	lw	s2,208(k1)
80401690:	8f7300d8 	lw	s3,216(k1)
80401694:	8f7400e0 	lw	s4,224(k1)
80401698:	8f7500e8 	lw	s5,232(k1)
8040169c:	8f7600f0 	lw	s6,240(k1)
804016a0:	8f7700f8 	lw	s7,248(k1)
804016a4:	8f780100 	lw	t8,256(k1)
804016a8:	8f790108 	lw	t9,264(k1)
804016ac:	8f7c0120 	lw	gp,288(k1)
804016b0:	8f7d0128 	lw	sp,296(k1)
804016b4:	8f7e0130 	lw	s8,304(k1)
804016b8:	8f7f0138 	lw	ra,312(k1)
804016bc:	8f620050 	lw	v0,80(k1)
804016c0:	8f630058 	lw	v1,88(k1)
804016c4:	42000018 	eret

804016c8 <_exc_clear_sr_exl>:
804016c8:	40086000 	mfc0	t0,c0_status
804016cc:	2401fffd 	li	at,-3
804016d0:	01014024 	and	t0,t0,at
804016d4:	40886000 	mtc0	t0,c0_status
	...
804016f4:	03e00008 	jr	ra
804016f8:	00000000 	nop

804016fc <_exc_clear_sr_erl>:
804016fc:	40086000 	mfc0	t0,c0_status
80401700:	2401fffb 	li	at,-5
80401704:	01014024 	and	t0,t0,at
80401708:	40886000 	mtc0	t0,c0_status
	...
80401728:	03e00008 	jr	ra
8040172c:	00000000 	nop

80401730 <bcm6348_ether_open>:
80401730:	03e00008 	jr	ra
80401734:	00001021 	move	v0,zero

80401738 <bcm6348_ether_read>:
80401738:	27bdffe0 	addiu	sp,sp,-32
8040173c:	afb20018 	sw	s2,24(sp)
80401740:	afbf001c 	sw	ra,28(sp)
80401744:	afb10014 	sw	s1,20(sp)
80401748:	afb00010 	sw	s0,16(sp)
8040174c:	00a09021 	move	s2,a1
80401750:	14800004 	bnez	a0,80401764 <bcm6348_ether_read+0x2c>
80401754:	8c910004 	lw	s1,4(a0)
80401758:	3c048042 	lui	a0,0x8042
8040175c:	081005dc 	j	80401770 <bcm6348_ether_read+0x38>
80401760:	24849e84 	addiu	a0,a0,-24956
80401764:	14a00006 	bnez	a1,80401780 <bcm6348_ether_read+0x48>
80401768:	3c048042 	lui	a0,0x8042
8040176c:	24849e90 	addiu	a0,a0,-24944
80401770:	0c10331a 	jal	8040cc68 <xprintf>
80401774:	00000000 	nop
80401778:	08100619 	j	80401864 <bcm6348_ether_read+0x12c>
8040177c:	2402ffff 	li	v0,-1
80401780:	8ca2000c 	lw	v0,12(a1)
80401784:	2c4205ef 	sltiu	v0,v0,1519
80401788:	14400007 	bnez	v0,804017a8 <bcm6348_ether_read+0x70>
8040178c:	3c048042 	lui	a0,0x8042
80401790:	0c10331a 	jal	8040cc68 <xprintf>
80401794:	24849ea0 	addiu	a0,a0,-24928
80401798:	8e45000c 	lw	a1,12(s2)
8040179c:	3c048042 	lui	a0,0x8042
804017a0:	081005f7 	j	804017dc <bcm6348_ether_read+0xa4>
804017a4:	24849eb8 	addiu	a0,a0,-24904
804017a8:	16200003 	bnez	s1,804017b8 <bcm6348_ether_read+0x80>
804017ac:	3c048042 	lui	a0,0x8042
804017b0:	081005dc 	j	80401770 <bcm6348_ether_read+0x38>
804017b4:	24849ecc 	addiu	a0,a0,-24884
804017b8:	8e260024 	lw	a2,36(s1)
804017bc:	94c20002 	lhu	v0,2(a2)
804017c0:	3045ffff 	andi	a1,v0,0xffff
804017c4:	00051382 	srl	v0,a1,0xe
804017c8:	30420001 	andi	v0,v0,0x1
804017cc:	14400007 	bnez	v0,804017ec <bcm6348_ether_read+0xb4>
804017d0:	00c08021 	move	s0,a2
804017d4:	3c048042 	lui	a0,0x8042
804017d8:	24849ef0 	addiu	a0,a0,-24848
804017dc:	0c10331a 	jal	8040cc68 <xprintf>
804017e0:	00000000 	nop
804017e4:	08100619 	j	80401864 <bcm6348_ether_read+0x12c>
804017e8:	2402ffff 	li	v0,-1
804017ec:	8cc20004 	lw	v0,4(a2)
804017f0:	94c60000 	lhu	a2,0(a2)
804017f4:	8e440008 	lw	a0,8(s2)
804017f8:	3c05a000 	lui	a1,0xa000
804017fc:	30c6ffff 	andi	a2,a2,0xffff
80401800:	ae460010 	sw	a2,16(s2)
80401804:	0c10345e 	jal	8040d178 <lib_memcpy>
80401808:	00452825 	or	a1,v0,a1
8040180c:	24020600 	li	v0,1536
80401810:	a6020000 	sh	v0,0(s0)
80401814:	96020002 	lhu	v0,2(s0)
80401818:	8e240028 	lw	a0,40(s1)
8040181c:	24038000 	li	v1,-32768
80401820:	30421000 	andi	v0,v0,0x1000
80401824:	a6020002 	sh	v0,2(s0)
80401828:	96020002 	lhu	v0,2(s0)
8040182c:	00431025 	or	v0,v0,v1
80401830:	a6020002 	sh	v0,2(s0)
80401834:	16040003 	bne	s0,a0,80401844 <bcm6348_ether_read+0x10c>
80401838:	00000000 	nop
8040183c:	08100612 	j	80401848 <bcm6348_ether_read+0x110>
80401840:	8e30001c 	lw	s0,28(s1)
80401844:	26100008 	addiu	s0,s0,8
80401848:	8e240018 	lw	a0,24(s1)
8040184c:	8e230000 	lw	v1,0(s1)
80401850:	24020001 	li	v0,1
80401854:	ae300024 	sw	s0,36(s1)
80401858:	ac62000c 	sw	v0,12(v1)
8040185c:	ac820000 	sw	v0,0(a0)
80401860:	00001021 	move	v0,zero
80401864:	8fbf001c 	lw	ra,28(sp)
80401868:	8fb20018 	lw	s2,24(sp)
8040186c:	8fb10014 	lw	s1,20(sp)
80401870:	8fb00010 	lw	s0,16(sp)
80401874:	03e00008 	jr	ra
80401878:	27bd0020 	addiu	sp,sp,32

8040187c <bcm6348_ether_inpstat>:
8040187c:	27bdffe8 	addiu	sp,sp,-24
80401880:	00801021 	move	v0,a0
80401884:	3c048042 	lui	a0,0x8042
80401888:	afbf0010 	sw	ra,16(sp)
8040188c:	10400009 	beqz	v0,804018b4 <bcm6348_ether_inpstat+0x38>
80401890:	24849e84 	addiu	a0,a0,-24956
80401894:	3c048042 	lui	a0,0x8042
80401898:	10a00006 	beqz	a1,804018b4 <bcm6348_ether_inpstat+0x38>
8040189c:	24849f0c 	addiu	a0,a0,-24820
804018a0:	8c420004 	lw	v0,4(v0)
804018a4:	3c048042 	lui	a0,0x8042
804018a8:	24849ecc 	addiu	a0,a0,-24884
804018ac:	14400005 	bnez	v0,804018c4 <bcm6348_ether_inpstat+0x48>
804018b0:	00001821 	move	v1,zero
804018b4:	0c10331a 	jal	8040cc68 <xprintf>
804018b8:	00000000 	nop
804018bc:	08100636 	j	804018d8 <bcm6348_ether_inpstat+0x5c>
804018c0:	2403ffff 	li	v1,-1
804018c4:	8c420024 	lw	v0,36(v0)
804018c8:	94420002 	lhu	v0,2(v0)
804018cc:	30428000 	andi	v0,v0,0x8000
804018d0:	2c420001 	sltiu	v0,v0,1
804018d4:	aca20000 	sw	v0,0(a1)
804018d8:	8fbf0010 	lw	ra,16(sp)
804018dc:	00601021 	move	v0,v1
804018e0:	03e00008 	jr	ra
804018e4:	27bd0018 	addiu	sp,sp,24

804018e8 <bcm6348_ether_write>:
804018e8:	27bdffd8 	addiu	sp,sp,-40
804018ec:	afb20020 	sw	s2,32(sp)
804018f0:	afbf0024 	sw	ra,36(sp)
804018f4:	afb1001c 	sw	s1,28(sp)
804018f8:	afb00018 	sw	s0,24(sp)
804018fc:	00a09021 	move	s2,a1
80401900:	afa00010 	sw	zero,16(sp)
80401904:	14800004 	bnez	a0,80401918 <bcm6348_ether_write+0x30>
80401908:	00000000 	nop
8040190c:	3c048042 	lui	a0,0x8042
80401910:	08100665 	j	80401994 <bcm6348_ether_write+0xac>
80401914:	24849e84 	addiu	a0,a0,-24956
80401918:	14a00004 	bnez	a1,8040192c <bcm6348_ether_write+0x44>
8040191c:	00000000 	nop
80401920:	3c048042 	lui	a0,0x8042
80401924:	08100665 	j	80401994 <bcm6348_ether_write+0xac>
80401928:	24849e90 	addiu	a0,a0,-24944
8040192c:	8ca6000c 	lw	a2,12(a1)
80401930:	2cc205ef 	sltiu	v0,a2,1519
80401934:	1440000a 	bnez	v0,80401960 <bcm6348_ether_write+0x78>
80401938:	00000000 	nop
8040193c:	3c048042 	lui	a0,0x8042
80401940:	0c10331a 	jal	8040cc68 <xprintf>
80401944:	24849f20 	addiu	a0,a0,-24800
80401948:	8e45000c 	lw	a1,12(s2)
8040194c:	3c048042 	lui	a0,0x8042
80401950:	0c10331a 	jal	8040cc68 <xprintf>
80401954:	24849f38 	addiu	a0,a0,-24776
80401958:	08100689 	j	80401a24 <bcm6348_ether_write+0x13c>
8040195c:	2402ffff 	li	v0,-1
80401960:	8c910004 	lw	s1,4(a0)
80401964:	16200003 	bnez	s1,80401974 <bcm6348_ether_write+0x8c>
80401968:	3c048042 	lui	a0,0x8042
8040196c:	08100665 	j	80401994 <bcm6348_ether_write+0xac>
80401970:	24849ecc 	addiu	a0,a0,-24884
80401974:	8e300010 	lw	s0,16(s1)
80401978:	96020002 	lhu	v0,2(s0)
8040197c:	00021400 	sll	v0,v0,0x10
80401980:	00021403 	sra	v0,v0,0x10
80401984:	04410007 	bgez	v0,804019a4 <bcm6348_ether_write+0xbc>
80401988:	00000000 	nop
8040198c:	3c048042 	lui	a0,0x8042
80401990:	24849f44 	addiu	a0,a0,-24764
80401994:	0c10331a 	jal	8040cc68 <xprintf>
80401998:	00000000 	nop
8040199c:	08100689 	j	80401a24 <bcm6348_ether_write+0x13c>
804019a0:	2402ffff 	li	v0,-1
804019a4:	8e020004 	lw	v0,4(s0)
804019a8:	8ca50008 	lw	a1,8(a1)
804019ac:	3c04a000 	lui	a0,0xa000
804019b0:	0c10345e 	jal	8040d178 <lib_memcpy>
804019b4:	00442025 	or	a0,v0,a0
804019b8:	8e270014 	lw	a3,20(s1)
804019bc:	8e45000c 	lw	a1,12(s2)
804019c0:	8e260004 	lw	a2,4(s1)
804019c4:	3402f100 	li	v0,0xf100
804019c8:	3403e100 	li	v1,0xe100
804019cc:	02072026 	xor	a0,s0,a3
804019d0:	0044180a 	movz	v1,v0,a0
804019d4:	a6050000 	sh	a1,0(s0)
804019d8:	a6030002 	sh	v1,2(s0)
804019dc:	8cc20000 	lw	v0,0(a2)
804019e0:	34420001 	ori	v0,v0,0x1
804019e4:	acc20000 	sw	v0,0(a2)
804019e8:	96020002 	lhu	v0,2(s0)
804019ec:	3042ffff 	andi	v0,v0,0xffff
804019f0:	afa20010 	sw	v0,16(sp)
804019f4:	8fa20010 	lw	v0,16(sp)
804019f8:	000213c2 	srl	v0,v0,0xf
804019fc:	30420001 	andi	v0,v0,0x1
80401a00:	1440fff9 	bnez	v0,804019e8 <bcm6348_ether_write+0x100>
80401a04:	00000000 	nop
80401a08:	16070003 	bne	s0,a3,80401a18 <bcm6348_ether_write+0x130>
80401a0c:	00000000 	nop
80401a10:	08100687 	j	80401a1c <bcm6348_ether_write+0x134>
80401a14:	8e300008 	lw	s0,8(s1)
80401a18:	26100008 	addiu	s0,s0,8
80401a1c:	ae300010 	sw	s0,16(s1)
80401a20:	00001021 	move	v0,zero
80401a24:	8fbf0024 	lw	ra,36(sp)
80401a28:	8fb20020 	lw	s2,32(sp)
80401a2c:	8fb1001c 	lw	s1,28(sp)
80401a30:	8fb00018 	lw	s0,24(sp)
80401a34:	03e00008 	jr	ra
80401a38:	27bd0028 	addiu	sp,sp,40

80401a3c <bcm6348_ether_probe>:
80401a3c:	27bdff40 	addiu	sp,sp,-192
80401a40:	afb200b0 	sw	s2,176(sp)
80401a44:	3c128042 	lui	s2,0x8042
80401a48:	afb400b8 	sw	s4,184(sp)
80401a4c:	24050078 	li	a1,120
80401a50:	0080a021 	move	s4,a0
80401a54:	24060010 	li	a2,16
80401a58:	26442bec 	addiu	a0,s2,11244
80401a5c:	afb100ac 	sw	s1,172(sp)
80401a60:	afbf00bc 	sw	ra,188(sp)
80401a64:	afb300b4 	sw	s3,180(sp)
80401a68:	0c103064 	jal	8040c190 <kmalloc>
80401a6c:	afb000a8 	sw	s0,168(sp)
80401a70:	14400004 	bnez	v0,80401a84 <bcm6348_ether_probe+0x48>
80401a74:	00408821 	move	s1,v0
80401a78:	3c048042 	lui	a0,0x8042
80401a7c:	081007d5 	j	80401f54 <bcm6348_ether_probe+0x518>
80401a80:	24849f5c 	addiu	a0,a0,-24740
80401a84:	00402021 	move	a0,v0
80401a88:	00002821 	move	a1,zero
80401a8c:	0c103468 	jal	8040d1a0 <lib_memset>
80401a90:	24060078 	li	a2,120
80401a94:	3c08fffe 	lui	t0,0xfffe
80401a98:	95070006 	lhu	a3,6(t0)
80401a9c:	35037000 	ori	v1,t0,0x7000
80401aa0:	24640130 	addiu	a0,v1,304
80401aa4:	24620120 	addiu	v0,v1,288
80401aa8:	34e70010 	ori	a3,a3,0x10
80401aac:	ae240004 	sw	a0,4(s1)
80401ab0:	ae220018 	sw	v0,24(s1)
80401ab4:	ae230000 	sw	v1,0(s1)
80401ab8:	26442bec 	addiu	a0,s2,11244
80401abc:	240500a0 	li	a1,160
80401ac0:	24060010 	li	a2,16
80401ac4:	a5070006 	sh	a3,6(t0)
80401ac8:	0c103064 	jal	8040c190 <kmalloc>
80401acc:	00000000 	nop
80401ad0:	14400006 	bnez	v0,80401aec <bcm6348_ether_probe+0xb0>
80401ad4:	00408021 	move	s0,v0
80401ad8:	3c048042 	lui	a0,0x8042
80401adc:	0c10331a 	jal	8040cc68 <xprintf>
80401ae0:	24849f88 	addiu	a0,a0,-24696
80401ae4:	081007d0 	j	80401f40 <bcm6348_ether_probe+0x504>
80401ae8:	2404ffff 	li	a0,-1
80401aec:	00402821 	move	a1,v0
80401af0:	244600a0 	addiu	a2,v0,160
80401af4:	24040020 	li	a0,32
80401af8:	0c100475 	jal	804011d4 <_cfe_flushcache>
80401afc:	3c132000 	lui	s3,0x2000
80401b00:	02131025 	or	v0,s0,s3
80401b04:	ae220008 	sw	v0,8(s1)
80401b08:	26442bec 	addiu	a0,s2,11244
80401b0c:	240500a0 	li	a1,160
80401b10:	0c103064 	jal	8040c190 <kmalloc>
80401b14:	24060010 	li	a2,16
80401b18:	1440000a 	bnez	v0,80401b44 <bcm6348_ether_probe+0x108>
80401b1c:	00408021 	move	s0,v0
80401b20:	3c048042 	lui	a0,0x8042
80401b24:	0c10331a 	jal	8040cc68 <xprintf>
80401b28:	24849fb4 	addiu	a0,a0,-24652
80401b2c:	8e250008 	lw	a1,8(s1)
80401b30:	0c103031 	jal	8040c0c4 <kfree>
80401b34:	26442bec 	addiu	a0,s2,11244
80401b38:	2404ffff 	li	a0,-1
80401b3c:	081007d0 	j	80401f40 <bcm6348_ether_probe+0x504>
80401b40:	ae200008 	sw	zero,8(s1)
80401b44:	00402821 	move	a1,v0
80401b48:	244600a0 	addiu	a2,v0,160
80401b4c:	0c100475 	jal	804011d4 <_cfe_flushcache>
80401b50:	24040020 	li	a0,32
80401b54:	02131025 	or	v0,s0,s3
80401b58:	ae22001c 	sw	v0,28(s1)
80401b5c:	26442bec 	addiu	a0,s2,11244
80401b60:	24057800 	li	a1,30720
80401b64:	0c103064 	jal	8040c190 <kmalloc>
80401b68:	24060010 	li	a2,16
80401b6c:	14400006 	bnez	v0,80401b88 <bcm6348_ether_probe+0x14c>
80401b70:	ae22002c 	sw	v0,44(s1)
80401b74:	3c048042 	lui	a0,0x8042
80401b78:	0c10331a 	jal	8040cc68 <xprintf>
80401b7c:	24849fe0 	addiu	a0,a0,-24608
80401b80:	081006f4 	j	80401bd0 <bcm6348_ether_probe+0x194>
80401b84:	8e250008 	lw	a1,8(s1)
80401b88:	00402821 	move	a1,v0
80401b8c:	24467800 	addiu	a2,v0,30720
80401b90:	0c100475 	jal	804011d4 <_cfe_flushcache>
80401b94:	24040020 	li	a0,32
80401b98:	26442bec 	addiu	a0,s2,11244
80401b9c:	24057800 	li	a1,30720
80401ba0:	0c103064 	jal	8040c190 <kmalloc>
80401ba4:	24060010 	li	a2,16
80401ba8:	14400012 	bnez	v0,80401bf4 <bcm6348_ether_probe+0x1b8>
80401bac:	ae220030 	sw	v0,48(s1)
80401bb0:	3c048042 	lui	a0,0x8042
80401bb4:	0c10331a 	jal	8040cc68 <xprintf>
80401bb8:	2484a010 	addiu	a0,a0,-24560
80401bbc:	8e25002c 	lw	a1,44(s1)
80401bc0:	0c103031 	jal	8040c0c4 <kfree>
80401bc4:	26442bec 	addiu	a0,s2,11244
80401bc8:	8e250008 	lw	a1,8(s1)
80401bcc:	ae20002c 	sw	zero,44(s1)
80401bd0:	0c103031 	jal	8040c0c4 <kfree>
80401bd4:	26442bec 	addiu	a0,s2,11244
80401bd8:	8e25001c 	lw	a1,28(s1)
80401bdc:	26442bec 	addiu	a0,s2,11244
80401be0:	0c103031 	jal	8040c0c4 <kfree>
80401be4:	ae200008 	sw	zero,8(s1)
80401be8:	2404ffff 	li	a0,-1
80401bec:	081007d0 	j	80401f40 <bcm6348_ether_probe+0x504>
80401bf0:	ae20001c 	sw	zero,28(s1)
80401bf4:	00402821 	move	a1,v0
80401bf8:	24467800 	addiu	a2,v0,30720
80401bfc:	0c100475 	jal	804011d4 <_cfe_flushcache>
80401c00:	24040020 	li	a0,32
80401c04:	8e22001c 	lw	v0,28(s1)
80401c08:	8e270000 	lw	a3,0(s1)
80401c0c:	240a8000 	li	t2,-32768
80401c10:	24430098 	addiu	v1,v0,152
80401c14:	ae230028 	sw	v1,40(s1)
80401c18:	3c031fff 	lui	v1,0x1fff
80401c1c:	ae220024 	sw	v0,36(s1)
80401c20:	ae220020 	sw	v0,32(s1)
80401c24:	3463ffff 	ori	v1,v1,0xffff
80401c28:	00402021 	move	a0,v0
80401c2c:	24090600 	li	t1,1536
80401c30:	24080001 	li	t0,1
80401c34:	00003021 	move	a2,zero
80401c38:	24050013 	li	a1,19
80401c3c:	8e22002c 	lw	v0,44(s1)
80401c40:	a48a0002 	sh	t2,2(a0)
80401c44:	a4890000 	sh	t1,0(a0)
80401c48:	00461021 	addu	v0,v0,a2
80401c4c:	ac820004 	sw	v0,4(a0)
80401c50:	8c820004 	lw	v0,4(a0)
80401c54:	24a5ffff 	addiu	a1,a1,-1
80401c58:	24c60600 	addiu	a2,a2,1536
80401c5c:	00431024 	and	v0,v0,v1
80401c60:	ac820004 	sw	v0,4(a0)
80401c64:	ace8000c 	sw	t0,12(a3)
80401c68:	04a1fff4 	bgez	a1,80401c3c <bcm6348_ether_probe+0x200>
80401c6c:	24840008 	addiu	a0,a0,8
80401c70:	8e250028 	lw	a1,40(s1)
80401c74:	8e240008 	lw	a0,8(s1)
80401c78:	94a20002 	lhu	v0,2(a1)
80401c7c:	24830098 	addiu	v1,a0,152
80401c80:	ae230014 	sw	v1,20(s1)
80401c84:	34421000 	ori	v0,v0,0x1000
80401c88:	a4a20002 	sh	v0,2(a1)
80401c8c:	3c021fff 	lui	v0,0x1fff
80401c90:	ae240010 	sw	a0,16(s1)
80401c94:	ae24000c 	sw	a0,12(s1)
80401c98:	3446ffff 	ori	a2,v0,0xffff
80401c9c:	00001821 	move	v1,zero
80401ca0:	24050013 	li	a1,19
80401ca4:	8e220030 	lw	v0,48(s1)
80401ca8:	a4800002 	sh	zero,2(a0)
80401cac:	a4800000 	sh	zero,0(a0)
80401cb0:	00431021 	addu	v0,v0,v1
80401cb4:	ac820004 	sw	v0,4(a0)
80401cb8:	8c820004 	lw	v0,4(a0)
80401cbc:	24a5ffff 	addiu	a1,a1,-1
80401cc0:	24630600 	addiu	v1,v1,1536
80401cc4:	00461024 	and	v0,v0,a2
80401cc8:	ac820004 	sw	v0,4(a0)
80401ccc:	04a1fff5 	bgez	a1,80401ca4 <bcm6348_ether_probe+0x268>
80401cd0:	24840008 	addiu	a0,a0,8
80401cd4:	8e230014 	lw	v1,20(s1)
80401cd8:	24021000 	li	v0,4096
80401cdc:	24e40200 	addiu	a0,a3,512
80401ce0:	a4620002 	sh	v0,2(v1)
80401ce4:	2402000f 	li	v0,15
80401ce8:	2442ffff 	addiu	v0,v0,-1
80401cec:	ac800000 	sw	zero,0(a0)
80401cf0:	0441fffd 	bgez	v0,80401ce8 <bcm6348_ether_probe+0x2ac>
80401cf4:	24840004 	addiu	a0,a0,4
80401cf8:	8e24000c 	lw	a0,12(s1)
80401cfc:	8e230004 	lw	v1,4(s1)
80401d00:	3c051fff 	lui	a1,0x1fff
80401d04:	24060002 	li	a2,2
80401d08:	34a5ffff 	ori	a1,a1,0xffff
80401d0c:	24020005 	li	v0,5
80401d10:	ace60000 	sw	a2,0(a3)
80401d14:	00852024 	and	a0,a0,a1
80401d18:	ace20004 	sw	v0,4(a3)
80401d1c:	24080010 	li	t0,16
80401d20:	24090007 	li	t1,7
80401d24:	2402000a 	li	v0,10
80401d28:	ace20008 	sw	v0,8(a3)
80401d2c:	ace0000c 	sw	zero,12(a3)
80401d30:	ac600000 	sw	zero,0(v1)
80401d34:	ac68000c 	sw	t0,12(v1)
80401d38:	ac600008 	sw	zero,8(v1)
80401d3c:	ac690004 	sw	t1,4(v1)
80401d40:	ac660008 	sw	a2,8(v1)
80401d44:	ace40230 	sw	a0,560(a3)
80401d48:	8e240020 	lw	a0,32(s1)
80401d4c:	8e220018 	lw	v0,24(s1)
80401d50:	8e270000 	lw	a3,0(s1)
80401d54:	3c03fffe 	lui	v1,0xfffe
80401d58:	00852024 	and	a0,a0,a1
80401d5c:	34636800 	ori	v1,v1,0x6800
80401d60:	ac400000 	sw	zero,0(v0)
80401d64:	00602821 	move	a1,v1
80401d68:	ac48000c 	sw	t0,12(v0)
80401d6c:	ac400008 	sw	zero,8(v0)
80401d70:	ac490004 	sw	t1,4(v0)
80401d74:	ac460008 	sw	a2,8(v0)
80401d78:	ace40220 	sw	a0,544(a3)
80401d7c:	ac66002c 	sw	a2,44(v1)
80401d80:	8ca2002c 	lw	v0,44(a1)
80401d84:	00021042 	srl	v0,v0,0x1
80401d88:	30420001 	andi	v0,v0,0x1
80401d8c:	1440fffc 	bnez	v0,80401d80 <bcm6348_ether_probe+0x344>
80401d90:	3c12fffe 	lui	s2,0xfffe
80401d94:	24020004 	li	v0,4
80401d98:	aca2002c 	sw	v0,44(a1)
80401d9c:	36506800 	ori	s0,s2,0x6800
80401da0:	8e02002c 	lw	v0,44(s0)
80401da4:	00021082 	srl	v0,v0,0x2
80401da8:	30420001 	andi	v0,v0,0x1
80401dac:	1440fffc 	bnez	v0,80401da0 <bcm6348_ether_probe+0x364>
80401db0:	27a40078 	addiu	a0,sp,120
80401db4:	0c102721 	jal	80409c84 <BpGetEthernetMacInfo>
80401db8:	24050002 	li	a1,2
80401dbc:	26240064 	addiu	a0,s1,100
80401dc0:	27a5008a 	addiu	a1,sp,138
80401dc4:	0c10345e 	jal	8040d178 <lib_memcpy>
80401dc8:	24060012 	li	a2,18
80401dcc:	92230064 	lbu	v1,100(s1)
80401dd0:	24020001 	li	v0,1
80401dd4:	1062000c 	beq	v1,v0,80401e08 <bcm6348_ether_probe+0x3cc>
80401dd8:	ae300040 	sw	s0,64(s1)
80401ddc:	96220072 	lhu	v0,114(s1)
80401de0:	36450400 	ori	a1,s2,0x400
80401de4:	8ca40018 	lw	a0,24(a1)
80401de8:	2442fffc 	addiu	v0,v0,-4
80401dec:	3042ffff 	andi	v0,v0,0xffff
80401df0:	34847007 	ori	a0,a0,0x7007
80401df4:	2c420003 	sltiu	v0,v0,3
80401df8:	38420000 	xori	v0,v0,0x0
80401dfc:	34830060 	ori	v1,a0,0x60
80401e00:	0062200b 	movn	a0,v1,v0
80401e04:	aca40018 	sw	a0,24(a1)
80401e08:	0c100a91 	jal	80402a44 <mii_init>
80401e0c:	02202021 	move	a0,s1
80401e10:	1440004b 	bnez	v0,80401f40 <bcm6348_ether_probe+0x504>
80401e14:	2404ffff 	li	a0,-1
80401e18:	3c02fffe 	lui	v0,0xfffe
80401e1c:	34506800 	ori	s0,v0,0x6800
80401e20:	24030020 	li	v1,32
80401e24:	240205ee 	li	v0,1518
80401e28:	ae030000 	sw	v1,0(s0)
80401e2c:	ae020004 	sw	v0,4(s0)
80401e30:	ae020008 	sw	v0,8(s0)
80401e34:	24020001 	li	v0,1
80401e38:	ae030034 	sw	v1,52(s0)
80401e3c:	ae020038 	sw	v0,56(s0)
80401e40:	ae000018 	sw	zero,24(s0)
80401e44:	8e02002c 	lw	v0,44(s0)
80401e48:	8e230000 	lw	v1,0(s1)
80401e4c:	26320038 	addiu	s2,s1,56
80401e50:	34420001 	ori	v0,v0,0x1
80401e54:	ae02002c 	sw	v0,44(s0)
80401e58:	8c620000 	lw	v0,0(v1)
80401e5c:	02402021 	move	a0,s2
80401e60:	34420001 	ori	v0,v0,0x1
80401e64:	ac620000 	sw	v0,0(v1)
80401e68:	0c100f1e 	jal	80403c78 <getMacAddress>
80401e6c:	00000000 	nop
80401e70:	8e02002c 	lw	v0,44(s0)
80401e74:	afa200a0 	sw	v0,160(sp)
80401e78:	8fa200a0 	lw	v0,160(sp)
80401e7c:	30420001 	andi	v0,v0,0x1
80401e80:	1040000e 	beqz	v0,80401ebc <bcm6348_ether_probe+0x480>
80401e84:	00000000 	nop
80401e88:	8e02002c 	lw	v0,44(s0)
80401e8c:	2403fffe 	li	v1,-2
80401e90:	02002021 	move	a0,s0
80401e94:	00431024 	and	v0,v0,v1
80401e98:	ae02002c 	sw	v0,44(s0)
80401e9c:	8e02002c 	lw	v0,44(s0)
80401ea0:	34420002 	ori	v0,v0,0x2
80401ea4:	ae02002c 	sw	v0,44(s0)
80401ea8:	8c82002c 	lw	v0,44(a0)
80401eac:	00021042 	srl	v0,v0,0x1
80401eb0:	30420001 	andi	v0,v0,0x1
80401eb4:	1440fffc 	bnez	v0,80401ea8 <bcm6348_ether_probe+0x46c>
80401eb8:	00000000 	nop
80401ebc:	92430004 	lbu	v1,4(s2)
80401ec0:	92420005 	lbu	v0,5(s2)
80401ec4:	92440003 	lbu	a0,3(s2)
80401ec8:	92450002 	lbu	a1,2(s2)
80401ecc:	00031a00 	sll	v1,v1,0x8
80401ed0:	00431025 	or	v0,v0,v1
80401ed4:	00042400 	sll	a0,a0,0x10
80401ed8:	00441025 	or	v0,v0,a0
80401edc:	00052e00 	sll	a1,a1,0x18
80401ee0:	3c04fffe 	lui	a0,0xfffe
80401ee4:	00451025 	or	v0,v0,a1
80401ee8:	34836858 	ori	v1,a0,0x6858
80401eec:	ac620000 	sw	v0,0(v1)
80401ef0:	92420000 	lbu	v0,0(s2)
80401ef4:	92430001 	lbu	v1,1(s2)
80401ef8:	00021200 	sll	v0,v0,0x8
80401efc:	00621825 	or	v1,v1,v0
80401f00:	3c020001 	lui	v0,0x1
80401f04:	00621825 	or	v1,v1,v0
80401f08:	3482685c 	ori	v0,a0,0x685c
80401f0c:	ac430000 	sw	v1,0(v0)
80401f10:	8fa200a0 	lw	v0,160(sp)
80401f14:	30420001 	andi	v0,v0,0x1
80401f18:	10400004 	beqz	v0,80401f2c <bcm6348_ether_probe+0x4f0>
80401f1c:	00000000 	nop
80401f20:	8fa300a0 	lw	v1,160(sp)
80401f24:	34826800 	ori	v0,a0,0x6800
80401f28:	ac43002c 	sw	v1,44(v0)
80401f2c:	8e230018 	lw	v1,24(s1)
80401f30:	00002021 	move	a0,zero
80401f34:	8c620000 	lw	v0,0(v1)
80401f38:	34420001 	ori	v0,v0,0x1
80401f3c:	ac620000 	sw	v0,0(v1)
80401f40:	2402ffff 	li	v0,-1
80401f44:	14820007 	bne	a0,v0,80401f64 <bcm6348_ether_probe+0x528>
80401f48:	02802021 	move	a0,s4
80401f4c:	3c048042 	lui	a0,0x8042
80401f50:	2484a040 	addiu	a0,a0,-24512
80401f54:	0c10331a 	jal	8040cc68 <xprintf>
80401f58:	00000000 	nop
80401f5c:	081007de 	j	80401f78 <bcm6348_ether_probe+0x53c>
80401f60:	8fbf00bc 	lw	ra,188(sp)
80401f64:	02202821 	move	a1,s1
80401f68:	00003021 	move	a2,zero
80401f6c:	0c1036ed 	jal	8040dbb4 <cfe_attach>
80401f70:	27a70010 	addiu	a3,sp,16
80401f74:	8fbf00bc 	lw	ra,188(sp)
80401f78:	8fb400b8 	lw	s4,184(sp)
80401f7c:	8fb300b4 	lw	s3,180(sp)
80401f80:	8fb200b0 	lw	s2,176(sp)
80401f84:	8fb100ac 	lw	s1,172(sp)
80401f88:	8fb000a8 	lw	s0,168(sp)
80401f8c:	03e00008 	jr	ra
80401f90:	27bd00c0 	addiu	sp,sp,192

80401f94 <bcm6348_ether_ioctl>:
80401f94:	03e00008 	jr	ra
80401f98:	00001021 	move	v0,zero

80401f9c <delay_t>:
80401f9c:	27bdffe8 	addiu	sp,sp,-24
80401fa0:	afb00010 	sw	s0,16(sp)
80401fa4:	00048100 	sll	s0,a0,0x4
80401fa8:	afbf0014 	sw	ra,20(sp)
80401fac:	0c1004eb 	jal	804013ac <_getticks>
80401fb0:	02048023 	subu	s0,s0,a0
80401fb4:	00508021 	addu	s0,v0,s0
80401fb8:	0c1004eb 	jal	804013ac <_getticks>
80401fbc:	00000000 	nop
80401fc0:	0050102a 	slt	v0,v0,s0
80401fc4:	1440fffc 	bnez	v0,80401fb8 <delay_t+0x1c>
80401fc8:	8fbf0014 	lw	ra,20(sp)
80401fcc:	8fb00010 	lw	s0,16(sp)
80401fd0:	03e00008 	jr	ra
80401fd4:	27bd0018 	addiu	sp,sp,24

80401fd8 <bcm6348_ether_close>:
80401fd8:	27bdffe0 	addiu	sp,sp,-32
80401fdc:	afb20018 	sw	s2,24(sp)
80401fe0:	afbf001c 	sw	ra,28(sp)
80401fe4:	afb10014 	sw	s1,20(sp)
80401fe8:	afb00010 	sw	s0,16(sp)
80401fec:	8c910004 	lw	s1,4(a0)
80401ff0:	00009021 	move	s2,zero
80401ff4:	8e220018 	lw	v0,24(s1)
80401ff8:	8c430004 	lw	v1,4(v0)
80401ffc:	ac430004 	sw	v1,4(v0)
80402000:	ac400008 	sw	zero,8(v0)
80402004:	ac400000 	sw	zero,0(v0)
80402008:	8c420000 	lw	v0,0(v0)
8040200c:	30420001 	andi	v0,v0,0x1
80402010:	1040000b 	beqz	v0,80402040 <bcm6348_ether_close+0x68>
80402014:	2a430014 	slti	v1,s2,20
80402018:	8e220018 	lw	v0,24(s1)
8040201c:	00002021 	move	a0,zero
80402020:	26520001 	addiu	s2,s2,1
80402024:	ac400000 	sw	zero,0(v0)
80402028:	10600005 	beqz	v1,80402040 <bcm6348_ether_close+0x68>
8040202c:	00000000 	nop
80402030:	0c1007e7 	jal	80401f9c <delay_t>
80402034:	00000000 	nop
80402038:	08100802 	j	80402008 <bcm6348_ether_close+0x30>
8040203c:	8e220018 	lw	v0,24(s1)
80402040:	8e220004 	lw	v0,4(s1)
80402044:	00009021 	move	s2,zero
80402048:	8c430004 	lw	v1,4(v0)
8040204c:	ac430004 	sw	v1,4(v0)
80402050:	ac400008 	sw	zero,8(v0)
80402054:	ac400000 	sw	zero,0(v0)
80402058:	8c420000 	lw	v0,0(v0)
8040205c:	30420001 	andi	v0,v0,0x1
80402060:	1040000b 	beqz	v0,80402090 <bcm6348_ether_close+0xb8>
80402064:	2a430014 	slti	v1,s2,20
80402068:	8e220004 	lw	v0,4(s1)
8040206c:	00002021 	move	a0,zero
80402070:	26520001 	addiu	s2,s2,1
80402074:	ac400000 	sw	zero,0(v0)
80402078:	10600005 	beqz	v1,80402090 <bcm6348_ether_close+0xb8>
8040207c:	00000000 	nop
80402080:	0c1007e7 	jal	80401f9c <delay_t>
80402084:	00000000 	nop
80402088:	08100816 	j	80402058 <bcm6348_ether_close+0x80>
8040208c:	8e220004 	lw	v0,4(s1)
80402090:	8e250000 	lw	a1,0(s1)
80402094:	3c028000 	lui	v0,0x8000
80402098:	3c04fffe 	lui	a0,0xfffe
8040209c:	aca2000c 	sw	v0,12(a1)
804020a0:	8ca30000 	lw	v1,0(a1)
804020a4:	2402fffe 	li	v0,-2
804020a8:	34846800 	ori	a0,a0,0x6800
804020ac:	00621824 	and	v1,v1,v0
804020b0:	aca30000 	sw	v1,0(a1)
804020b4:	8c82002c 	lw	v0,44(a0)
804020b8:	00009021 	move	s2,zero
804020bc:	34420002 	ori	v0,v0,0x2
804020c0:	ac82002c 	sw	v0,44(a0)
804020c4:	8c82002c 	lw	v0,44(a0)
804020c8:	00021042 	srl	v0,v0,0x1
804020cc:	30420001 	andi	v0,v0,0x1
804020d0:	1040000f 	beqz	v0,80402110 <bcm6348_ether_close+0x138>
804020d4:	3c02fffe 	lui	v0,0xfffe
804020d8:	34506800 	ori	s0,v0,0x6800
804020dc:	8e02002c 	lw	v0,44(s0)
804020e0:	2a430014 	slti	v1,s2,20
804020e4:	00002021 	move	a0,zero
804020e8:	34420002 	ori	v0,v0,0x2
804020ec:	26520001 	addiu	s2,s2,1
804020f0:	ae02002c 	sw	v0,44(s0)
804020f4:	10600006 	beqz	v1,80402110 <bcm6348_ether_close+0x138>
804020f8:	00000000 	nop
804020fc:	0c1007e7 	jal	80401f9c <delay_t>
80402100:	00000000 	nop
80402104:	8e02002c 	lw	v0,44(s0)
80402108:	08100833 	j	804020cc <bcm6348_ether_close+0xf4>
8040210c:	00021042 	srl	v0,v0,0x1
80402110:	8e250030 	lw	a1,48(s1)
80402114:	3c108042 	lui	s0,0x8042
80402118:	0c103031 	jal	8040c0c4 <kfree>
8040211c:	26042bec 	addiu	a0,s0,11244
80402120:	8e25002c 	lw	a1,44(s1)
80402124:	0c103031 	jal	8040c0c4 <kfree>
80402128:	26042bec 	addiu	a0,s0,11244
8040212c:	8e250008 	lw	a1,8(s1)
80402130:	0c103031 	jal	8040c0c4 <kfree>
80402134:	26042bec 	addiu	a0,s0,11244
80402138:	8e25001c 	lw	a1,28(s1)
8040213c:	0c103031 	jal	8040c0c4 <kfree>
80402140:	26042bec 	addiu	a0,s0,11244
80402144:	8fbf001c 	lw	ra,28(sp)
80402148:	8fb20018 	lw	s2,24(sp)
8040214c:	8fb10014 	lw	s1,20(sp)
80402150:	8fb00010 	lw	s0,16(sp)
80402154:	00001021 	move	v0,zero
80402158:	03e00008 	jr	ra
8040215c:	27bd0020 	addiu	sp,sp,32

80402160 <mii_read>:
80402160:	00052dc0 	sll	a1,a1,0x17
80402164:	00063480 	sll	a2,a2,0x12
80402168:	00a62825 	or	a1,a1,a2
8040216c:	3c026002 	lui	v0,0x6002
80402170:	27bdffe8 	addiu	sp,sp,-24
80402174:	00a22825 	or	a1,a1,v0
80402178:	afb00010 	sw	s0,16(sp)
8040217c:	ac850014 	sw	a1,20(a0)
80402180:	00808021 	move	s0,a0
80402184:	afbf0014 	sw	ra,20(sp)
80402188:	0c103c03 	jal	8040f00c <cfe_usleep>
8040218c:	240403e8 	li	a0,1000
80402190:	8e02001c 	lw	v0,28(s0)
80402194:	30420001 	andi	v0,v0,0x1
80402198:	1040fffd 	beqz	v0,80402190 <mii_read+0x30>
8040219c:	00000000 	nop
804021a0:	8e02001c 	lw	v0,28(s0)
804021a4:	8fbf0014 	lw	ra,20(sp)
804021a8:	34420001 	ori	v0,v0,0x1
804021ac:	ae02001c 	sw	v0,28(s0)
804021b0:	8e020014 	lw	v0,20(s0)
804021b4:	8fb00010 	lw	s0,16(sp)
804021b8:	27bd0018 	addiu	sp,sp,24
804021bc:	03e00008 	jr	ra
804021c0:	3042ffff 	andi	v0,v0,0xffff

804021c4 <mii_write>:
804021c4:	00052dc0 	sll	a1,a1,0x17
804021c8:	00063480 	sll	a2,a2,0x12
804021cc:	00a62825 	or	a1,a1,a2
804021d0:	00a72825 	or	a1,a1,a3
804021d4:	3c025002 	lui	v0,0x5002
804021d8:	27bdffe8 	addiu	sp,sp,-24
804021dc:	00a22825 	or	a1,a1,v0
804021e0:	afb00010 	sw	s0,16(sp)
804021e4:	ac850014 	sw	a1,20(a0)
804021e8:	00808021 	move	s0,a0
804021ec:	afbf0014 	sw	ra,20(sp)
804021f0:	0c103c03 	jal	8040f00c <cfe_usleep>
804021f4:	240403e8 	li	a0,1000
804021f8:	8e02001c 	lw	v0,28(s0)
804021fc:	30420001 	andi	v0,v0,0x1
80402200:	1040fffd 	beqz	v0,804021f8 <mii_write+0x34>
80402204:	00000000 	nop
80402208:	8e02001c 	lw	v0,28(s0)
8040220c:	8fbf0014 	lw	ra,20(sp)
80402210:	34420001 	ori	v0,v0,0x1
80402214:	ae02001c 	sw	v0,28(s0)
80402218:	8fb00010 	lw	s0,16(sp)
8040221c:	03e00008 	jr	ra
80402220:	27bd0018 	addiu	sp,sp,24

80402224 <mii_setup>:
80402224:	27bdffe0 	addiu	sp,sp,-32
80402228:	afb10014 	sw	s1,20(sp)
8040222c:	afb00010 	sw	s0,16(sp)
80402230:	00808821 	move	s1,a0
80402234:	afbf001c 	sw	ra,28(sp)
80402238:	afb20018 	sw	s2,24(sp)
8040223c:	8c840040 	lw	a0,64(a0)
80402240:	92250065 	lbu	a1,101(s1)
80402244:	00003021 	move	a2,zero
80402248:	0c100858 	jal	80402160 <mii_read>
8040224c:	00008021 	move	s0,zero
80402250:	8e240040 	lw	a0,64(s1)
80402254:	92250065 	lbu	a1,101(s1)
80402258:	34471200 	ori	a3,v0,0x1200
8040225c:	0c100871 	jal	804021c4 <mii_write>
80402260:	00003021 	move	a2,zero
80402264:	0c103c03 	jal	8040f00c <cfe_usleep>
80402268:	240403e8 	li	a0,1000
8040226c:	240200fa 	li	v0,250
80402270:	16020004 	bne	s0,v0,80402284 <mii_setup+0x60>
80402274:	2402028a 	li	v0,650
80402278:	0c101fa2 	jal	80407e88 <AlertLed_Off>
8040227c:	00000000 	nop
80402280:	2402028a 	li	v0,650
80402284:	16020003 	bne	s0,v0,80402294 <mii_setup+0x70>
80402288:	00000000 	nop
8040228c:	0c101f96 	jal	80407e58 <AlertLed_On>
80402290:	00000000 	nop
80402294:	8e240040 	lw	a0,64(s1)
80402298:	92250065 	lbu	a1,101(s1)
8040229c:	24060001 	li	a2,1
804022a0:	0c100858 	jal	80402160 <mii_read>
804022a4:	26100001 	addiu	s0,s0,1
804022a8:	00029142 	srl	s2,v0,0x5
804022ac:	32420001 	andi	v0,s2,0x1
804022b0:	14400003 	bnez	v0,804022c0 <mii_setup+0x9c>
804022b4:	2a0303e8 	slti	v1,s0,1000
804022b8:	1460ffea 	bnez	v1,80402264 <mii_setup+0x40>
804022bc:	00000000 	nop
804022c0:	8e240040 	lw	a0,64(s1)
804022c4:	92250065 	lbu	a1,101(s1)
804022c8:	0c100858 	jal	80402160 <mii_read>
804022cc:	24060005 	li	a2,5
804022d0:	00402021 	move	a0,v0
804022d4:	00021202 	srl	v0,v0,0x8
804022d8:	30420001 	andi	v0,v0,0x1
804022dc:	14400007 	bnez	v0,804022fc <mii_setup+0xd8>
804022e0:	24030003 	li	v1,3
804022e4:	000411c2 	srl	v0,a0,0x7
804022e8:	30420001 	andi	v0,v0,0x1
804022ec:	14400003 	bnez	v0,804022fc <mii_setup+0xd8>
804022f0:	24030001 	li	v1,1
804022f4:	00041142 	srl	v0,a0,0x5
804022f8:	30430002 	andi	v1,v0,0x2
804022fc:	32420001 	andi	v0,s2,0x1
80402300:	00021080 	sll	v0,v0,0x2
80402304:	14400004 	bnez	v0,80402318 <mii_setup+0xf4>
80402308:	00438025 	or	s0,v0,v1
8040230c:	3c048042 	lui	a0,0x8042
80402310:	0c10331a 	jal	8040cc68 <xprintf>
80402314:	2484a064 	addiu	a0,a0,-24476
80402318:	32030003 	andi	v1,s0,0x3
8040231c:	24020003 	li	v0,3
80402320:	14620004 	bne	v1,v0,80402334 <mii_setup+0x110>
80402324:	32020001 	andi	v0,s0,0x1
80402328:	3c048042 	lui	a0,0x8042
8040232c:	081008d9 	j	80402364 <mii_setup+0x140>
80402330:	2484a080 	addiu	a0,a0,-24448
80402334:	10400004 	beqz	v0,80402348 <mii_setup+0x124>
80402338:	00101042 	srl	v0,s0,0x1
8040233c:	3c048042 	lui	a0,0x8042
80402340:	081008d9 	j	80402364 <mii_setup+0x140>
80402344:	2484a0a0 	addiu	a0,a0,-24416
80402348:	30420001 	andi	v0,v0,0x1
8040234c:	10400003 	beqz	v0,8040235c <mii_setup+0x138>
80402350:	3c048042 	lui	a0,0x8042
80402354:	081008d9 	j	80402364 <mii_setup+0x140>
80402358:	2484a0c0 	addiu	a0,a0,-24384
8040235c:	3c048042 	lui	a0,0x8042
80402360:	2484a0e0 	addiu	a0,a0,-24352
80402364:	0c10331a 	jal	8040cc68 <xprintf>
80402368:	00000000 	nop
8040236c:	00101042 	srl	v0,s0,0x1
80402370:	30420001 	andi	v0,v0,0x1
80402374:	10400005 	beqz	v0,8040238c <mii_setup+0x168>
80402378:	8fbf001c 	lw	ra,28(sp)
8040237c:	8e230040 	lw	v1,64(s1)
80402380:	24020001 	li	v0,1
80402384:	ac620030 	sw	v0,48(v1)
80402388:	8fbf001c 	lw	ra,28(sp)
8040238c:	8fb20018 	lw	s2,24(sp)
80402390:	8fb10014 	lw	s1,20(sp)
80402394:	8fb00010 	lw	s0,16(sp)
80402398:	03e00008 	jr	ra
8040239c:	27bd0020 	addiu	sp,sp,32

804023a0 <mii_soft_reset>:
804023a0:	27bdffe0 	addiu	sp,sp,-32
804023a4:	00003021 	move	a2,zero
804023a8:	34078000 	li	a3,0x8000
804023ac:	afb10014 	sw	s1,20(sp)
804023b0:	afb00010 	sw	s0,16(sp)
804023b4:	00808821 	move	s1,a0
804023b8:	afbf0018 	sw	ra,24(sp)
804023bc:	0c100871 	jal	804021c4 <mii_write>
804023c0:	00a08021 	move	s0,a1
804023c4:	0c103c03 	jal	8040f00c <cfe_usleep>
804023c8:	2404000a 	li	a0,10
804023cc:	02202021 	move	a0,s1
804023d0:	02002821 	move	a1,s0
804023d4:	0c100858 	jal	80402160 <mii_read>
804023d8:	00003021 	move	a2,zero
804023dc:	000213c2 	srl	v0,v0,0xf
804023e0:	30420001 	andi	v0,v0,0x1
804023e4:	1440fffa 	bnez	v0,804023d0 <mii_soft_reset+0x30>
804023e8:	02202021 	move	a0,s1
804023ec:	8fbf0018 	lw	ra,24(sp)
804023f0:	8fb10014 	lw	s1,20(sp)
804023f4:	8fb00010 	lw	s0,16(sp)
804023f8:	03e00008 	jr	ra
804023fc:	27bd0020 	addiu	sp,sp,32

80402400 <spi_read>:
80402400:	3c03fffe 	lui	v1,0xfffe
80402404:	2402ff80 	li	v0,-128
80402408:	34630c00 	ori	v1,v1,0xc00
8040240c:	00c21025 	or	v0,a2,v0
80402410:	a0620040 	sb	v0,64(v1)
80402414:	00804821 	move	t1,a0
80402418:	00604021 	move	t0,v1
8040241c:	00003821 	move	a3,zero
80402420:	00a71021 	addu	v0,a1,a3
80402424:	90440000 	lbu	a0,0(v0)
80402428:	00e81821 	addu	v1,a3,t0
8040242c:	24e70001 	addiu	a3,a3,1
80402430:	28e20002 	slti	v0,a3,2
80402434:	a0640041 	sb	a0,65(v1)
80402438:	1440fffa 	bnez	v0,80402424 <spi_read+0x24>
8040243c:	00a71021 	addu	v0,a1,a3
80402440:	00091100 	sll	v0,t1,0x4
80402444:	34420203 	ori	v0,v0,0x203
80402448:	a5020000 	sh	v0,0(t0)
8040244c:	3c02fffe 	lui	v0,0xfffe
80402450:	34430c00 	ori	v1,v0,0xc00
80402454:	90620002 	lbu	v0,2(v1)
80402458:	30420001 	andi	v0,v0,0x1
8040245c:	1040fffd 	beqz	v0,80402454 <spi_read+0x54>
80402460:	2402001f 	li	v0,31
80402464:	a0620002 	sb	v0,2(v1)
80402468:	18c0000a 	blez	a2,80402494 <spi_read+0x94>
8040246c:	00003821 	move	a3,zero
80402470:	3c02fffe 	lui	v0,0xfffe
80402474:	34480c00 	ori	t0,v0,0xc00
80402478:	00e81021 	addu	v0,a3,t0
8040247c:	90440080 	lbu	a0,128(v0)
80402480:	00a71821 	addu	v1,a1,a3
80402484:	24e70001 	addiu	a3,a3,1
80402488:	00e6102a 	slt	v0,a3,a2
8040248c:	1440fffa 	bnez	v0,80402478 <spi_read+0x78>
80402490:	a0640000 	sb	a0,0(v1)
80402494:	03e00008 	jr	ra
80402498:	00001021 	move	v0,zero

8040249c <spi_write>:
8040249c:	28c20002 	slti	v0,a2,2
804024a0:	00804821 	move	t1,a0
804024a4:	1440001c 	bnez	v0,80402518 <spi_write+0x7c>
804024a8:	2403ffff 	li	v1,-1
804024ac:	3c02fffe 	lui	v0,0xfffe
804024b0:	34430c00 	ori	v1,v0,0xc00
804024b4:	34c20040 	ori	v0,a2,0x40
804024b8:	a0620040 	sb	v0,64(v1)
804024bc:	18c0000a 	blez	a2,804024e8 <spi_write+0x4c>
804024c0:	00003821 	move	a3,zero
804024c4:	00604021 	move	t0,v1
804024c8:	00a71021 	addu	v0,a1,a3
804024cc:	90440000 	lbu	a0,0(v0)
804024d0:	00e81821 	addu	v1,a3,t0
804024d4:	24e70001 	addiu	a3,a3,1
804024d8:	00e6102a 	slt	v0,a3,a2
804024dc:	a0640041 	sb	a0,65(v1)
804024e0:	1440fffa 	bnez	v0,804024cc <spi_write+0x30>
804024e4:	00a71021 	addu	v0,a1,a3
804024e8:	00091900 	sll	v1,t1,0x4
804024ec:	3c02fffe 	lui	v0,0xfffe
804024f0:	34420c00 	ori	v0,v0,0xc00
804024f4:	34630003 	ori	v1,v1,0x3
804024f8:	a4430000 	sh	v1,0(v0)
804024fc:	00401821 	move	v1,v0
80402500:	90620002 	lbu	v0,2(v1)
80402504:	30420001 	andi	v0,v0,0x1
80402508:	1040fffd 	beqz	v0,80402500 <spi_write+0x64>
8040250c:	2402001f 	li	v0,31
80402510:	a0620002 	sb	v0,2(v1)
80402514:	00001821 	move	v1,zero
80402518:	03e00008 	jr	ra
8040251c:	00601021 	move	v0,v1

80402520 <ethsw_spi_ss_id>:
80402520:	94830072 	lhu	v1,114(a0)
80402524:	24020004 	li	v0,4
80402528:	24040001 	li	a0,1
8040252c:	1062000d 	beq	v1,v0,80402564 <ethsw_spi_ss_id+0x44>
80402530:	28650005 	slti	a1,v1,5
80402534:	10a00003 	beqz	a1,80402544 <ethsw_spi_ss_id+0x24>
80402538:	00002021 	move	a0,zero
8040253c:	08100956 	j	80402558 <ethsw_spi_ss_id+0x38>
80402540:	24020003 	li	v0,3
80402544:	24020005 	li	v0,5
80402548:	10620006 	beq	v1,v0,80402564 <ethsw_spi_ss_id+0x44>
8040254c:	24040002 	li	a0,2
80402550:	24040003 	li	a0,3
80402554:	24020006 	li	v0,6
80402558:	10620002 	beq	v1,v0,80402564 <ethsw_spi_ss_id+0x44>
8040255c:	00000000 	nop
80402560:	24040001 	li	a0,1
80402564:	03e00008 	jr	ra
80402568:	00801021 	move	v0,a0

8040256c <ethsw_spi_select>:
8040256c:	27bdffd8 	addiu	sp,sp,-40
80402570:	afb20020 	sw	s2,32(sp)
80402574:	afb00018 	sw	s0,24(sp)
80402578:	afbf0024 	sw	ra,36(sp)
8040257c:	afb1001c 	sw	s1,28(sp)
80402580:	24900044 	addiu	s0,a0,68
80402584:	90910065 	lbu	s1,101(a0)
80402588:	8e020018 	lw	v0,24(s0)
8040258c:	14510004 	bne	v0,s1,804025a0 <ethsw_spi_select+0x34>
80402590:	00a09021 	move	s2,a1
80402594:	8e02001c 	lw	v0,28(s0)
80402598:	10450011 	beq	v0,a1,804025e0 <ethsw_spi_select+0x74>
8040259c:	8fbf0024 	lw	ra,36(sp)
804025a0:	0c100948 	jal	80402520 <ethsw_spi_ss_id>
804025a4:	00000000 	nop
804025a8:	32230007 	andi	v1,s1,0x7
804025ac:	00031840 	sll	v1,v1,0x1
804025b0:	ae12001c 	sw	s2,28(s0)
804025b4:	ae110018 	sw	s1,24(s0)
804025b8:	34630061 	ori	v1,v1,0x61
804025bc:	00402021 	move	a0,v0
804025c0:	27a50010 	addiu	a1,sp,16
804025c4:	2402ffff 	li	v0,-1
804025c8:	24060003 	li	a2,3
804025cc:	a3a30010 	sb	v1,16(sp)
804025d0:	a3a20011 	sb	v0,17(sp)
804025d4:	0c100927 	jal	8040249c <spi_write>
804025d8:	a3b20012 	sb	s2,18(sp)
804025dc:	8fbf0024 	lw	ra,36(sp)
804025e0:	8fb20020 	lw	s2,32(sp)
804025e4:	8fb1001c 	lw	s1,28(sp)
804025e8:	8fb00018 	lw	s0,24(sp)
804025ec:	03e00008 	jr	ra
804025f0:	27bd0028 	addiu	sp,sp,40

804025f4 <ethsw_rreg>:
804025f4:	27bdff98 	addiu	sp,sp,-104
804025f8:	afb40060 	sw	s4,96(sp)
804025fc:	afb3005c 	sw	s3,92(sp)
80402600:	afb10054 	sw	s1,84(sp)
80402604:	afb00050 	sw	s0,80(sp)
80402608:	afbf0064 	sw	ra,100(sp)
8040260c:	afb20058 	sw	s2,88(sp)
80402610:	94830072 	lhu	v1,114(a0)
80402614:	24020002 	li	v0,2
80402618:	00808821 	move	s1,a0
8040261c:	00c08021 	move	s0,a2
80402620:	00e0a021 	move	s4,a3
80402624:	10620009 	beq	v1,v0,8040264c <ethsw_rreg+0x58>
80402628:	8fb30078 	lw	s3,120(sp)
8040262c:	28620002 	slti	v0,v1,2
80402630:	1440007e 	bnez	v0,8040282c <ethsw_rreg+0x238>
80402634:	8fbf0064 	lw	ra,100(sp)
80402638:	28620007 	slti	v0,v1,7
8040263c:	1040007b 	beqz	v0,8040282c <ethsw_rreg+0x238>
80402640:	00000000 	nop
80402644:	081009cd 	j	80402734 <ethsw_rreg+0x140>
80402648:	00000000 	nop
8040264c:	8c910040 	lw	s1,64(a0)
80402650:	00053a00 	sll	a3,a1,0x8
80402654:	34e70001 	ori	a3,a3,0x1
80402658:	02202021 	move	a0,s1
8040265c:	2405001e 	li	a1,30
80402660:	0c100871 	jal	804021c4 <mii_write>
80402664:	24060010 	li	a2,16
80402668:	00103a00 	sll	a3,s0,0x8
8040266c:	34e70002 	ori	a3,a3,0x2
80402670:	02202021 	move	a0,s1
80402674:	2405001e 	li	a1,30
80402678:	24060011 	li	a2,17
8040267c:	0c100871 	jal	804021c4 <mii_write>
80402680:	00009021 	move	s2,zero
80402684:	02202021 	move	a0,s1
80402688:	2405001e 	li	a1,30
8040268c:	0c100858 	jal	80402160 <mii_read>
80402690:	24060011 	li	a2,17
80402694:	00408021 	move	s0,v0
80402698:	2404000a 	li	a0,10
8040269c:	0c103c03 	jal	8040f00c <cfe_usleep>
804026a0:	32100003 	andi	s0,s0,0x3
804026a4:	2a420005 	slti	v0,s2,5
804026a8:	12000003 	beqz	s0,804026b8 <ethsw_rreg+0xc4>
804026ac:	26520001 	addiu	s2,s2,1
804026b0:	1440fff5 	bnez	v0,80402688 <ethsw_rreg+0x94>
804026b4:	02202021 	move	a0,s1
804026b8:	02202021 	move	a0,s1
804026bc:	2405001e 	li	a1,30
804026c0:	0c100858 	jal	80402160 <mii_read>
804026c4:	24060018 	li	a2,24
804026c8:	02202021 	move	a0,s1
804026cc:	2405001e 	li	a1,30
804026d0:	24060019 	li	a2,25
804026d4:	0c100858 	jal	80402160 <mii_read>
804026d8:	00408021 	move	s0,v0
804026dc:	00021400 	sll	v0,v0,0x10
804026e0:	02028025 	or	s0,s0,v0
804026e4:	24020002 	li	v0,2
804026e8:	1262000e 	beq	s3,v0,80402724 <ethsw_rreg+0x130>
804026ec:	2a620003 	slti	v0,s3,3
804026f0:	10400006 	beqz	v0,8040270c <ethsw_rreg+0x118>
804026f4:	24020004 	li	v0,4
804026f8:	24020001 	li	v0,1
804026fc:	12620007 	beq	s3,v0,8040271c <ethsw_rreg+0x128>
80402700:	8fbf0064 	lw	ra,100(sp)
80402704:	08100a0c 	j	80402830 <ethsw_rreg+0x23c>
80402708:	8fb40060 	lw	s4,96(sp)
8040270c:	12620007 	beq	s3,v0,8040272c <ethsw_rreg+0x138>
80402710:	8fbf0064 	lw	ra,100(sp)
80402714:	08100a0c 	j	80402830 <ethsw_rreg+0x23c>
80402718:	8fb40060 	lw	s4,96(sp)
8040271c:	08100a0a 	j	80402828 <ethsw_rreg+0x234>
80402720:	a2900000 	sb	s0,0(s4)
80402724:	08100a0a 	j	80402828 <ethsw_rreg+0x234>
80402728:	a6900000 	sh	s0,0(s4)
8040272c:	08100a0a 	j	80402828 <ethsw_rreg+0x234>
80402730:	ae900000 	sw	s0,0(s4)
80402734:	0c10095b 	jal	8040256c <ethsw_spi_select>
80402738:	00000000 	nop
8040273c:	0c100948 	jal	80402520 <ethsw_spi_ss_id>
80402740:	02202021 	move	a0,s1
80402744:	00409021 	move	s2,v0
80402748:	8e22005c 	lw	v0,92(s1)
8040274c:	02402021 	move	a0,s2
80402750:	27a50010 	addiu	a1,sp,16
80402754:	30420007 	andi	v0,v0,0x7
80402758:	00021040 	sll	v0,v0,0x1
8040275c:	34420060 	ori	v0,v0,0x60
80402760:	24060001 	li	a2,1
80402764:	a3a20010 	sb	v0,16(sp)
80402768:	0c100900 	jal	80402400 <spi_read>
8040276c:	a3b00011 	sb	s0,17(sp)
80402770:	1440002e 	bnez	v0,8040282c <ethsw_rreg+0x238>
80402774:	8fbf0064 	lw	ra,100(sp)
80402778:	00008021 	move	s0,zero
8040277c:	8e22005c 	lw	v0,92(s1)
80402780:	02402021 	move	a0,s2
80402784:	27a50010 	addiu	a1,sp,16
80402788:	30420007 	andi	v0,v0,0x7
8040278c:	00021040 	sll	v0,v0,0x1
80402790:	34420060 	ori	v0,v0,0x60
80402794:	a3a20010 	sb	v0,16(sp)
80402798:	24060001 	li	a2,1
8040279c:	2402fffe 	li	v0,-2
804027a0:	0c100900 	jal	80402400 <spi_read>
804027a4:	a3a20011 	sb	v0,17(sp)
804027a8:	1440001f 	bnez	v0,80402828 <ethsw_rreg+0x234>
804027ac:	240403e8 	li	a0,1000
804027b0:	93a20010 	lbu	v0,16(sp)
804027b4:	00021142 	srl	v0,v0,0x5
804027b8:	30420001 	andi	v0,v0,0x1
804027bc:	14400006 	bnez	v0,804027d8 <ethsw_rreg+0x1e4>
804027c0:	00000000 	nop
804027c4:	0c103c03 	jal	8040f00c <cfe_usleep>
804027c8:	00000000 	nop
804027cc:	2a02000a 	slti	v0,s0,10
804027d0:	1440ffea 	bnez	v0,8040277c <ethsw_rreg+0x188>
804027d4:	26100001 	addiu	s0,s0,1
804027d8:	2670ffff 	addiu	s0,s3,-1
804027dc:	06000012 	bltz	s0,80402828 <ethsw_rreg+0x234>
804027e0:	02402021 	move	a0,s2
804027e4:	8e22005c 	lw	v0,92(s1)
804027e8:	27a50010 	addiu	a1,sp,16
804027ec:	30420007 	andi	v0,v0,0x7
804027f0:	00021040 	sll	v0,v0,0x1
804027f4:	34420060 	ori	v0,v0,0x60
804027f8:	a3a20010 	sb	v0,16(sp)
804027fc:	24060001 	li	a2,1
80402800:	2402fff0 	li	v0,-16
80402804:	0c100900 	jal	80402400 <spi_read>
80402808:	a3a20011 	sb	v0,17(sp)
8040280c:	02931821 	addu	v1,s4,s3
80402810:	00701823 	subu	v1,v1,s0
80402814:	1440fff1 	bnez	v0,804027dc <ethsw_rreg+0x1e8>
80402818:	2610ffff 	addiu	s0,s0,-1
8040281c:	93a20010 	lbu	v0,16(sp)
80402820:	081009f7 	j	804027dc <ethsw_rreg+0x1e8>
80402824:	a062ffff 	sb	v0,-1(v1)
80402828:	8fbf0064 	lw	ra,100(sp)
8040282c:	8fb40060 	lw	s4,96(sp)
80402830:	8fb3005c 	lw	s3,92(sp)
80402834:	8fb20058 	lw	s2,88(sp)
80402838:	8fb10054 	lw	s1,84(sp)
8040283c:	8fb00050 	lw	s0,80(sp)
80402840:	03e00008 	jr	ra
80402844:	27bd0068 	addiu	sp,sp,104

80402848 <ethsw_wreg>:
80402848:	27bdff90 	addiu	sp,sp,-112
8040284c:	afb50064 	sw	s5,100(sp)
80402850:	afb3005c 	sw	s3,92(sp)
80402854:	afb10054 	sw	s1,84(sp)
80402858:	afb00050 	sw	s0,80(sp)
8040285c:	afbf0068 	sw	ra,104(sp)
80402860:	afb40060 	sw	s4,96(sp)
80402864:	afb20058 	sw	s2,88(sp)
80402868:	94830072 	lhu	v1,114(a0)
8040286c:	24020002 	li	v0,2
80402870:	00808821 	move	s1,a0
80402874:	00c0a821 	move	s5,a2
80402878:	00e09821 	move	s3,a3
8040287c:	10620009 	beq	v1,v0,804028a4 <ethsw_wreg+0x5c>
80402880:	8fb00080 	lw	s0,128(sp)
80402884:	28620002 	slti	v0,v1,2
80402888:	14400066 	bnez	v0,80402a24 <ethsw_wreg+0x1dc>
8040288c:	8fbf0068 	lw	ra,104(sp)
80402890:	28620007 	slti	v0,v1,7
80402894:	10400063 	beqz	v0,80402a24 <ethsw_wreg+0x1dc>
80402898:	00000000 	nop
8040289c:	08100a6d 	j	804029b4 <ethsw_wreg+0x16c>
804028a0:	00000000 	nop
804028a4:	8c910040 	lw	s1,64(a0)
804028a8:	00009021 	move	s2,zero
804028ac:	1203000f 	beq	s0,v1,804028ec <ethsw_wreg+0xa4>
804028b0:	0000a021 	move	s4,zero
804028b4:	2a020003 	slti	v0,s0,3
804028b8:	10400006 	beqz	v0,804028d4 <ethsw_wreg+0x8c>
804028bc:	24020004 	li	v0,4
804028c0:	24020001 	li	v0,1
804028c4:	12020007 	beq	s0,v0,804028e4 <ethsw_wreg+0x9c>
804028c8:	00000000 	nop
804028cc:	08100a3f 	j	804028fc <ethsw_wreg+0xb4>
804028d0:	00053a00 	sll	a3,a1,0x8
804028d4:	12020007 	beq	s0,v0,804028f4 <ethsw_wreg+0xac>
804028d8:	00000000 	nop
804028dc:	08100a3f 	j	804028fc <ethsw_wreg+0xb4>
804028e0:	00053a00 	sll	a3,a1,0x8
804028e4:	08100a3e 	j	804028f8 <ethsw_wreg+0xb0>
804028e8:	90f20000 	lbu	s2,0(a3)
804028ec:	08100a3e 	j	804028f8 <ethsw_wreg+0xb0>
804028f0:	94f20000 	lhu	s2,0(a3)
804028f4:	8cf20000 	lw	s2,0(a3)
804028f8:	00053a00 	sll	a3,a1,0x8
804028fc:	34e70001 	ori	a3,a3,0x1
80402900:	02202021 	move	a0,s1
80402904:	2405001e 	li	a1,30
80402908:	0c100871 	jal	804021c4 <mii_write>
8040290c:	24060010 	li	a2,16
80402910:	02202021 	move	a0,s1
80402914:	2405001e 	li	a1,30
80402918:	24060018 	li	a2,24
8040291c:	0c100871 	jal	804021c4 <mii_write>
80402920:	3247ffff 	andi	a3,s2,0xffff
80402924:	02202021 	move	a0,s1
80402928:	00123c02 	srl	a3,s2,0x10
8040292c:	2405001e 	li	a1,30
80402930:	0c100871 	jal	804021c4 <mii_write>
80402934:	24060019 	li	a2,25
80402938:	02202021 	move	a0,s1
8040293c:	2405001e 	li	a1,30
80402940:	24060020 	li	a2,32
80402944:	0c100871 	jal	804021c4 <mii_write>
80402948:	00003821 	move	a3,zero
8040294c:	02202021 	move	a0,s1
80402950:	2405001e 	li	a1,30
80402954:	24060021 	li	a2,33
80402958:	0c100871 	jal	804021c4 <mii_write>
8040295c:	00003821 	move	a3,zero
80402960:	00153a00 	sll	a3,s5,0x8
80402964:	34e70001 	ori	a3,a3,0x1
80402968:	02202021 	move	a0,s1
8040296c:	2405001e 	li	a1,30
80402970:	0c100871 	jal	804021c4 <mii_write>
80402974:	24060011 	li	a2,17
80402978:	02202021 	move	a0,s1
8040297c:	2405001e 	li	a1,30
80402980:	0c100858 	jal	80402160 <mii_read>
80402984:	24060011 	li	a2,17
80402988:	00408021 	move	s0,v0
8040298c:	2404000a 	li	a0,10
80402990:	0c103c03 	jal	8040f00c <cfe_usleep>
80402994:	32100003 	andi	s0,s0,0x3
80402998:	2a820005 	slti	v0,s4,5
8040299c:	12000020 	beqz	s0,80402a20 <ethsw_wreg+0x1d8>
804029a0:	26940001 	addiu	s4,s4,1
804029a4:	1440fff5 	bnez	v0,8040297c <ethsw_wreg+0x134>
804029a8:	02202021 	move	a0,s1
804029ac:	08100a89 	j	80402a24 <ethsw_wreg+0x1dc>
804029b0:	8fbf0068 	lw	ra,104(sp)
804029b4:	0c10095b 	jal	8040256c <ethsw_spi_select>
804029b8:	00000000 	nop
804029bc:	0c100948 	jal	80402520 <ethsw_spi_ss_id>
804029c0:	02202021 	move	a0,s1
804029c4:	00404021 	move	t0,v0
804029c8:	8e22005c 	lw	v0,92(s1)
804029cc:	00002821 	move	a1,zero
804029d0:	a3b50011 	sb	s5,17(sp)
804029d4:	30420007 	andi	v0,v0,0x7
804029d8:	00021040 	sll	v0,v0,0x1
804029dc:	34420061 	ori	v0,v0,0x61
804029e0:	1a00000b 	blez	s0,80402a10 <ethsw_wreg+0x1c8>
804029e4:	a3a20010 	sb	v0,16(sp)
804029e8:	02131021 	addu	v0,s0,s3
804029ec:	2447ffff 	addiu	a3,v0,-1
804029f0:	27a60010 	addiu	a2,sp,16
804029f4:	90e20000 	lbu	v0,0(a3)
804029f8:	00a61821 	addu	v1,a1,a2
804029fc:	24a50001 	addiu	a1,a1,1
80402a00:	00b0202a 	slt	a0,a1,s0
80402a04:	a0620002 	sb	v0,2(v1)
80402a08:	1480fffa 	bnez	a0,804029f4 <ethsw_wreg+0x1ac>
80402a0c:	24e7ffff 	addiu	a3,a3,-1
80402a10:	01002021 	move	a0,t0
80402a14:	26060002 	addiu	a2,s0,2
80402a18:	0c100927 	jal	8040249c <spi_write>
80402a1c:	27a50010 	addiu	a1,sp,16
80402a20:	8fbf0068 	lw	ra,104(sp)
80402a24:	8fb50064 	lw	s5,100(sp)
80402a28:	8fb40060 	lw	s4,96(sp)
80402a2c:	8fb3005c 	lw	s3,92(sp)
80402a30:	8fb20058 	lw	s2,88(sp)
80402a34:	8fb10054 	lw	s1,84(sp)
80402a38:	8fb00050 	lw	s0,80(sp)
80402a3c:	03e00008 	jr	ra
80402a40:	27bd0070 	addiu	sp,sp,112

80402a44 <mii_init>:
80402a44:	27bdffc8 	addiu	sp,sp,-56
80402a48:	afb20028 	sw	s2,40(sp)
80402a4c:	afbf0030 	sw	ra,48(sp)
80402a50:	afb3002c 	sw	s3,44(sp)
80402a54:	afb10024 	sw	s1,36(sp)
80402a58:	afb00020 	sw	s0,32(sp)
80402a5c:	90830064 	lbu	v1,100(a0)
80402a60:	00809021 	move	s2,a0
80402a64:	24040002 	li	a0,2
80402a68:	10640013 	beq	v1,a0,80402ab8 <mii_init+0x74>
80402a6c:	8e500040 	lw	s0,64(s2)
80402a70:	28620003 	slti	v0,v1,3
80402a74:	10400006 	beqz	v0,80402a90 <mii_init+0x4c>
80402a78:	24020003 	li	v0,3
80402a7c:	24020001 	li	v0,1
80402a80:	10620007 	beq	v1,v0,80402aa0 <mii_init+0x5c>
80402a84:	2402009f 	li	v0,159
80402a88:	08100b87 	j	80402e1c <mii_init+0x3d8>
80402a8c:	3c048042 	lui	a0,0x8042
80402a90:	1062004c 	beq	v1,v0,80402bc4 <mii_init+0x180>
80402a94:	00000000 	nop
80402a98:	08100b87 	j	80402e1c <mii_init+0x3d8>
80402a9c:	3c048042 	lui	a0,0x8042
80402aa0:	ae020010 	sw	v0,16(s0)
80402aa4:	92450065 	lbu	a1,101(s2)
80402aa8:	0c1008e8 	jal	804023a0 <mii_soft_reset>
80402aac:	02002021 	move	a0,s0
80402ab0:	08100aed 	j	80402bb4 <mii_init+0x170>
80402ab4:	00000000 	nop
80402ab8:	8e02002c 	lw	v0,44(s0)
80402abc:	9644006e 	lhu	a0,110(s2)
80402ac0:	34420008 	ori	v0,v0,0x8
80402ac4:	ae02002c 	sw	v0,44(s0)
80402ac8:	2402009f 	li	v0,159
80402acc:	ae020010 	sw	v0,16(s0)
80402ad0:	3083ffff 	andi	v1,a0,0xffff
80402ad4:	3402ffff 	li	v0,0xffff
80402ad8:	1062002a 	beq	v1,v0,80402b84 <mii_init+0x140>
80402adc:	00000000 	nop
80402ae0:	3062003f 	andi	v0,v1,0x3f
80402ae4:	28420020 	slti	v0,v0,32
80402ae8:	10400005 	beqz	v0,80402b00 <mii_init+0xbc>
80402aec:	00008821 	move	s1,zero
80402af0:	3063001f 	andi	v1,v1,0x1f
80402af4:	24020001 	li	v0,1
80402af8:	00621004 	sllv	v0,v0,v1
80402afc:	3051ffff 	andi	s1,v0,0xffff
80402b00:	3c02fffe 	lui	v0,0xfffe
80402b04:	34500400 	ori	s0,v0,0x400
80402b08:	8e020004 	lw	v0,4(s0)
80402b0c:	00041c00 	sll	v1,a0,0x10
80402b10:	00031c03 	sra	v1,v1,0x10
80402b14:	00511025 	or	v0,v0,s1
80402b18:	00119827 	nor	s3,zero,s1
80402b1c:	ae020004 	sw	v0,4(s0)
80402b20:	0461000a 	bgez	v1,80402b4c <mii_init+0x108>
80402b24:	00000000 	nop
80402b28:	8e02000c 	lw	v0,12(s0)
80402b2c:	24040190 	li	a0,400
80402b30:	00531024 	and	v0,v0,s3
80402b34:	ae02000c 	sw	v0,12(s0)
80402b38:	0c103c03 	jal	8040f00c <cfe_usleep>
80402b3c:	00000000 	nop
80402b40:	8e02000c 	lw	v0,12(s0)
80402b44:	08100adb 	j	80402b6c <mii_init+0x128>
80402b48:	00511025 	or	v0,v0,s1
80402b4c:	8e02000c 	lw	v0,12(s0)
80402b50:	24040190 	li	a0,400
80402b54:	00511025 	or	v0,v0,s1
80402b58:	ae02000c 	sw	v0,12(s0)
80402b5c:	0c103c03 	jal	8040f00c <cfe_usleep>
80402b60:	00000000 	nop
80402b64:	8e02000c 	lw	v0,12(s0)
80402b68:	00531024 	and	v0,v0,s3
80402b6c:	3c040010 	lui	a0,0x10
80402b70:	ae02000c 	sw	v0,12(s0)
80402b74:	0c103c03 	jal	8040f00c <cfe_usleep>
80402b78:	3484c8e0 	ori	a0,a0,0xc8e0
80402b7c:	08100ae5 	j	80402b94 <mii_init+0x150>
80402b80:	8e440040 	lw	a0,64(s2)
80402b84:	92450065 	lbu	a1,101(s2)
80402b88:	0c1008e8 	jal	804023a0 <mii_soft_reset>
80402b8c:	02002021 	move	a0,s0
80402b90:	8e440040 	lw	a0,64(s2)
80402b94:	92450065 	lbu	a1,101(s2)
80402b98:	0c100858 	jal	80402160 <mii_read>
80402b9c:	24060004 	li	a2,4
80402ba0:	8e440040 	lw	a0,64(s2)
80402ba4:	92450065 	lbu	a1,101(s2)
80402ba8:	34470400 	ori	a3,v0,0x400
80402bac:	0c100871 	jal	804021c4 <mii_write>
80402bb0:	24060004 	li	a2,4
80402bb4:	0c100889 	jal	80402224 <mii_setup>
80402bb8:	02402021 	move	a0,s2
80402bbc:	08100b8a 	j	80402e28 <mii_init+0x3e4>
80402bc0:	00001021 	move	v0,zero
80402bc4:	8e02002c 	lw	v0,44(s0)
80402bc8:	96430072 	lhu	v1,114(s2)
80402bcc:	34420008 	ori	v0,v0,0x8
80402bd0:	ae02002c 	sw	v0,44(s0)
80402bd4:	2402009f 	li	v0,159
80402bd8:	ae020010 	sw	v0,16(s0)
80402bdc:	24020001 	li	v0,1
80402be0:	ae020030 	sw	v0,48(s0)
80402be4:	1064000c 	beq	v1,a0,80402c18 <mii_init+0x1d4>
80402be8:	00000000 	nop
80402bec:	28620003 	slti	v0,v1,3
80402bf0:	10400005 	beqz	v0,80402c08 <mii_init+0x1c4>
80402bf4:	28620007 	slti	v0,v1,7
80402bf8:	10600019 	beqz	v1,80402c60 <mii_init+0x21c>
80402bfc:	3c048042 	lui	a0,0x8042
80402c00:	08100b26 	j	80402c98 <mii_init+0x254>
80402c04:	00000000 	nop
80402c08:	10400022 	beqz	v0,80402c94 <mii_init+0x250>
80402c0c:	00000000 	nop
80402c10:	08100b0b 	j	80402c2c <mii_init+0x1e8>
80402c14:	3c04fffe 	lui	a0,0xfffe
80402c18:	02002021 	move	a0,s0
80402c1c:	0c1008e8 	jal	804023a0 <mii_soft_reset>
80402c20:	2405001e 	li	a1,30
80402c24:	08100b29 	j	80402ca4 <mii_init+0x260>
80402c28:	96420070 	lhu	v0,112(s2)
80402c2c:	94820006 	lhu	v0,6(a0)
80402c30:	3043ffff 	andi	v1,v0,0xffff
80402c34:	00031242 	srl	v0,v1,0x9
80402c38:	38420001 	xori	v0,v0,0x1
80402c3c:	30420001 	andi	v0,v0,0x1
80402c40:	10400004 	beqz	v0,80402c54 <mii_init+0x210>
80402c44:	240200ff 	li	v0,255
80402c48:	34630200 	ori	v1,v1,0x200
80402c4c:	a4830006 	sh	v1,6(a0)
80402c50:	240200ff 	li	v0,255
80402c54:	ae420060 	sw	v0,96(s2)
80402c58:	08100b28 	j	80402ca0 <mii_init+0x25c>
80402c5c:	ae42005c 	sw	v0,92(s2)
80402c60:	96420070 	lhu	v0,112(s2)
80402c64:	1040006f 	beqz	v0,80402e24 <mii_init+0x3e0>
80402c68:	00008821 	move	s1,zero
80402c6c:	1040006d 	beqz	v0,80402e24 <mii_init+0x3e0>
80402c70:	00000000 	nop
80402c74:	92450065 	lbu	a1,101(s2)
80402c78:	02002021 	move	a0,s0
80402c7c:	0c1008e8 	jal	804023a0 <mii_soft_reset>
80402c80:	00b12825 	or	a1,a1,s1
80402c84:	96420070 	lhu	v0,112(s2)
80402c88:	26310001 	addiu	s1,s1,1
80402c8c:	08100b1b 	j	80402c6c <mii_init+0x228>
80402c90:	0222102a 	slt	v0,s1,v0
80402c94:	3c048042 	lui	a0,0x8042
80402c98:	0c10331a 	jal	8040cc68 <xprintf>
80402c9c:	2484a114 	addiu	a0,a0,-24300
80402ca0:	96420070 	lhu	v0,112(s2)
80402ca4:	1040002a 	beqz	v0,80402d50 <mii_init+0x30c>
80402ca8:	24100001 	li	s0,1
80402cac:	2443ffff 	addiu	v1,v0,-1
80402cb0:	2c620005 	sltiu	v0,v1,5
80402cb4:	10400018 	beqz	v0,80402d18 <mii_init+0x2d4>
80402cb8:	a3a00018 	sb	zero,24(sp)
80402cbc:	00031080 	sll	v0,v1,0x2
80402cc0:	3c038042 	lui	v1,0x8042
80402cc4:	246395a0 	addiu	v1,v1,-27232
80402cc8:	00431021 	addu	v0,v0,v1
80402ccc:	8c420000 	lw	v0,0(v0)
80402cd0:	00400008 	jr	v0
80402cd4:	00000000 	nop
80402cd8:	93a20018 	lbu	v0,24(sp)
80402cdc:	34420010 	ori	v0,v0,0x10
80402ce0:	a3a20018 	sb	v0,24(sp)
80402ce4:	93a20018 	lbu	v0,24(sp)
80402ce8:	34420008 	ori	v0,v0,0x8
80402cec:	a3a20018 	sb	v0,24(sp)
80402cf0:	93a20018 	lbu	v0,24(sp)
80402cf4:	34420004 	ori	v0,v0,0x4
80402cf8:	a3a20018 	sb	v0,24(sp)
80402cfc:	93a20018 	lbu	v0,24(sp)
80402d00:	34420002 	ori	v0,v0,0x2
80402d04:	a3a20018 	sb	v0,24(sp)
80402d08:	93a20018 	lbu	v0,24(sp)
80402d0c:	34420001 	ori	v0,v0,0x1
80402d10:	a3a20018 	sb	v0,24(sp)
80402d14:	24100001 	li	s0,1
80402d18:	02402021 	move	a0,s2
80402d1c:	00002821 	move	a1,zero
80402d20:	2406000f 	li	a2,15
80402d24:	27a70018 	addiu	a3,sp,24
80402d28:	0c100a12 	jal	80402848 <ethsw_wreg>
80402d2c:	afb00010 	sw	s0,16(sp)
80402d30:	02402021 	move	a0,s2
80402d34:	00002821 	move	a1,zero
80402d38:	2406000f 	li	a2,15
80402d3c:	27a70018 	addiu	a3,sp,24
80402d40:	afb00010 	sw	s0,16(sp)
80402d44:	0c100a12 	jal	80402848 <ethsw_wreg>
80402d48:	a3a00018 	sb	zero,24(sp)
80402d4c:	24100001 	li	s0,1
80402d50:	02402021 	move	a0,s2
80402d54:	00002821 	move	a1,zero
80402d58:	2406000e 	li	a2,14
80402d5c:	27a70018 	addiu	a3,sp,24
80402d60:	0c10097d 	jal	804025f4 <ethsw_rreg>
80402d64:	afb00010 	sw	s0,16(sp)
80402d68:	96420074 	lhu	v0,116(s2)
80402d6c:	14500005 	bne	v0,s0,80402d84 <mii_init+0x340>
80402d70:	93a30018 	lbu	v1,24(sp)
80402d74:	93a20018 	lbu	v0,24(sp)
80402d78:	34420010 	ori	v0,v0,0x10
80402d7c:	a3a20018 	sb	v0,24(sp)
80402d80:	93a30018 	lbu	v1,24(sp)
80402d84:	2402ff8f 	li	v0,-113
80402d88:	02402021 	move	a0,s2
80402d8c:	00621825 	or	v1,v1,v0
80402d90:	00002821 	move	a1,zero
80402d94:	2406000e 	li	a2,14
80402d98:	27a70018 	addiu	a3,sp,24
80402d9c:	a3a30018 	sb	v1,24(sp)
80402da0:	0c100a12 	jal	80402848 <ethsw_wreg>
80402da4:	afb00010 	sw	s0,16(sp)
80402da8:	02402021 	move	a0,s2
80402dac:	00002821 	move	a1,zero
80402db0:	2406000e 	li	a2,14
80402db4:	27a70018 	addiu	a3,sp,24
80402db8:	a3a00018 	sb	zero,24(sp)
80402dbc:	0c10097d 	jal	804025f4 <ethsw_rreg>
80402dc0:	afb00010 	sw	s0,16(sp)
80402dc4:	93a40018 	lbu	a0,24(sp)
80402dc8:	24020081 	li	v0,129
80402dcc:	30830081 	andi	v1,a0,0x81
80402dd0:	10620004 	beq	v1,v0,80402de4 <mii_init+0x3a0>
80402dd4:	00000000 	nop
80402dd8:	3c048042 	lui	a0,0x8042
80402ddc:	08100b83 	j	80402e0c <mii_init+0x3c8>
80402de0:	2484a134 	addiu	a0,a0,-24268
80402de4:	96420074 	lhu	v0,116(s2)
80402de8:	1450000f 	bne	v0,s0,80402e28 <mii_init+0x3e4>
80402dec:	00001021 	move	v0,zero
80402df0:	00041102 	srl	v0,a0,0x4
80402df4:	38420001 	xori	v0,v0,0x1
80402df8:	30420001 	andi	v0,v0,0x1
80402dfc:	10400009 	beqz	v0,80402e24 <mii_init+0x3e0>
80402e00:	00000000 	nop
80402e04:	3c048042 	lui	a0,0x8042
80402e08:	2484a154 	addiu	a0,a0,-24236
80402e0c:	0c10331a 	jal	8040cc68 <xprintf>
80402e10:	00000000 	nop
80402e14:	08100b8a 	j	80402e28 <mii_init+0x3e4>
80402e18:	2402ffff 	li	v0,-1
80402e1c:	0c10331a 	jal	8040cc68 <xprintf>
80402e20:	2484a100 	addiu	a0,a0,-24320
80402e24:	00001021 	move	v0,zero
80402e28:	8fbf0030 	lw	ra,48(sp)
80402e2c:	8fb3002c 	lw	s3,44(sp)
80402e30:	8fb20028 	lw	s2,40(sp)
80402e34:	8fb10024 	lw	s1,36(sp)
80402e38:	8fb00020 	lw	s0,32(sp)
80402e3c:	03e00008 	jr	ra
80402e40:	27bd0038 	addiu	sp,sp,56

80402e44 <bcm63xx_set_baudrate>:
80402e44:	8c830000 	lw	v1,0(a0)
80402e48:	3c02002f 	lui	v0,0x2f
80402e4c:	3442af08 	ori	v0,v0,0xaf08
80402e50:	0043001a 	div	zero,v0,v1
80402e54:	14600002 	bnez	v1,80402e60 <bcm63xx_set_baudrate+0x1c>
80402e58:	00000000 	nop
80402e5c:	000001cd 	break	0x7
80402e60:	00001012 	mflo	v0
80402e64:	00022042 	srl	a0,v0,0x1
80402e68:	2483ffff 	addiu	v1,a0,-1
80402e6c:	30420001 	andi	v0,v0,0x1
80402e70:	0062200a 	movz	a0,v1,v0
80402e74:	3c02fffe 	lui	v0,0xfffe
80402e78:	34420300 	ori	v0,v0,0x300
80402e7c:	ac440004 	sw	a0,4(v0)
80402e80:	03e00008 	jr	ra
80402e84:	00000000 	nop

80402e88 <bcm63xx_uart_probe>:
80402e88:	27bdff90 	addiu	sp,sp,-112
80402e8c:	afb20068 	sw	s2,104(sp)
80402e90:	00809021 	move	s2,a0
80402e94:	3c048042 	lui	a0,0x8042
80402e98:	afb00060 	sw	s0,96(sp)
80402e9c:	24842bec 	addiu	a0,a0,11244
80402ea0:	00c08021 	move	s0,a2
80402ea4:	24050004 	li	a1,4
80402ea8:	afb10064 	sw	s1,100(sp)
80402eac:	afbf006c 	sw	ra,108(sp)
80402eb0:	0c103064 	jal	8040c190 <kmalloc>
80402eb4:	00003021 	move	a2,zero
80402eb8:	3c058042 	lui	a1,0x8042
80402ebc:	00408821 	move	s1,v0
80402ec0:	24a5a198 	addiu	a1,a1,-24168
80402ec4:	02003821 	move	a3,s0
80402ec8:	10400008 	beqz	v0,80402eec <bcm63xx_uart_probe+0x64>
80402ecc:	27a40010 	addiu	a0,sp,16
80402ed0:	0c103311 	jal	8040cc44 <xsprintf>
80402ed4:	8e460000 	lw	a2,0(s2)
80402ed8:	02402021 	move	a0,s2
80402edc:	02202821 	move	a1,s1
80402ee0:	00003021 	move	a2,zero
80402ee4:	0c1036ed 	jal	8040dbb4 <cfe_attach>
80402ee8:	27a70010 	addiu	a3,sp,16
80402eec:	8fbf006c 	lw	ra,108(sp)
80402ef0:	8fb20068 	lw	s2,104(sp)
80402ef4:	8fb10064 	lw	s1,100(sp)
80402ef8:	8fb00060 	lw	s0,96(sp)
80402efc:	03e00008 	jr	ra
80402f00:	27bd0070 	addiu	sp,sp,112

80402f04 <bcm63xx_uart_open>:
80402f04:	27bdffe8 	addiu	sp,sp,-24
80402f08:	afbf0010 	sw	ra,16(sp)
80402f0c:	8c840004 	lw	a0,4(a0)
80402f10:	3c020001 	lui	v0,0x1
80402f14:	3442c200 	ori	v0,v0,0xc200
80402f18:	0c100b91 	jal	80402e44 <bcm63xx_set_baudrate>
80402f1c:	ac820000 	sw	v0,0(a0)
80402f20:	3c03fffe 	lui	v1,0xfffe
80402f24:	34630300 	ori	v1,v1,0x300
80402f28:	2402ffe0 	li	v0,-32
80402f2c:	a0620001 	sb	v0,1(v1)
80402f30:	8fbf0010 	lw	ra,16(sp)
80402f34:	24020037 	li	v0,55
80402f38:	a0620002 	sb	v0,2(v1)
80402f3c:	2402ffc0 	li	v0,-64
80402f40:	a0620003 	sb	v0,3(v1)
80402f44:	27bd0018 	addiu	sp,sp,24
80402f48:	00001021 	move	v0,zero
80402f4c:	a4600010 	sh	zero,16(v1)
80402f50:	03e00008 	jr	ra
80402f54:	00000000 	nop

80402f58 <bcm63xx_uart_read>:
80402f58:	8ca6000c 	lw	a2,12(a1)
80402f5c:	18c0001b 	blez	a2,80402fcc <bcm63xx_uart_read+0x74>
80402f60:	8ca70008 	lw	a3,8(a1)
80402f64:	3c02fffe 	lui	v0,0xfffe
80402f68:	34480300 	ori	t0,v0,0x300
80402f6c:	95020012 	lhu	v0,18(t0)
80402f70:	3042ffff 	andi	v0,v0,0xffff
80402f74:	000219c2 	srl	v1,v0,0x7
80402f78:	000222c2 	srl	a0,v0,0xb
80402f7c:	30427080 	andi	v0,v0,0x7080
80402f80:	30630001 	andi	v1,v1,0x1
80402f84:	10400009 	beqz	v0,80402fac <bcm63xx_uart_read+0x54>
80402f88:	30840001 	andi	a0,a0,0x1
80402f8c:	10600004 	beqz	v1,80402fa0 <bcm63xx_uart_read+0x48>
80402f90:	00000000 	nop
80402f94:	91020003 	lbu	v0,3(t0)
80402f98:	34420040 	ori	v0,v0,0x40
80402f9c:	a1020003 	sb	v0,3(t0)
80402fa0:	95020016 	lhu	v0,22(t0)
80402fa4:	08100bf1 	j	80402fc4 <bcm63xx_uart_read+0x6c>
80402fa8:	00000000 	nop
80402fac:	10800007 	beqz	a0,80402fcc <bcm63xx_uart_read+0x74>
80402fb0:	00000000 	nop
80402fb4:	95020016 	lhu	v0,22(t0)
80402fb8:	24c6ffff 	addiu	a2,a2,-1
80402fbc:	a0e20000 	sb	v0,0(a3)
80402fc0:	24e70001 	addiu	a3,a3,1
80402fc4:	1cc0ffe9 	bgtz	a2,80402f6c <bcm63xx_uart_read+0x14>
80402fc8:	00000000 	nop
80402fcc:	8ca3000c 	lw	v1,12(a1)
80402fd0:	00001021 	move	v0,zero
80402fd4:	00661823 	subu	v1,v1,a2
80402fd8:	03e00008 	jr	ra
80402fdc:	aca30010 	sw	v1,16(a1)

80402fe0 <bcm63xx_uart_inpstat>:
80402fe0:	3c02fffe 	lui	v0,0xfffe
80402fe4:	34420300 	ori	v0,v0,0x300
80402fe8:	94430012 	lhu	v1,18(v0)
80402fec:	00001021 	move	v0,zero
80402ff0:	30630800 	andi	v1,v1,0x800
80402ff4:	03e00008 	jr	ra
80402ff8:	aca30000 	sw	v1,0(a1)

80402ffc <bcm63xx_uart_write>:
80402ffc:	8ca6000c 	lw	a2,12(a1)
80403000:	18c0001b 	blez	a2,80403070 <bcm63xx_uart_write+0x74>
80403004:	8ca30008 	lw	v1,8(a1)
80403008:	3c02fffe 	lui	v0,0xfffe
8040300c:	34440300 	ori	a0,v0,0x300
80403010:	94820012 	lhu	v0,18(a0)
80403014:	30420020 	andi	v0,v0,0x20
80403018:	1040fffd 	beqz	v0,80403010 <bcm63xx_uart_write+0x14>
8040301c:	00000000 	nop
80403020:	90620000 	lbu	v0,0(v1)
80403024:	24c6ffff 	addiu	a2,a2,-1
80403028:	24630001 	addiu	v1,v1,1
8040302c:	a4820016 	sh	v0,22(a0)
80403030:	94820012 	lhu	v0,18(a0)
80403034:	18c00005 	blez	a2,8040304c <bcm63xx_uart_write+0x50>
80403038:	30420006 	andi	v0,v0,0x6
8040303c:	1040fff4 	beqz	v0,80403010 <bcm63xx_uart_write+0x14>
80403040:	3c02fffe 	lui	v0,0xfffe
80403044:	08100c17 	j	8040305c <bcm63xx_uart_write+0x60>
80403048:	34420300 	ori	v0,v0,0x300
8040304c:	10400008 	beqz	v0,80403070 <bcm63xx_uart_write+0x74>
80403050:	00000000 	nop
80403054:	3c02fffe 	lui	v0,0xfffe
80403058:	34420300 	ori	v0,v0,0x300
8040305c:	90430003 	lbu	v1,3(v0)
80403060:	2404ff80 	li	a0,-128
80403064:	24c60001 	addiu	a2,a2,1
80403068:	00641825 	or	v1,v1,a0
8040306c:	a0430003 	sb	v1,3(v0)
80403070:	8ca3000c 	lw	v1,12(a1)
80403074:	00001021 	move	v0,zero
80403078:	00661823 	subu	v1,v1,a2
8040307c:	03e00008 	jr	ra
80403080:	aca30010 	sw	v1,16(a1)

80403084 <bcm63xx_uart_ioctl>:
80403084:	8ca30014 	lw	v1,20(a1)
80403088:	27bdffe8 	addiu	sp,sp,-24
8040308c:	afbf0010 	sw	ra,16(sp)
80403090:	24020002 	li	v0,2
80403094:	8c860004 	lw	a2,4(a0)
80403098:	1062000f 	beq	v1,v0,804030d8 <bcm63xx_uart_ioctl+0x54>
8040309c:	8ca40008 	lw	a0,8(a1)
804030a0:	28620003 	slti	v0,v1,3
804030a4:	10400006 	beqz	v0,804030c0 <bcm63xx_uart_ioctl+0x3c>
804030a8:	24020003 	li	v0,3
804030ac:	24020001 	li	v0,1
804030b0:	1062000c 	beq	v1,v0,804030e4 <bcm63xx_uart_ioctl+0x60>
804030b4:	00000000 	nop
804030b8:	08100c41 	j	80403104 <bcm63xx_uart_ioctl+0x80>
804030bc:	2402ffff 	li	v0,-1
804030c0:	1062000f 	beq	v1,v0,80403100 <bcm63xx_uart_ioctl+0x7c>
804030c4:	24020004 	li	v0,4
804030c8:	1062000c 	beq	v1,v0,804030fc <bcm63xx_uart_ioctl+0x78>
804030cc:	2402ffff 	li	v0,-1
804030d0:	08100c42 	j	80403108 <bcm63xx_uart_ioctl+0x84>
804030d4:	8fbf0010 	lw	ra,16(sp)
804030d8:	8cc20000 	lw	v0,0(a2)
804030dc:	08100c40 	j	80403100 <bcm63xx_uart_ioctl+0x7c>
804030e0:	ac820000 	sw	v0,0(a0)
804030e4:	8c820000 	lw	v0,0(a0)
804030e8:	00c02021 	move	a0,a2
804030ec:	0c100b91 	jal	80402e44 <bcm63xx_set_baudrate>
804030f0:	acc20000 	sw	v0,0(a2)
804030f4:	08100c41 	j	80403104 <bcm63xx_uart_ioctl+0x80>
804030f8:	00001021 	move	v0,zero
804030fc:	ac800000 	sw	zero,0(a0)
80403100:	00001021 	move	v0,zero
80403104:	8fbf0010 	lw	ra,16(sp)
80403108:	03e00008 	jr	ra
8040310c:	27bd0018 	addiu	sp,sp,24

80403110 <bcm63xx_uart_close>:
80403110:	03e00008 	jr	ra
80403114:	00001021 	move	v0,zero

80403118 <kerSysFlashAddrInfoGet>:
80403118:	3c038042 	lui	v1,0x8042
8040311c:	2462e4e8 	addiu	v0,v1,-6936
80403120:	8c4a0004 	lw	t2,4(v0)
80403124:	8c45001c 	lw	a1,28(v0)
80403128:	8c460018 	lw	a2,24(v0)
8040312c:	8c470014 	lw	a3,20(v0)
80403130:	8c480010 	lw	t0,16(v0)
80403134:	8c49000c 	lw	t1,12(v0)
80403138:	8c63e4e8 	lw	v1,-6936(v1)
8040313c:	8c420008 	lw	v0,8(v0)
80403140:	ac85001c 	sw	a1,28(a0)
80403144:	ac830000 	sw	v1,0(a0)
80403148:	ac860018 	sw	a2,24(a0)
8040314c:	ac870014 	sw	a3,20(a0)
80403150:	ac880010 	sw	t0,16(a0)
80403154:	ac89000c 	sw	t1,12(a0)
80403158:	ac820008 	sw	v0,8(a0)
8040315c:	03e00008 	jr	ra
80403160:	ac8a0004 	sw	t2,4(a0)

80403164 <getSharedBlks>:
80403164:	27bdffd0 	addiu	sp,sp,-48
80403168:	0085102a 	slt	v0,a0,a1
8040316c:	afb50024 	sw	s5,36(sp)
80403170:	afb20018 	sw	s2,24(sp)
80403174:	afb10014 	sw	s1,20(sp)
80403178:	afb00010 	sw	s0,16(sp)
8040317c:	afbf0028 	sw	ra,40(sp)
80403180:	afb40020 	sw	s4,32(sp)
80403184:	afb3001c 	sw	s3,28(sp)
80403188:	00808821 	move	s1,a0
8040318c:	00a0a821 	move	s5,a1
80403190:	00809021 	move	s2,a0
80403194:	10400007 	beqz	v0,804031b4 <getSharedBlks+0x50>
80403198:	00008021 	move	s0,zero
8040319c:	3244ffff 	andi	a0,s2,0xffff
804031a0:	0c100fbc 	jal	80403ef0 <flash_get_sector_size>
804031a4:	26520001 	addiu	s2,s2,1
804031a8:	0255182a 	slt	v1,s2,s5
804031ac:	1460fffb 	bnez	v1,8040319c <getSharedBlks+0x38>
804031b0:	02028021 	addu	s0,s0,v0
804031b4:	3c048042 	lui	a0,0x8042
804031b8:	24842bec 	addiu	a0,a0,11244
804031bc:	02002821 	move	a1,s0
804031c0:	0c103064 	jal	8040c190 <kmalloc>
804031c4:	24060004 	li	a2,4
804031c8:	14400007 	bnez	v0,804031e8 <getSharedBlks+0x84>
804031cc:	0040a021 	move	s4,v0
804031d0:	3c048042 	lui	a0,0x8042
804031d4:	2484a1a8 	addiu	a0,a0,-24152
804031d8:	0c10331a 	jal	8040cc68 <xprintf>
804031dc:	02002821 	move	a1,s0
804031e0:	08100c8c 	j	80403230 <getSharedBlks+0xcc>
804031e4:	00001021 	move	v0,zero
804031e8:	02209021 	move	s2,s1
804031ec:	0235102a 	slt	v0,s1,s5
804031f0:	02809821 	move	s3,s4
804031f4:	1040000d 	beqz	v0,8040322c <getSharedBlks+0xc8>
804031f8:	3250ffff 	andi	s0,s2,0xffff
804031fc:	0c100fbc 	jal	80403ef0 <flash_get_sector_size>
80403200:	02002021 	move	a0,s0
80403204:	00408821 	move	s1,v0
80403208:	02603021 	move	a2,s3
8040320c:	02002021 	move	a0,s0
80403210:	26520001 	addiu	s2,s2,1
80403214:	00002821 	move	a1,zero
80403218:	0c100fa4 	jal	80403e90 <flash_read_buf>
8040321c:	00403821 	move	a3,v0
80403220:	02719821 	addu	s3,s3,s1
80403224:	08100c7d 	j	804031f4 <getSharedBlks+0x90>
80403228:	0255102a 	slt	v0,s2,s5
8040322c:	02801021 	move	v0,s4
80403230:	8fbf0028 	lw	ra,40(sp)
80403234:	8fb50024 	lw	s5,36(sp)
80403238:	8fb40020 	lw	s4,32(sp)
8040323c:	8fb3001c 	lw	s3,28(sp)
80403240:	8fb20018 	lw	s2,24(sp)
80403244:	8fb10014 	lw	s1,20(sp)
80403248:	8fb00010 	lw	s0,16(sp)
8040324c:	03e00008 	jr	ra
80403250:	27bd0030 	addiu	sp,sp,48

80403254 <setSharedBlks>:
80403254:	27bdffd0 	addiu	sp,sp,-48
80403258:	afb50024 	sw	s5,36(sp)
8040325c:	afb40020 	sw	s4,32(sp)
80403260:	afb3001c 	sw	s3,28(sp)
80403264:	afb20018 	sw	s2,24(sp)
80403268:	afbf0028 	sw	ra,40(sp)
8040326c:	afb10014 	sw	s1,20(sp)
80403270:	afb00010 	sw	s0,16(sp)
80403274:	00a0a821 	move	s5,a1
80403278:	00809021 	move	s2,a0
8040327c:	0085102a 	slt	v0,a0,a1
80403280:	00c09821 	move	s3,a2
80403284:	0000a021 	move	s4,zero
80403288:	10400016 	beqz	v0,804032e4 <setSharedBlks+0x90>
8040328c:	3250ffff 	andi	s0,s2,0xffff
80403290:	0c100fbc 	jal	80403ef0 <flash_get_sector_size>
80403294:	02002021 	move	a0,s0
80403298:	00408821 	move	s1,v0
8040329c:	0c100f9c 	jal	80403e70 <flash_sector_erase_int>
804032a0:	02002021 	move	a0,s0
804032a4:	02603021 	move	a2,s3
804032a8:	02002021 	move	a0,s0
804032ac:	00002821 	move	a1,zero
804032b0:	0c100fac 	jal	80403eb0 <flash_write_buf>
804032b4:	02203821 	move	a3,s1
804032b8:	10510007 	beq	v0,s1,804032d8 <setSharedBlks+0x84>
804032bc:	02719821 	addu	s3,s3,s1
804032c0:	3c048042 	lui	a0,0x8042
804032c4:	2484a1d4 	addiu	a0,a0,-24108
804032c8:	0c10331a 	jal	8040cc68 <xprintf>
804032cc:	02402821 	move	a1,s2
804032d0:	08100cb9 	j	804032e4 <setSharedBlks+0x90>
804032d4:	2414ffff 	li	s4,-1
804032d8:	26520001 	addiu	s2,s2,1
804032dc:	08100ca2 	j	80403288 <setSharedBlks+0x34>
804032e0:	0255102a 	slt	v0,s2,s5
804032e4:	02801021 	move	v0,s4
804032e8:	8fbf0028 	lw	ra,40(sp)
804032ec:	8fb50024 	lw	s5,36(sp)
804032f0:	8fb40020 	lw	s4,32(sp)
804032f4:	8fb3001c 	lw	s3,28(sp)
804032f8:	8fb20018 	lw	s2,24(sp)
804032fc:	8fb10014 	lw	s1,20(sp)
80403300:	8fb00010 	lw	s0,16(sp)
80403304:	03e00008 	jr	ra
80403308:	27bd0030 	addiu	sp,sp,48

8040330c <kerSysNvRamSet>:
8040330c:	27bdffd0 	addiu	sp,sp,-48
80403310:	3c028042 	lui	v0,0x8042
80403314:	afb20018 	sw	s2,24(sp)
80403318:	2452e4e8 	addiu	s2,v0,-6936
8040331c:	28a20401 	slti	v0,a1,1025
80403320:	afb50024 	sw	s5,36(sp)
80403324:	afb40020 	sw	s4,32(sp)
80403328:	afb3001c 	sw	s3,28(sp)
8040332c:	afb00010 	sw	s0,16(sp)
80403330:	afbf0028 	sw	ra,40(sp)
80403334:	afb10014 	sw	s1,20(sp)
80403338:	00a09821 	move	s3,a1
8040333c:	00c0a821 	move	s5,a2
80403340:	0080a021 	move	s4,a0
80403344:	10400017 	beqz	v0,804033a4 <kerSysNvRamSet+0x98>
80403348:	2410ffff 	li	s0,-1
8040334c:	8e440010 	lw	a0,16(s2)
80403350:	8e450014 	lw	a1,20(s2)
80403354:	0c100c59 	jal	80403164 <getSharedBlks>
80403358:	00852821 	addu	a1,a0,a1
8040335c:	00408821 	move	s1,v0
80403360:	02802821 	move	a1,s4
80403364:	1040000f 	beqz	v0,804033a4 <kerSysNvRamSet+0x98>
80403368:	02603021 	move	a2,s3
8040336c:	8e44001c 	lw	a0,28(s2)
80403370:	00442021 	addu	a0,v0,a0
80403374:	0c10345e 	jal	8040d178 <lib_memcpy>
80403378:	00952021 	addu	a0,a0,s5
8040337c:	8e440010 	lw	a0,16(s2)
80403380:	8e450014 	lw	a1,20(s2)
80403384:	02203021 	move	a2,s1
80403388:	0c100c95 	jal	80403254 <setSharedBlks>
8040338c:	00a42821 	addu	a1,a1,a0
80403390:	3c048042 	lui	a0,0x8042
80403394:	24842bec 	addiu	a0,a0,11244
80403398:	02202821 	move	a1,s1
8040339c:	0c103031 	jal	8040c0c4 <kfree>
804033a0:	0002800a 	movz	s0,zero,v0
804033a4:	02001021 	move	v0,s0
804033a8:	8fbf0028 	lw	ra,40(sp)
804033ac:	8fb50024 	lw	s5,36(sp)
804033b0:	8fb40020 	lw	s4,32(sp)
804033b4:	8fb3001c 	lw	s3,28(sp)
804033b8:	8fb20018 	lw	s2,24(sp)
804033bc:	8fb10014 	lw	s1,20(sp)
804033c0:	8fb00010 	lw	s0,16(sp)
804033c4:	03e00008 	jr	ra
804033c8:	27bd0030 	addiu	sp,sp,48

804033cc <kerSysFlashInit>:
804033cc:	27bdfe98 	addiu	sp,sp,-360
804033d0:	afbf0164 	sw	ra,356(sp)
804033d4:	afb60160 	sw	s6,352(sp)
804033d8:	afb5015c 	sw	s5,348(sp)
804033dc:	afb40158 	sw	s4,344(sp)
804033e0:	afb30154 	sw	s3,340(sp)
804033e4:	afb20150 	sw	s2,336(sp)
804033e8:	afb1014c 	sw	s1,332(sp)
804033ec:	0c100f49 	jal	80403d24 <flash_init>
804033f0:	afb00148 	sw	s0,328(sp)
804033f4:	0c100fb4 	jal	80403ed0 <flash_get_numsectors>
804033f8:	3c138042 	lui	s3,0x8042
804033fc:	0c100f41 	jal	80403d04 <flash_get_total_size>
80403400:	0040a821 	move	s5,v0
80403404:	2670e4e8 	addiu	s0,s3,-6936
80403408:	0040b021 	move	s6,v0
8040340c:	24140400 	li	s4,1024
80403410:	26a2ffff 	addiu	v0,s5,-1
80403414:	24110001 	li	s1,1
80403418:	3044ffff 	andi	a0,v0,0xffff
8040341c:	ae140018 	sw	s4,24(s0)
80403420:	ae020010 	sw	v0,16(s0)
80403424:	0c100fbc 	jal	80403ef0 <flash_get_sector_size>
80403428:	ae110014 	sw	s1,20(s0)
8040342c:	2442fc00 	addiu	v0,v0,-1024
80403430:	ae02001c 	sw	v0,28(s0)
80403434:	0c101aa2 	jal	80406a88 <readNvramData>
80403438:	00009021 	move	s2,zero
8040343c:	1440000b 	bnez	v0,8040346c <kerSysFlashInit+0xa0>
80403440:	24020580 	li	v0,1408
80403444:	27a40010 	addiu	a0,sp,16
80403448:	240500ff 	li	a1,255
8040344c:	0c103468 	jal	8040d1a0 <lib_memset>
80403450:	2406012c 	li	a2,300
80403454:	27a40010 	addiu	a0,sp,16
80403458:	2405012c 	li	a1,300
8040345c:	0c100cc3 	jal	8040330c <kerSysNvRamSet>
80403460:	00003021 	move	a2,zero
80403464:	24120001 	li	s2,1
80403468:	24020580 	li	v0,1408
8040346c:	ae140018 	sw	s4,24(s0)
80403470:	ae02001c 	sw	v0,28(s0)
80403474:	ae000010 	sw	zero,16(s0)
80403478:	16510003 	bne	s2,s1,80403488 <kerSysFlashInit+0xbc>
8040347c:	ae110014 	sw	s1,20(s0)
80403480:	0c101a90 	jal	80406a40 <writeNvramData>
80403484:	00000000 	nop
80403488:	0c101aa2 	jal	80406a88 <readNvramData>
8040348c:	00000000 	nop
80403490:	14400008 	bnez	v0,804034b4 <kerSysFlashInit+0xe8>
80403494:	24020018 	li	v0,24
80403498:	0c101284 	jal	80404a10 <setBoardIdName>
8040349c:	00000000 	nop
804034a0:	0c102753 	jal	80409d4c <BpGetPsiSize>
804034a4:	27a40140 	addiu	a0,sp,320
804034a8:	10400002 	beqz	v0,804034b4 <kerSysFlashInit+0xe8>
804034ac:	8fa20140 	lw	v0,320(sp)
804034b0:	24020018 	li	v0,24
804034b4:	ae020008 	sw	v0,8(s0)
804034b8:	3c02fffe 	lui	v0,0xfffe
804034bc:	2670e4e8 	addiu	s0,s3,-6936
804034c0:	34422000 	ori	v0,v0,0x2000
804034c4:	8e030008 	lw	v1,8(s0)
804034c8:	8c440000 	lw	a0,0(v0)
804034cc:	2402ff00 	li	v0,-256
804034d0:	00031a80 	sll	v1,v1,0xa
804034d4:	00822024 	and	a0,a0,v0
804034d8:	3c02a000 	lui	v0,0xa000
804034dc:	02c32823 	subu	a1,s6,v1
804034e0:	00822025 	or	a0,a0,v0
804034e4:	ae030008 	sw	v1,8(s0)
804034e8:	0c100fcc 	jal	80403f30 <flash_get_blk>
804034ec:	00a42021 	addu	a0,a1,a0
804034f0:	02a22023 	subu	a0,s5,v0
804034f4:	00441821 	addu	v1,v0,a0
804034f8:	ae040004 	sw	a0,4(s0)
804034fc:	00408821 	move	s1,v0
80403500:	0043182a 	slt	v1,v0,v1
80403504:	ae62e4e8 	sw	v0,-6936(s3)
80403508:	00008021 	move	s0,zero
8040350c:	1060000b 	beqz	v1,8040353c <kerSysFlashInit+0x170>
80403510:	8fbf0164 	lw	ra,356(sp)
80403514:	0c100fbc 	jal	80403ef0 <flash_get_sector_size>
80403518:	3224ffff 	andi	a0,s1,0xffff
8040351c:	2663e4e8 	addiu	v1,s3,-6936
80403520:	8c640004 	lw	a0,4(v1)
80403524:	8e63e4e8 	lw	v1,-6936(s3)
80403528:	26310001 	addiu	s1,s1,1
8040352c:	02028021 	addu	s0,s0,v0
80403530:	00641821 	addu	v1,v1,a0
80403534:	08100d43 	j	8040350c <kerSysFlashInit+0x140>
80403538:	0223182a 	slt	v1,s1,v1
8040353c:	3c038042 	lui	v1,0x8042
80403540:	2463e4e8 	addiu	v1,v1,-6936
80403544:	8c620008 	lw	v0,8(v1)
80403548:	8fb60160 	lw	s6,352(sp)
8040354c:	02021023 	subu	v0,s0,v0
80403550:	8fb5015c 	lw	s5,348(sp)
80403554:	8fb40158 	lw	s4,344(sp)
80403558:	8fb30154 	lw	s3,340(sp)
8040355c:	8fb20150 	lw	s2,336(sp)
80403560:	8fb1014c 	lw	s1,332(sp)
80403564:	8fb00148 	lw	s0,328(sp)
80403568:	27bd0168 	addiu	sp,sp,360
8040356c:	03e00008 	jr	ra
80403570:	ac62000c 	sw	v0,12(v1)

80403574 <kerSysNvRamGet>:
80403574:	27bdffd8 	addiu	sp,sp,-40
80403578:	3c028042 	lui	v0,0x8042
8040357c:	afb10014 	sw	s1,20(sp)
80403580:	2451e4e8 	addiu	s1,v0,-6936
80403584:	28a20401 	slti	v0,a1,1025
80403588:	afb40020 	sw	s4,32(sp)
8040358c:	afb3001c 	sw	s3,28(sp)
80403590:	afb20018 	sw	s2,24(sp)
80403594:	afbf0024 	sw	ra,36(sp)
80403598:	afb00010 	sw	s0,16(sp)
8040359c:	00a09021 	move	s2,a1
804035a0:	00c0a021 	move	s4,a2
804035a4:	00809821 	move	s3,a0
804035a8:	10400013 	beqz	v0,804035f8 <kerSysNvRamGet+0x84>
804035ac:	2403ffff 	li	v1,-1
804035b0:	8e240010 	lw	a0,16(s1)
804035b4:	8e250014 	lw	a1,20(s1)
804035b8:	0c100c59 	jal	80403164 <getSharedBlks>
804035bc:	00852821 	addu	a1,a0,a1
804035c0:	00408021 	move	s0,v0
804035c4:	02602021 	move	a0,s3
804035c8:	02403021 	move	a2,s2
804035cc:	1040000a 	beqz	v0,804035f8 <kerSysNvRamGet+0x84>
804035d0:	2403ffff 	li	v1,-1
804035d4:	8e25001c 	lw	a1,28(s1)
804035d8:	00452821 	addu	a1,v0,a1
804035dc:	0c10345e 	jal	8040d178 <lib_memcpy>
804035e0:	00b42821 	addu	a1,a1,s4
804035e4:	3c048042 	lui	a0,0x8042
804035e8:	24842bec 	addiu	a0,a0,11244
804035ec:	0c103031 	jal	8040c0c4 <kfree>
804035f0:	02002821 	move	a1,s0
804035f4:	00001821 	move	v1,zero
804035f8:	8fbf0024 	lw	ra,36(sp)
804035fc:	8fb40020 	lw	s4,32(sp)
80403600:	8fb3001c 	lw	s3,28(sp)
80403604:	8fb20018 	lw	s2,24(sp)
80403608:	8fb10014 	lw	s1,20(sp)
8040360c:	8fb00010 	lw	s0,16(sp)
80403610:	00601021 	move	v0,v1
80403614:	03e00008 	jr	ra
80403618:	27bd0028 	addiu	sp,sp,40

8040361c <kerSysMemoryTypeSet>:
8040361c:	27bdffd8 	addiu	sp,sp,-40
80403620:	3c02fffe 	lui	v0,0xfffe
80403624:	afbf0020 	sw	ra,32(sp)
80403628:	afb3001c 	sw	s3,28(sp)
8040362c:	afb20018 	sw	s2,24(sp)
80403630:	afb10014 	sw	s1,20(sp)
80403634:	afb00010 	sw	s0,16(sp)
80403638:	34422000 	ori	v0,v0,0x2000
8040363c:	8c430000 	lw	v1,0(v0)
80403640:	2402ff00 	li	v0,-256
80403644:	00809821 	move	s3,a0
80403648:	00621824 	and	v1,v1,v0
8040364c:	3c04a000 	lui	a0,0xa000
80403650:	0c100fcc 	jal	80403f30 <flash_get_blk>
80403654:	00642025 	or	a0,v1,a0
80403658:	3051ffff 	andi	s1,v0,0xffff
8040365c:	0c100fbc 	jal	80403ef0 <flash_get_sector_size>
80403660:	02202021 	move	a0,s1
80403664:	3c048042 	lui	a0,0x8042
80403668:	24842bec 	addiu	a0,a0,11244
8040366c:	00402821 	move	a1,v0
80403670:	24060004 	li	a2,4
80403674:	0c103064 	jal	8040c190 <kmalloc>
80403678:	00409021 	move	s2,v0
8040367c:	00408021 	move	s0,v0
80403680:	00002821 	move	a1,zero
80403684:	00403021 	move	a2,v0
80403688:	02403821 	move	a3,s2
8040368c:	14400007 	bnez	v0,804036ac <kerSysMemoryTypeSet+0x90>
80403690:	02202021 	move	a0,s1
80403694:	3c048042 	lui	a0,0x8042
80403698:	2484a1f4 	addiu	a0,a0,-24076
8040369c:	0c10331a 	jal	8040cc68 <xprintf>
804036a0:	02402821 	move	a1,s2
804036a4:	08100dbb 	j	804036ec <kerSysMemoryTypeSet+0xd0>
804036a8:	00001021 	move	v0,zero
804036ac:	0c100fa4 	jal	80403e90 <flash_read_buf>
804036b0:	00000000 	nop
804036b4:	02202021 	move	a0,s1
804036b8:	0c100f9c 	jal	80403e70 <flash_sector_erase_int>
804036bc:	ae130010 	sw	s3,16(s0)
804036c0:	02202021 	move	a0,s1
804036c4:	02003021 	move	a2,s0
804036c8:	00002821 	move	a1,zero
804036cc:	0c100fac 	jal	80403eb0 <flash_write_buf>
804036d0:	02403821 	move	a3,s2
804036d4:	3c048042 	lui	a0,0x8042
804036d8:	10520003 	beq	v0,s2,804036e8 <kerSysMemoryTypeSet+0xcc>
804036dc:	2484a220 	addiu	a0,a0,-24032
804036e0:	0c10331a 	jal	8040cc68 <xprintf>
804036e4:	00000000 	nop
804036e8:	24020001 	li	v0,1
804036ec:	8fbf0020 	lw	ra,32(sp)
804036f0:	8fb3001c 	lw	s3,28(sp)
804036f4:	8fb20018 	lw	s2,24(sp)
804036f8:	8fb10014 	lw	s1,20(sp)
804036fc:	8fb00010 	lw	s0,16(sp)
80403700:	03e00008 	jr	ra
80403704:	27bd0028 	addiu	sp,sp,40

80403708 <kerSysEraseNvRam>:
80403708:	27bdffe0 	addiu	sp,sp,-32
8040370c:	afb20018 	sw	s2,24(sp)
80403710:	3c128042 	lui	s2,0x8042
80403714:	26442bec 	addiu	a0,s2,11244
80403718:	24050400 	li	a1,1024
8040371c:	afb10014 	sw	s1,20(sp)
80403720:	afb00010 	sw	s0,16(sp)
80403724:	afbf001c 	sw	ra,28(sp)
80403728:	0c103064 	jal	8040c190 <kmalloc>
8040372c:	24060004 	li	a2,4
80403730:	00408021 	move	s0,v0
80403734:	00402021 	move	a0,v0
80403738:	240500ff 	li	a1,255
8040373c:	24060400 	li	a2,1024
80403740:	1040000b 	beqz	v0,80403770 <kerSysEraseNvRam+0x68>
80403744:	00008821 	move	s1,zero
80403748:	0c103468 	jal	8040d1a0 <lib_memset>
8040374c:	00000000 	nop
80403750:	02002021 	move	a0,s0
80403754:	24050400 	li	a1,1024
80403758:	0c100cc3 	jal	8040330c <kerSysNvRamSet>
8040375c:	00003021 	move	a2,zero
80403760:	26442bec 	addiu	a0,s2,11244
80403764:	02002821 	move	a1,s0
80403768:	0c103031 	jal	8040c0c4 <kfree>
8040376c:	2c510001 	sltiu	s1,v0,1
80403770:	0c100d87 	jal	8040361c <kerSysMemoryTypeSet>
80403774:	00002021 	move	a0,zero
80403778:	02201021 	move	v0,s1
8040377c:	8fbf001c 	lw	ra,28(sp)
80403780:	8fb20018 	lw	s2,24(sp)
80403784:	8fb10014 	lw	s1,20(sp)
80403788:	8fb00010 	lw	s0,16(sp)
8040378c:	03e00008 	jr	ra
80403790:	27bd0020 	addiu	sp,sp,32

80403794 <kerSysPsiSet>:
80403794:	27bdffd0 	addiu	sp,sp,-48
80403798:	afb3001c 	sw	s3,28(sp)
8040379c:	3c138042 	lui	s3,0x8042
804037a0:	afb20018 	sw	s2,24(sp)
804037a4:	2672e4e8 	addiu	s2,s3,-6936
804037a8:	8e420008 	lw	v0,8(s2)
804037ac:	afb60028 	sw	s6,40(sp)
804037b0:	afb50024 	sw	s5,36(sp)
804037b4:	0045102a 	slt	v0,v0,a1
804037b8:	afb40020 	sw	s4,32(sp)
804037bc:	afb00010 	sw	s0,16(sp)
804037c0:	afbf002c 	sw	ra,44(sp)
804037c4:	afb10014 	sw	s1,20(sp)
804037c8:	00a0a021 	move	s4,a1
804037cc:	00c0b021 	move	s6,a2
804037d0:	0080a821 	move	s5,a0
804037d4:	14400017 	bnez	v0,80403834 <kerSysPsiSet+0xa0>
804037d8:	2410ffff 	li	s0,-1
804037dc:	8e64e4e8 	lw	a0,-6936(s3)
804037e0:	8e450004 	lw	a1,4(s2)
804037e4:	0c100c59 	jal	80403164 <getSharedBlks>
804037e8:	00852821 	addu	a1,a0,a1
804037ec:	00408821 	move	s1,v0
804037f0:	02a02821 	move	a1,s5
804037f4:	1040000f 	beqz	v0,80403834 <kerSysPsiSet+0xa0>
804037f8:	02803021 	move	a2,s4
804037fc:	8e44000c 	lw	a0,12(s2)
80403800:	00442021 	addu	a0,v0,a0
80403804:	0c10345e 	jal	8040d178 <lib_memcpy>
80403808:	00962021 	addu	a0,a0,s6
8040380c:	8e64e4e8 	lw	a0,-6936(s3)
80403810:	8e450004 	lw	a1,4(s2)
80403814:	02203021 	move	a2,s1
80403818:	0c100c95 	jal	80403254 <setSharedBlks>
8040381c:	00a42821 	addu	a1,a1,a0
80403820:	3c048042 	lui	a0,0x8042
80403824:	24842bec 	addiu	a0,a0,11244
80403828:	02202821 	move	a1,s1
8040382c:	0c103031 	jal	8040c0c4 <kfree>
80403830:	0002800a 	movz	s0,zero,v0
80403834:	02001021 	move	v0,s0
80403838:	8fbf002c 	lw	ra,44(sp)
8040383c:	8fb60028 	lw	s6,40(sp)
80403840:	8fb50024 	lw	s5,36(sp)
80403844:	8fb40020 	lw	s4,32(sp)
80403848:	8fb3001c 	lw	s3,28(sp)
8040384c:	8fb20018 	lw	s2,24(sp)
80403850:	8fb10014 	lw	s1,20(sp)
80403854:	8fb00010 	lw	s0,16(sp)
80403858:	03e00008 	jr	ra
8040385c:	27bd0030 	addiu	sp,sp,48

80403860 <kerSysErasePsi>:
80403860:	27bdffd8 	addiu	sp,sp,-40
80403864:	3c028042 	lui	v0,0x8042
80403868:	afb20018 	sw	s2,24(sp)
8040386c:	2452e4e8 	addiu	s2,v0,-6936
80403870:	8e450008 	lw	a1,8(s2)
80403874:	afb3001c 	sw	s3,28(sp)
80403878:	3c138042 	lui	s3,0x8042
8040387c:	afb40020 	sw	s4,32(sp)
80403880:	24060004 	li	a2,4
80403884:	0080a021 	move	s4,a0
80403888:	afb10014 	sw	s1,20(sp)
8040388c:	afb00010 	sw	s0,16(sp)
80403890:	afbf0024 	sw	ra,36(sp)
80403894:	0c103064 	jal	8040c190 <kmalloc>
80403898:	26642bec 	addiu	a0,s3,11244
8040389c:	00408021 	move	s0,v0
804038a0:	00402021 	move	a0,v0
804038a4:	240500ff 	li	a1,255
804038a8:	14400003 	bnez	v0,804038b8 <kerSysErasePsi+0x58>
804038ac:	24110001 	li	s1,1
804038b0:	08100e3a 	j	804038e8 <kerSysErasePsi+0x88>
804038b4:	00008821 	move	s1,zero
804038b8:	0c103468 	jal	8040d1a0 <lib_memset>
804038bc:	8e460008 	lw	a2,8(s2)
804038c0:	02002021 	move	a0,s0
804038c4:	12800002 	beqz	s4,804038d0 <kerSysErasePsi+0x70>
804038c8:	00003021 	move	a2,zero
804038cc:	ae110000 	sw	s1,0(s0)
804038d0:	0c100de5 	jal	80403794 <kerSysPsiSet>
804038d4:	8e450008 	lw	a1,8(s2)
804038d8:	26642bec 	addiu	a0,s3,11244
804038dc:	02002821 	move	a1,s0
804038e0:	0c103031 	jal	8040c0c4 <kfree>
804038e4:	2c510001 	sltiu	s1,v0,1
804038e8:	02201021 	move	v0,s1
804038ec:	8fbf0024 	lw	ra,36(sp)
804038f0:	8fb40020 	lw	s4,32(sp)
804038f4:	8fb3001c 	lw	s3,28(sp)
804038f8:	8fb20018 	lw	s2,24(sp)
804038fc:	8fb10014 	lw	s1,20(sp)
80403900:	8fb00010 	lw	s0,16(sp)
80403904:	03e00008 	jr	ra
80403908:	27bd0028 	addiu	sp,sp,40

8040390c <kerSysMemoryTypeGet>:
8040390c:	3c02fffe 	lui	v0,0xfffe
80403910:	34422000 	ori	v0,v0,0x2000
80403914:	8c420000 	lw	v0,0(v0)
80403918:	2403ff00 	li	v1,-256
8040391c:	00431024 	and	v0,v0,v1
80403920:	3c03a000 	lui	v1,0xa000
80403924:	00431025 	or	v0,v0,v1
80403928:	03e00008 	jr	ra
8040392c:	8c420010 	lw	v0,16(v0)

80403930 <kerSysThreadNumSet>:
80403930:	27bdffd8 	addiu	sp,sp,-40
80403934:	3c02fffe 	lui	v0,0xfffe
80403938:	afbf0020 	sw	ra,32(sp)
8040393c:	afb3001c 	sw	s3,28(sp)
80403940:	afb20018 	sw	s2,24(sp)
80403944:	afb10014 	sw	s1,20(sp)
80403948:	afb00010 	sw	s0,16(sp)
8040394c:	34422000 	ori	v0,v0,0x2000
80403950:	8c430000 	lw	v1,0(v0)
80403954:	2402ff00 	li	v0,-256
80403958:	00809821 	move	s3,a0
8040395c:	00621824 	and	v1,v1,v0
80403960:	3c04a000 	lui	a0,0xa000
80403964:	0c100fcc 	jal	80403f30 <flash_get_blk>
80403968:	00642025 	or	a0,v1,a0
8040396c:	3051ffff 	andi	s1,v0,0xffff
80403970:	0c100fbc 	jal	80403ef0 <flash_get_sector_size>
80403974:	02202021 	move	a0,s1
80403978:	3c048042 	lui	a0,0x8042
8040397c:	24842bec 	addiu	a0,a0,11244
80403980:	00402821 	move	a1,v0
80403984:	24060004 	li	a2,4
80403988:	0c103064 	jal	8040c190 <kmalloc>
8040398c:	00409021 	move	s2,v0
80403990:	00408021 	move	s0,v0
80403994:	00002821 	move	a1,zero
80403998:	00403021 	move	a2,v0
8040399c:	02403821 	move	a3,s2
804039a0:	14400007 	bnez	v0,804039c0 <kerSysThreadNumSet+0x90>
804039a4:	02202021 	move	a0,s1
804039a8:	3c048042 	lui	a0,0x8042
804039ac:	2484a1f4 	addiu	a0,a0,-24076
804039b0:	0c10331a 	jal	8040cc68 <xprintf>
804039b4:	02402821 	move	a1,s2
804039b8:	08100e80 	j	80403a00 <kerSysThreadNumSet+0xd0>
804039bc:	00001021 	move	v0,zero
804039c0:	0c100fa4 	jal	80403e90 <flash_read_buf>
804039c4:	00000000 	nop
804039c8:	02202021 	move	a0,s1
804039cc:	0c100f9c 	jal	80403e70 <flash_sector_erase_int>
804039d0:	ae130014 	sw	s3,20(s0)
804039d4:	02202021 	move	a0,s1
804039d8:	02003021 	move	a2,s0
804039dc:	00002821 	move	a1,zero
804039e0:	0c100fac 	jal	80403eb0 <flash_write_buf>
804039e4:	02403821 	move	a3,s2
804039e8:	3c048042 	lui	a0,0x8042
804039ec:	10520003 	beq	v0,s2,804039fc <kerSysThreadNumSet+0xcc>
804039f0:	2484a220 	addiu	a0,a0,-24032
804039f4:	0c10331a 	jal	8040cc68 <xprintf>
804039f8:	00000000 	nop
804039fc:	24020001 	li	v0,1
80403a00:	8fbf0020 	lw	ra,32(sp)
80403a04:	8fb3001c 	lw	s3,28(sp)
80403a08:	8fb20018 	lw	s2,24(sp)
80403a0c:	8fb10014 	lw	s1,20(sp)
80403a10:	8fb00010 	lw	s0,16(sp)
80403a14:	03e00008 	jr	ra
80403a18:	27bd0028 	addiu	sp,sp,40

80403a1c <kerSysThreadNumGet>:
80403a1c:	3c02fffe 	lui	v0,0xfffe
80403a20:	34422000 	ori	v0,v0,0x2000
80403a24:	8c420000 	lw	v0,0(v0)
80403a28:	2403ff00 	li	v1,-256
80403a2c:	00431024 	and	v0,v0,v1
80403a30:	3c03a000 	lui	v1,0xa000
80403a34:	00431025 	or	v0,v0,v1
80403a38:	03e00008 	jr	ra
80403a3c:	8c420014 	lw	v0,20(v0)

80403a40 <kerSysBcmImageSet>:
80403a40:	27bdffd0 	addiu	sp,sp,-48
80403a44:	afb60028 	sw	s6,40(sp)
80403a48:	afb50024 	sw	s5,36(sp)
80403a4c:	afb40020 	sw	s4,32(sp)
80403a50:	afb20018 	sw	s2,24(sp)
80403a54:	afb10014 	sw	s1,20(sp)
80403a58:	00c09021 	move	s2,a2
80403a5c:	afbf002c 	sw	ra,44(sp)
80403a60:	afb3001c 	sw	s3,28(sp)
80403a64:	afb00010 	sw	s0,16(sp)
80403a68:	00a0a821 	move	s5,a1
80403a6c:	0c100fcc 	jal	80403f30 <flash_get_blk>
80403a70:	00e0b021 	move	s6,a3
80403a74:	0040a021 	move	s4,v0
80403a78:	02408821 	move	s1,s2
80403a7c:	06800064 	bltz	s4,80403c10 <kerSysBcmImageSet+0x1d0>
80403a80:	2402ffff 	li	v0,-1
80403a84:	08100eae 	j	80403ab8 <kerSysBcmImageSet+0x78>
80403a88:	3293ffff 	andi	s3,s4,0xffff
80403a8c:	0c10331a 	jal	8040cc68 <xprintf>
80403a90:	2484a244 	addiu	a0,a0,-23996
80403a94:	08100f00 	j	80403c00 <kerSysBcmImageSet+0x1c0>
80403a98:	3c048042 	lui	a0,0x8042
80403a9c:	3c048042 	lui	a0,0x8042
80403aa0:	2484a1f4 	addiu	a0,a0,-24076
80403aa4:	0c10331a 	jal	8040cc68 <xprintf>
80403aa8:	02002821 	move	a1,s0
80403aac:	08100f00 	j	80403c00 <kerSysBcmImageSet+0x1c0>
80403ab0:	3c048042 	lui	a0,0x8042
80403ab4:	3293ffff 	andi	s3,s4,0xffff
80403ab8:	0c100fbc 	jal	80403ef0 <flash_get_sector_size>
80403abc:	02602021 	move	a0,s3
80403ac0:	00408021 	move	s0,v0
80403ac4:	3c038042 	lui	v1,0x8042
80403ac8:	16c00024 	bnez	s6,80403b5c <kerSysBcmImageSet+0x11c>
80403acc:	02602021 	move	a0,s3
80403ad0:	8c62e4e8 	lw	v0,-6936(v1)
80403ad4:	16820021 	bne	s4,v0,80403b5c <kerSysBcmImageSet+0x11c>
80403ad8:	2462e4e8 	addiu	v0,v1,-6936
80403adc:	8c420008 	lw	v0,8(v0)
80403ae0:	02021023 	subu	v0,s0,v0
80403ae4:	0052102a 	slt	v0,v0,s2
80403ae8:	1440ffe8 	bnez	v0,80403a8c <kerSysBcmImageSet+0x4c>
80403aec:	3c048042 	lui	a0,0x8042
80403af0:	3c048042 	lui	a0,0x8042
80403af4:	24842bec 	addiu	a0,a0,11244
80403af8:	02002821 	move	a1,s0
80403afc:	0c103064 	jal	8040c190 <kmalloc>
80403b00:	24060004 	li	a2,4
80403b04:	1040ffe5 	beqz	v0,80403a9c <kerSysBcmImageSet+0x5c>
80403b08:	00408821 	move	s1,v0
80403b0c:	02003821 	move	a3,s0
80403b10:	02602021 	move	a0,s3
80403b14:	00002821 	move	a1,zero
80403b18:	0c100fa4 	jal	80403e90 <flash_read_buf>
80403b1c:	00403021 	move	a2,v0
80403b20:	02a02821 	move	a1,s5
80403b24:	02403021 	move	a2,s2
80403b28:	0c10345e 	jal	8040d178 <lib_memcpy>
80403b2c:	02202021 	move	a0,s1
80403b30:	0c100f9c 	jal	80403e70 <flash_sector_erase_int>
80403b34:	02602021 	move	a0,s3
80403b38:	02602021 	move	a0,s3
80403b3c:	02203021 	move	a2,s1
80403b40:	00002821 	move	a1,zero
80403b44:	0c100fac 	jal	80403eb0 <flash_write_buf>
80403b48:	02003821 	move	a3,s0
80403b4c:	1450002b 	bne	v0,s0,80403bfc <kerSysBcmImageSet+0x1bc>
80403b50:	00000000 	nop
80403b54:	08100eff 	j	80403bfc <kerSysBcmImageSet+0x1bc>
80403b58:	00009021 	move	s2,zero
80403b5c:	0c100f9c 	jal	80403e70 <flash_sector_erase_int>
80403b60:	00000000 	nop
80403b64:	0250102a 	slt	v0,s2,s0
80403b68:	02602021 	move	a0,s3
80403b6c:	02a03021 	move	a2,s5
80403b70:	00002821 	move	a1,zero
80403b74:	10400003 	beqz	v0,80403b84 <kerSysBcmImageSet+0x144>
80403b78:	32430001 	andi	v1,s2,0x1
80403b7c:	02439021 	addu	s2,s2,v1
80403b80:	02408021 	move	s0,s2
80403b84:	0c100fac 	jal	80403eb0 <flash_write_buf>
80403b88:	02003821 	move	a3,s0
80403b8c:	3c048042 	lui	a0,0x8042
80403b90:	02b0a821 	addu	s5,s5,s0
80403b94:	14500005 	bne	v0,s0,80403bac <kerSysBcmImageSet+0x16c>
80403b98:	2484bc48 	addiu	a0,a0,-17336
80403b9c:	0c10331a 	jal	8040cc68 <xprintf>
80403ba0:	02509023 	subu	s2,s2,s0
80403ba4:	1e40ffc3 	bgtz	s2,80403ab4 <kerSysBcmImageSet+0x74>
80403ba8:	26940001 	addiu	s4,s4,1
80403bac:	12c00014 	beqz	s6,80403c00 <kerSysBcmImageSet+0x1c0>
80403bb0:	3c048042 	lui	a0,0x8042
80403bb4:	3c020001 	lui	v0,0x1
80403bb8:	0051102a 	slt	v0,v0,s1
80403bbc:	10400010 	beqz	v0,80403c00 <kerSysBcmImageSet+0x1c0>
80403bc0:	00000000 	nop
80403bc4:	0c100fb4 	jal	80403ed0 <flash_get_numsectors>
80403bc8:	00000000 	nop
80403bcc:	00408021 	move	s0,v0
80403bd0:	0290102a 	slt	v0,s4,s0
80403bd4:	1040000a 	beqz	v0,80403c00 <kerSysBcmImageSet+0x1c0>
80403bd8:	3c048042 	lui	a0,0x8042
80403bdc:	0c100f9c 	jal	80403e70 <flash_sector_erase_int>
80403be0:	3284ffff 	andi	a0,s4,0xffff
80403be4:	3c048042 	lui	a0,0x8042
80403be8:	2484bc48 	addiu	a0,a0,-17336
80403bec:	0c10331a 	jal	8040cc68 <xprintf>
80403bf0:	26940001 	addiu	s4,s4,1
80403bf4:	08100ef5 	j	80403bd4 <kerSysBcmImageSet+0x194>
80403bf8:	0290102a 	slt	v0,s4,s0
80403bfc:	3c048042 	lui	a0,0x8042
80403c00:	0c10331a 	jal	8040cc68 <xprintf>
80403c04:	2484c21c 	addiu	a0,a0,-15844
80403c08:	00001021 	move	v0,zero
80403c0c:	0292100b 	movn	v0,s4,s2
80403c10:	8fbf002c 	lw	ra,44(sp)
80403c14:	8fb60028 	lw	s6,40(sp)
80403c18:	8fb50024 	lw	s5,36(sp)
80403c1c:	8fb40020 	lw	s4,32(sp)
80403c20:	8fb3001c 	lw	s3,28(sp)
80403c24:	8fb20018 	lw	s2,24(sp)
80403c28:	8fb10014 	lw	s1,20(sp)
80403c2c:	8fb00010 	lw	s0,16(sp)
80403c30:	03e00008 	jr	ra
80403c34:	27bd0030 	addiu	sp,sp,48

80403c38 <getBootToCfe>:
80403c38:	27bdffe0 	addiu	sp,sp,-32
80403c3c:	3c028042 	lui	v0,0x8042
80403c40:	afbf0018 	sw	ra,24(sp)
80403c44:	2443e4e8 	addiu	v1,v0,-6936
80403c48:	9444e4ea 	lhu	a0,-6934(v0)
80403c4c:	8c65000c 	lw	a1,12(v1)
80403c50:	27a60010 	addiu	a2,sp,16
80403c54:	24070004 	li	a3,4
80403c58:	0c100fa4 	jal	80403e90 <flash_read_buf>
80403c5c:	afa00010 	sw	zero,16(sp)
80403c60:	8fa20010 	lw	v0,16(sp)
80403c64:	8fbf0018 	lw	ra,24(sp)
80403c68:	27bd0020 	addiu	sp,sp,32
80403c6c:	38420001 	xori	v0,v0,0x1
80403c70:	03e00008 	jr	ra
80403c74:	2c420001 	sltiu	v0,v0,1

80403c78 <getMacAddress>:
80403c78:	3c058042 	lui	a1,0x8042
80403c7c:	24a52bd0 	addiu	a1,a1,11216
80403c80:	10800003 	beqz	a0,80403c90 <getMacAddress+0x18>
80403c84:	24060006 	li	a2,6
80403c88:	0810345e 	j	8040d178 <lib_memcpy>
80403c8c:	00000000 	nop
80403c90:	03e00008 	jr	ra
80403c94:	00000000 	nop

80403c98 <kerSysReadFromFlash>:
80403c98:	27bdffd8 	addiu	sp,sp,-40
80403c9c:	afb3001c 	sw	s3,28(sp)
80403ca0:	00809821 	move	s3,a0
80403ca4:	00a02021 	move	a0,a1
80403ca8:	afbf0020 	sw	ra,32(sp)
80403cac:	afb20018 	sw	s2,24(sp)
80403cb0:	afb10014 	sw	s1,20(sp)
80403cb4:	00c09021 	move	s2,a2
80403cb8:	00a08821 	move	s1,a1
80403cbc:	0c100fcc 	jal	80403f30 <flash_get_blk>
80403cc0:	afb00010 	sw	s0,16(sp)
80403cc4:	3050ffff 	andi	s0,v0,0xffff
80403cc8:	0c100fc4 	jal	80403f10 <flash_get_memptr>
80403ccc:	02002021 	move	a0,s0
80403cd0:	02222823 	subu	a1,s1,v0
80403cd4:	02002021 	move	a0,s0
80403cd8:	02603021 	move	a2,s3
80403cdc:	0c100fa4 	jal	80403e90 <flash_read_buf>
80403ce0:	02403821 	move	a3,s2
80403ce4:	02401021 	move	v0,s2
80403ce8:	8fbf0020 	lw	ra,32(sp)
80403cec:	8fb3001c 	lw	s3,28(sp)
80403cf0:	8fb20018 	lw	s2,24(sp)
80403cf4:	8fb10014 	lw	s1,20(sp)
80403cf8:	8fb00010 	lw	s0,16(sp)
80403cfc:	03e00008 	jr	ra
80403d00:	27bd0028 	addiu	sp,sp,40

80403d04 <flash_get_total_size>:
80403d04:	8f8380b4 	lw	v1,-32588(gp)
80403d08:	10600004 	beqz	v1,80403d1c <flash_get_total_size+0x18>
80403d0c:	2402ffff 	li	v0,-1
80403d10:	8c79003c 	lw	t9,60(v1)
80403d14:	03200008 	jr	t9
80403d18:	00000000 	nop
80403d1c:	03e00008 	jr	ra
80403d20:	00000000 	nop

80403d24 <flash_init>:
80403d24:	27bdffc8 	addiu	sp,sp,-56
80403d28:	3c028042 	lui	v0,0x8042
80403d2c:	afb3002c 	sw	s3,44(sp)
80403d30:	245395e8 	addiu	s3,v0,-27160
80403d34:	8f828040 	lw	v0,-32704(gp)
80403d38:	afb20028 	sw	s2,40(sp)
80403d3c:	afb10024 	sw	s1,36(sp)
80403d40:	afb00020 	sw	s0,32(sp)
80403d44:	afbf0030 	sw	ra,48(sp)
80403d48:	afa00018 	sw	zero,24(sp)
80403d4c:	2412ffff 	li	s2,-1
80403d50:	3410ffff 	li	s0,0xffff
80403d54:	1040000e 	beqz	v0,80403d90 <flash_init+0x6c>
80403d58:	3411ffff 	li	s1,0xffff
80403d5c:	0c102aeb 	jal	8040abac <cfi_flash_init>
80403d60:	27a40018 	addiu	a0,sp,24
80403d64:	00409021 	move	s2,v0
80403d68:	24020001 	li	v0,1
80403d6c:	16420005 	bne	s2,v0,80403d84 <flash_init+0x60>
80403d70:	8fa30018 	lw	v1,24(sp)
80403d74:	3c028042 	lui	v0,0x8042
80403d78:	2453a258 	addiu	s3,v0,-23976
80403d7c:	08100f64 	j	80403d90 <flash_init+0x6c>
80403d80:	af8380b4 	sw	v1,-32588(gp)
80403d84:	10600003 	beqz	v1,80403d94 <flash_init+0x70>
80403d88:	24020001 	li	v0,1
80403d8c:	94700000 	lhu	s0,0(v1)
80403d90:	24020001 	li	v0,1
80403d94:	12420007 	beq	s2,v0,80403db4 <flash_init+0x90>
80403d98:	8f8280b0 	lw	v0,-32592(gp)
80403d9c:	10400006 	beqz	v0,80403db8 <flash_init+0x94>
80403da0:	24020001 	li	v0,1
80403da4:	8fa20018 	lw	v0,24(sp)
80403da8:	10400002 	beqz	v0,80403db4 <flash_init+0x90>
80403dac:	2412ffff 	li	s2,-1
80403db0:	94510000 	lhu	s1,0(v0)
80403db4:	24020001 	li	v0,1
80403db8:	16420011 	bne	s2,v0,80403e00 <flash_init+0xdc>
80403dbc:	00000000 	nop
80403dc0:	0c100f41 	jal	80403d04 <flash_get_total_size>
80403dc4:	00000000 	nop
80403dc8:	8f8680b4 	lw	a2,-32588(gp)
80403dcc:	244403ff 	addiu	a0,v0,1023
80403dd0:	28430000 	slti	v1,v0,0
80403dd4:	94c70000 	lhu	a3,0(a2)
80403dd8:	0083100b 	movn	v0,a0,v1
80403ddc:	3c048042 	lui	a0,0x8042
80403de0:	00021283 	sra	v0,v0,0xa
80403de4:	2484a264 	addiu	a0,a0,-23964
80403de8:	02602821 	move	a1,s3
80403dec:	24c60002 	addiu	a2,a2,2
80403df0:	0c10331a 	jal	8040cc68 <xprintf>
80403df4:	afa20010 	sw	v0,16(sp)
80403df8:	08100f95 	j	80403e54 <flash_init+0x130>
80403dfc:	02401021 	move	v0,s2
80403e00:	3402ffff 	li	v0,0xffff
80403e04:	12020006 	beq	s0,v0,80403e20 <flash_init+0xfc>
80403e08:	00000000 	nop
80403e0c:	12000004 	beqz	s0,80403e20 <flash_init+0xfc>
80403e10:	3c048042 	lui	a0,0x8042
80403e14:	2484a298 	addiu	a0,a0,-23912
80403e18:	08100f8e 	j	80403e38 <flash_init+0x114>
80403e1c:	02002821 	move	a1,s0
80403e20:	12220009 	beq	s1,v0,80403e48 <flash_init+0x124>
80403e24:	3c048042 	lui	a0,0x8042
80403e28:	12200007 	beqz	s1,80403e48 <flash_init+0x124>
80403e2c:	02202821 	move	a1,s1
80403e30:	3c048042 	lui	a0,0x8042
80403e34:	2484a2e8 	addiu	a0,a0,-23832
80403e38:	0c10331a 	jal	8040cc68 <xprintf>
80403e3c:	00000000 	nop
80403e40:	08100f95 	j	80403e54 <flash_init+0x130>
80403e44:	02401021 	move	v0,s2
80403e48:	0c10331a 	jal	8040cc68 <xprintf>
80403e4c:	2484a2cc 	addiu	a0,a0,-23860
80403e50:	02401021 	move	v0,s2
80403e54:	8fbf0030 	lw	ra,48(sp)
80403e58:	8fb3002c 	lw	s3,44(sp)
80403e5c:	8fb20028 	lw	s2,40(sp)
80403e60:	8fb10024 	lw	s1,36(sp)
80403e64:	8fb00020 	lw	s0,32(sp)
80403e68:	03e00008 	jr	ra
80403e6c:	27bd0038 	addiu	sp,sp,56

80403e70 <flash_sector_erase_int>:
80403e70:	8f8280b4 	lw	v0,-32588(gp)
80403e74:	10400004 	beqz	v0,80403e88 <flash_sector_erase_int+0x18>
80403e78:	3084ffff 	andi	a0,a0,0xffff
80403e7c:	8c590020 	lw	t9,32(v0)
80403e80:	03200008 	jr	t9
80403e84:	00000000 	nop
80403e88:	03e00008 	jr	ra
80403e8c:	2402ffff 	li	v0,-1

80403e90 <flash_read_buf>:
80403e90:	8f8280b4 	lw	v0,-32588(gp)
80403e94:	10400004 	beqz	v0,80403ea8 <flash_read_buf+0x18>
80403e98:	3084ffff 	andi	a0,a0,0xffff
80403e9c:	8c590024 	lw	t9,36(v0)
80403ea0:	03200008 	jr	t9
80403ea4:	00000000 	nop
80403ea8:	03e00008 	jr	ra
80403eac:	2402ffff 	li	v0,-1

80403eb0 <flash_write_buf>:
80403eb0:	8f8280b4 	lw	v0,-32588(gp)
80403eb4:	10400004 	beqz	v0,80403ec8 <flash_write_buf+0x18>
80403eb8:	3084ffff 	andi	a0,a0,0xffff
80403ebc:	8c590028 	lw	t9,40(v0)
80403ec0:	03200008 	jr	t9
80403ec4:	00000000 	nop
80403ec8:	03e00008 	jr	ra
80403ecc:	2402ffff 	li	v0,-1

80403ed0 <flash_get_numsectors>:
80403ed0:	8f8380b4 	lw	v1,-32588(gp)
80403ed4:	10600004 	beqz	v1,80403ee8 <flash_get_numsectors+0x18>
80403ed8:	2402ffff 	li	v0,-1
80403edc:	8c79002c 	lw	t9,44(v1)
80403ee0:	03200008 	jr	t9
80403ee4:	00000000 	nop
80403ee8:	03e00008 	jr	ra
80403eec:	00000000 	nop

80403ef0 <flash_get_sector_size>:
80403ef0:	8f8280b4 	lw	v0,-32588(gp)
80403ef4:	10400004 	beqz	v0,80403f08 <flash_get_sector_size+0x18>
80403ef8:	3084ffff 	andi	a0,a0,0xffff
80403efc:	8c590030 	lw	t9,48(v0)
80403f00:	03200008 	jr	t9
80403f04:	00000000 	nop
80403f08:	03e00008 	jr	ra
80403f0c:	2402ffff 	li	v0,-1

80403f10 <flash_get_memptr>:
80403f10:	8f8280b4 	lw	v0,-32588(gp)
80403f14:	10400004 	beqz	v0,80403f28 <flash_get_memptr+0x18>
80403f18:	3084ffff 	andi	a0,a0,0xffff
80403f1c:	8c590034 	lw	t9,52(v0)
80403f20:	03200008 	jr	t9
80403f24:	00000000 	nop
80403f28:	03e00008 	jr	ra
80403f2c:	00001021 	move	v0,zero

80403f30 <flash_get_blk>:
80403f30:	8f8380b4 	lw	v1,-32588(gp)
80403f34:	10600004 	beqz	v1,80403f48 <flash_get_blk+0x18>
80403f38:	2402ffff 	li	v0,-1
80403f3c:	8c790038 	lw	t9,56(v1)
80403f40:	03200008 	jr	t9
80403f44:	00000000 	nop
80403f48:	03e00008 	jr	ra
80403f4c:	00000000 	nop

80403f50 <flash_get_total_memory_mapped_size>:
80403f50:	8f8380b4 	lw	v1,-32588(gp)
80403f54:	10600004 	beqz	v1,80403f68 <flash_get_total_memory_mapped_size+0x18>
80403f58:	2402ffff 	li	v0,-1
80403f5c:	8c790040 	lw	t9,64(v1)
80403f60:	03200008 	jr	t9
80403f64:	00000000 	nop
80403f68:	03e00008 	jr	ra
80403f6c:	00000000 	nop

80403f70 <board_earlyinit>:
80403f70:	03e00008 	jr	ra
80403f74:	00000000 	nop

80403f78 <board_draminfo>:
80403f78:	03e00008 	jr	ra
80403f7c:	00000000 	nop

80403f80 <board_draminit>:
80403f80:	03e00008 	jr	ra
80403f84:	00000000 	nop

80403f88 <board_setleds>:
80403f88:	03e00008 	jr	ra
80403f8c:	00000000 	nop

80403f90 <bcmcore_tp1_switch>:
80403f90:	03e00008 	jr	ra
80403f94:	00000000 	nop

80403f98 <board_console_init>:
80403f98:	27bdffe8 	addiu	sp,sp,-24
80403f9c:	3c048042 	lui	a0,0x8042
80403fa0:	afbf0010 	sw	ra,16(sp)
80403fa4:	248495b4 	addiu	a0,a0,-27212
80403fa8:	8c820010 	lw	v0,16(a0)
80403fac:	00002821 	move	a1,zero
80403fb0:	00003021 	move	a2,zero
80403fb4:	0040f809 	jalr	v0
80403fb8:	00003821 	move	a3,zero
80403fbc:	3c048042 	lui	a0,0x8042
80403fc0:	8fbf0010 	lw	ra,16(sp)
80403fc4:	2484a318 	addiu	a0,a0,-23784
80403fc8:	08103af0 	j	8040ebc0 <cfe_set_console>
80403fcc:	27bd0018 	addiu	sp,sp,24

80403fd0 <setLedOn>:
80403fd0:	3084ffff 	andi	a0,a0,0xffff
80403fd4:	3087003f 	andi	a3,a0,0x3f
80403fd8:	28e20020 	slti	v0,a3,32
80403fdc:	000443c2 	srl	t0,a0,0xf
80403fe0:	10400004 	beqz	v0,80403ff4 <setLedOn+0x24>
80403fe4:	00003021 	move	a2,zero
80403fe8:	3083001f 	andi	v1,a0,0x1f
80403fec:	24020001 	li	v0,1
80403ff0:	00623004 	sllv	a2,v0,v1
80403ff4:	308200ff 	andi	v0,a0,0xff
80403ff8:	3c03fffe 	lui	v1,0xfffe
80403ffc:	28420020 	slti	v0,v0,32
80404000:	3465040c 	ori	a1,v1,0x40c
80404004:	1440000a 	bnez	v0,80404030 <setLedOn+0x60>
80404008:	34630404 	ori	v1,v1,0x404
8040400c:	28e20020 	slti	v0,a3,32
80404010:	14400004 	bnez	v0,80404024 <setLedOn+0x54>
80404014:	00003021 	move	a2,zero
80404018:	30830007 	andi	v1,a0,0x7
8040401c:	24020001 	li	v0,1
80404020:	00623004 	sllv	a2,v0,v1
80404024:	3c02fffe 	lui	v0,0xfffe
80404028:	34450408 	ori	a1,v0,0x408
8040402c:	34430400 	ori	v1,v0,0x400
80404030:	00041382 	srl	v0,a0,0xe
80404034:	30420001 	andi	v0,v0,0x1
80404038:	14400004 	bnez	v0,8040404c <setLedOn+0x7c>
8040403c:	00000000 	nop
80404040:	8c620000 	lw	v0,0(v1)
80404044:	00461025 	or	v0,v0,a2
80404048:	ac620000 	sw	v0,0(v1)
8040404c:	11000005 	beqz	t0,80404064 <setLedOn+0x94>
80404050:	00000000 	nop
80404054:	8ca20000 	lw	v0,0(a1)
80404058:	00061827 	nor	v1,zero,a2
8040405c:	0810101b 	j	8040406c <setLedOn+0x9c>
80404060:	00431024 	and	v0,v0,v1
80404064:	8ca20000 	lw	v0,0(a1)
80404068:	00461025 	or	v0,v0,a2
8040406c:	aca20000 	sw	v0,0(a1)
80404070:	03e00008 	jr	ra
80404074:	00000000 	nop

80404078 <setLedOff>:
80404078:	3084ffff 	andi	a0,a0,0xffff
8040407c:	3087003f 	andi	a3,a0,0x3f
80404080:	28e20020 	slti	v0,a3,32
80404084:	000443c2 	srl	t0,a0,0xf
80404088:	10400004 	beqz	v0,8040409c <setLedOff+0x24>
8040408c:	00003021 	move	a2,zero
80404090:	3083001f 	andi	v1,a0,0x1f
80404094:	24020001 	li	v0,1
80404098:	00623004 	sllv	a2,v0,v1
8040409c:	308200ff 	andi	v0,a0,0xff
804040a0:	3c03fffe 	lui	v1,0xfffe
804040a4:	28420020 	slti	v0,v0,32
804040a8:	3465040c 	ori	a1,v1,0x40c
804040ac:	1440000a 	bnez	v0,804040d8 <setLedOff+0x60>
804040b0:	34630404 	ori	v1,v1,0x404
804040b4:	28e20020 	slti	v0,a3,32
804040b8:	14400004 	bnez	v0,804040cc <setLedOff+0x54>
804040bc:	00003021 	move	a2,zero
804040c0:	30830007 	andi	v1,a0,0x7
804040c4:	24020001 	li	v0,1
804040c8:	00623004 	sllv	a2,v0,v1
804040cc:	3c02fffe 	lui	v0,0xfffe
804040d0:	34450408 	ori	a1,v0,0x408
804040d4:	34430400 	ori	v1,v0,0x400
804040d8:	00041382 	srl	v0,a0,0xe
804040dc:	30420001 	andi	v0,v0,0x1
804040e0:	14400004 	bnez	v0,804040f4 <setLedOff+0x7c>
804040e4:	00000000 	nop
804040e8:	8c620000 	lw	v0,0(v1)
804040ec:	00461025 	or	v0,v0,a2
804040f0:	ac620000 	sw	v0,0(v1)
804040f4:	11000004 	beqz	t0,80404108 <setLedOff+0x90>
804040f8:	00000000 	nop
804040fc:	8ca20000 	lw	v0,0(a1)
80404100:	08101045 	j	80404114 <setLedOff+0x9c>
80404104:	00461025 	or	v0,v0,a2
80404108:	8ca20000 	lw	v0,0(a1)
8040410c:	00061827 	nor	v1,zero,a2
80404110:	00431024 	and	v0,v0,v1
80404114:	aca20000 	sw	v0,0(a1)
80404118:	03e00008 	jr	ra
8040411c:	00000000 	nop

80404120 <checkForResetHold>:
80404120:	3084ffff 	andi	a0,a0,0xffff
80404124:	3085003f 	andi	a1,a0,0x3f
80404128:	27bdffd0 	addiu	sp,sp,-48
8040412c:	28a20020 	slti	v0,a1,32
80404130:	afb40028 	sw	s4,40(sp)
80404134:	afb30024 	sw	s3,36(sp)
80404138:	afb1001c 	sw	s1,28(sp)
8040413c:	afbf002c 	sw	ra,44(sp)
80404140:	afb20020 	sw	s2,32(sp)
80404144:	afb00018 	sw	s0,24(sp)
80404148:	a7a00010 	sh	zero,16(sp)
8040414c:	00009821 	move	s3,zero
80404150:	0000a021 	move	s4,zero
80404154:	10400004 	beqz	v0,80404168 <checkForResetHold+0x48>
80404158:	00008821 	move	s1,zero
8040415c:	3083001f 	andi	v1,a0,0x1f
80404160:	24020001 	li	v0,1
80404164:	00628804 	sllv	s1,v0,v1
80404168:	308200ff 	andi	v0,a0,0xff
8040416c:	3c03fffe 	lui	v1,0xfffe
80404170:	28420020 	slti	v0,v0,32
80404174:	14400009 	bnez	v0,8040419c <checkForResetHold+0x7c>
80404178:	3472040c 	ori	s2,v1,0x40c
8040417c:	28a20020 	slti	v0,a1,32
80404180:	14400004 	bnez	v0,80404194 <checkForResetHold+0x74>
80404184:	00008821 	move	s1,zero
80404188:	30830007 	andi	v1,a0,0x7
8040418c:	24020001 	li	v0,1
80404190:	00628804 	sllv	s1,v0,v1
80404194:	3c02fffe 	lui	v0,0xfffe
80404198:	34520408 	ori	s2,v0,0x408
8040419c:	8e420000 	lw	v0,0(s2)
804041a0:	00511024 	and	v0,v0,s1
804041a4:	1440002b 	bnez	v0,80404254 <checkForResetHold+0x134>
804041a8:	00008021 	move	s0,zero
804041ac:	24020003 	li	v0,3
804041b0:	1602000a 	bne	s0,v0,804041dc <checkForResetHold+0xbc>
804041b4:	27a40010 	addiu	a0,sp,16
804041b8:	0c102892 	jal	8040a248 <BpGetBootloaderResetCfgLedGpio>
804041bc:	24140001 	li	s4,1
804041c0:	14400003 	bnez	v0,804041d0 <checkForResetHold+0xb0>
804041c4:	00000000 	nop
804041c8:	0c100ff4 	jal	80403fd0 <setLedOn>
804041cc:	97a40010 	lhu	a0,16(sp)
804041d0:	3c048042 	lui	a0,0x8042
804041d4:	0c10331a 	jal	8040cc68 <xprintf>
804041d8:	2484a320 	addiu	a0,a0,-23776
804041dc:	3c048042 	lui	a0,0x8042
804041e0:	24020012 	li	v0,18
804041e4:	16020003 	bne	s0,v0,804041f4 <checkForResetHold+0xd4>
804041e8:	2484a350 	addiu	a0,a0,-23728
804041ec:	0c10331a 	jal	8040cc68 <xprintf>
804041f0:	24130001 	li	s3,1
804041f4:	0c101f96 	jal	80407e58 <AlertLed_On>
804041f8:	00000000 	nop
804041fc:	0c103be1 	jal	8040ef84 <cfe_sleep>
80404200:	24040005 	li	a0,5
80404204:	0c101fa2 	jal	80407e88 <AlertLed_Off>
80404208:	00000000 	nop
8040420c:	0c103be1 	jal	8040ef84 <cfe_sleep>
80404210:	24040005 	li	a0,5
80404214:	8e420000 	lw	v0,0(s2)
80404218:	00511024 	and	v0,v0,s1
8040421c:	1040ffe3 	beqz	v0,804041ac <checkForResetHold+0x8c>
80404220:	26100001 	addiu	s0,s0,1
80404224:	1280000c 	beqz	s4,80404258 <checkForResetHold+0x138>
80404228:	02601021 	move	v0,s3
8040422c:	0c100e18 	jal	80403860 <kerSysErasePsi>
80404230:	02602021 	move	a0,s3
80404234:	0c101d0c 	jal	80407430 <bootLineChanged>
80404238:	00000000 	nop
8040423c:	10400006 	beqz	v0,80404258 <checkForResetHold+0x138>
80404240:	02601021 	move	v0,s3
80404244:	0c103be1 	jal	8040ef84 <cfe_sleep>
80404248:	2404000a 	li	a0,10
8040424c:	0c101267 	jal	8040499c <setDefaultBootline>
80404250:	00000000 	nop
80404254:	02601021 	move	v0,s3
80404258:	8fbf002c 	lw	ra,44(sp)
8040425c:	8fb40028 	lw	s4,40(sp)
80404260:	8fb30024 	lw	s3,36(sp)
80404264:	8fb20020 	lw	s2,32(sp)
80404268:	8fb1001c 	lw	s1,28(sp)
8040426c:	8fb00018 	lw	s0,24(sp)
80404270:	03e00008 	jr	ra
80404274:	27bd0030 	addiu	sp,sp,48

80404278 <board_final_init>:
80404278:	27bdffe0 	addiu	sp,sp,-32
8040427c:	27a40010 	addiu	a0,sp,16
80404280:	afb00018 	sw	s0,24(sp)
80404284:	afbf001c 	sw	ra,28(sp)
80404288:	0c102892 	jal	8040a248 <BpGetBootloaderResetCfgLedGpio>
8040428c:	00008021 	move	s0,zero
80404290:	14400003 	bnez	v0,804042a0 <board_final_init+0x28>
80404294:	00000000 	nop
80404298:	0c10101e 	jal	80404078 <setLedOff>
8040429c:	97a40010 	lhu	a0,16(sp)
804042a0:	0c1028a1 	jal	8040a284 <BpGetBootloaderStopLedGpio>
804042a4:	27a40010 	addiu	a0,sp,16
804042a8:	14400003 	bnez	v0,804042b8 <board_final_init+0x40>
804042ac:	00000000 	nop
804042b0:	0c10101e 	jal	80404078 <setLedOff>
804042b4:	97a40010 	lhu	a0,16(sp)
804042b8:	0c102773 	jal	80409dcc <BpGetPressAndHoldResetGpio>
804042bc:	27a40010 	addiu	a0,sp,16
804042c0:	14400008 	bnez	v0,804042e4 <board_final_init+0x6c>
804042c4:	00000000 	nop
804042c8:	0c101048 	jal	80404120 <checkForResetHold>
804042cc:	97a40010 	lhu	a0,16(sp)
804042d0:	00408021 	move	s0,v0
804042d4:	10400003 	beqz	v0,804042e4 <board_final_init+0x6c>
804042d8:	2404000a 	li	a0,10
804042dc:	0c103be1 	jal	8040ef84 <cfe_sleep>
804042e0:	00000000 	nop
804042e4:	0c100f0e 	jal	80403c38 <getBootToCfe>
804042e8:	00000000 	nop
804042ec:	24030001 	li	v1,1
804042f0:	14430003 	bne	v0,v1,80404300 <board_final_init+0x88>
804042f4:	00002021 	move	a0,zero
804042f8:	0c100e18 	jal	80403860 <kerSysErasePsi>
804042fc:	24100001 	li	s0,1
80404300:	0c101633 	jal	804058cc <bcm63xx_run>
80404304:	02002021 	move	a0,s0
80404308:	8fbf001c 	lw	ra,28(sp)
8040430c:	8fb00018 	lw	s0,24(sp)
80404310:	03e00008 	jr	ra
80404314:	27bd0020 	addiu	sp,sp,32

80404318 <setBreakIntoCfeLed>:
80404318:	27bdffe0 	addiu	sp,sp,-32
8040431c:	afbf0018 	sw	ra,24(sp)
80404320:	0c1028a1 	jal	8040a284 <BpGetBootloaderStopLedGpio>
80404324:	27a40010 	addiu	a0,sp,16
80404328:	14400009 	bnez	v0,80404350 <setBreakIntoCfeLed+0x38>
8040432c:	00000000 	nop
80404330:	0c100ff4 	jal	80403fd0 <setLedOn>
80404334:	97a40010 	lhu	a0,16(sp)
80404338:	0c102883 	jal	8040a20c <BpGetBootloaderPowerOnLedGpio>
8040433c:	27a40010 	addiu	a0,sp,16
80404340:	14400003 	bnez	v0,80404350 <setBreakIntoCfeLed+0x38>
80404344:	00000000 	nop
80404348:	0c10101e 	jal	80404078 <setLedOff>
8040434c:	97a40010 	lhu	a0,16(sp)
80404350:	0c101f96 	jal	80407e58 <AlertLed_On>
80404354:	00000000 	nop
80404358:	8fbf0018 	lw	ra,24(sp)
8040435c:	03e00008 	jr	ra
80404360:	27bd0020 	addiu	sp,sp,32

80404364 <setPowerOnLedOn>:
80404364:	27bdffe0 	addiu	sp,sp,-32
80404368:	afbf0018 	sw	ra,24(sp)
8040436c:	0c1028a1 	jal	8040a284 <BpGetBootloaderStopLedGpio>
80404370:	27a40010 	addiu	a0,sp,16
80404374:	14400003 	bnez	v0,80404384 <setPowerOnLedOn+0x20>
80404378:	00000000 	nop
8040437c:	0c10101e 	jal	80404078 <setLedOff>
80404380:	97a40010 	lhu	a0,16(sp)
80404384:	0c102883 	jal	8040a20c <BpGetBootloaderPowerOnLedGpio>
80404388:	27a40010 	addiu	a0,sp,16
8040438c:	14400004 	bnez	v0,804043a0 <setPowerOnLedOn+0x3c>
80404390:	8fbf0018 	lw	ra,24(sp)
80404394:	0c100ff4 	jal	80403fd0 <setLedOn>
80404398:	97a40010 	lhu	a0,16(sp)
8040439c:	8fbf0018 	lw	ra,24(sp)
804043a0:	03e00008 	jr	ra
804043a4:	27bd0020 	addiu	sp,sp,32

804043a8 <board_device_init>:
804043a8:	27bdffe0 	addiu	sp,sp,-32
804043ac:	afbf0018 	sw	ra,24(sp)
804043b0:	0c100cf3 	jal	804033cc <kerSysFlashInit>
804043b4:	00000000 	nop
804043b8:	3c048042 	lui	a0,0x8042
804043bc:	2484956c 	addiu	a0,a0,-27284
804043c0:	8c820010 	lw	v0,16(a0)
804043c4:	00002821 	move	a1,zero
804043c8:	00003021 	move	a2,zero
804043cc:	0040f809 	jalr	v0
804043d0:	00003821 	move	a3,zero
804043d4:	0c1010d9 	jal	80404364 <setPowerOnLedOn>
804043d8:	00000000 	nop
804043dc:	3c04fffe 	lui	a0,0xfffe
804043e0:	34840400 	ori	a0,a0,0x400
804043e4:	8c820010 	lw	v0,16(a0)
804043e8:	2403f0ff 	li	v1,-3841
804043ec:	00431024 	and	v0,v0,v1
804043f0:	ac820010 	sw	v0,16(a0)
804043f4:	8c820010 	lw	v0,16(a0)
804043f8:	34420300 	ori	v0,v0,0x300
804043fc:	ac820010 	sw	v0,16(a0)
80404400:	0c101d20 	jal	80407480 <runFromFlash>
80404404:	00000000 	nop
80404408:	10400013 	beqz	v0,80404458 <board_device_init+0xb0>
8040440c:	8fbf0018 	lw	ra,24(sp)
80404410:	0c101b78 	jal	80406de0 <getBootImageTag>
80404414:	00000000 	nop
80404418:	3c048042 	lui	a0,0x8042
8040441c:	1440000d 	bnez	v0,80404454 <board_device_init+0xac>
80404420:	2484a374 	addiu	a0,a0,-23692
80404424:	0c10331a 	jal	8040cc68 <xprintf>
80404428:	00000000 	nop
8040442c:	0c100e18 	jal	80403860 <kerSysErasePsi>
80404430:	24040001 	li	a0,1
80404434:	0c102892 	jal	8040a248 <BpGetBootloaderResetCfgLedGpio>
80404438:	27a40010 	addiu	a0,sp,16
8040443c:	14400003 	bnez	v0,8040444c <board_device_init+0xa4>
80404440:	00000000 	nop
80404444:	0c100ff4 	jal	80403fd0 <setLedOn>
80404448:	97a40010 	lhu	a0,16(sp)
8040444c:	0c1010c6 	jal	80404318 <setBreakIntoCfeLed>
80404450:	00000000 	nop
80404454:	8fbf0018 	lw	ra,24(sp)
80404458:	03e00008 	jr	ra
8040445c:	27bd0020 	addiu	sp,sp,32

80404460 <kerSysMipsSoftReset>:
80404460:	3c05fffe 	lui	a1,0xfffe
80404464:	8ca30000 	lw	v1,0(a1)
80404468:	3c026348 	lui	v0,0x6348
8040446c:	344200a1 	ori	v0,v0,0xa1
80404470:	14620016 	bne	v1,v0,804044cc <kerSysMipsSoftReset+0x6c>
80404474:	34a22000 	ori	v0,a1,0x2000
80404478:	8c440000 	lw	a0,0(v0)
8040447c:	8ca30028 	lw	v1,40(a1)
80404480:	2402ff00 	li	v0,-256
80404484:	00822024 	and	a0,a0,v0
80404488:	2402fa02 	li	v0,-1534
8040448c:	00621824 	and	v1,v1,v0
80404490:	3c02a000 	lui	v0,0xa000
80404494:	0082c825 	or	t9,a0,v0
80404498:	3c02000f 	lui	v0,0xf
8040449c:	3442423f 	ori	v0,v0,0x423f
804044a0:	aca30028 	sw	v1,40(a1)
804044a4:	24420001 	addiu	v0,v0,1
804044a8:	2442ffff 	addiu	v0,v0,-1
804044ac:	1440ffff 	bnez	v0,804044ac <kerSysMipsSoftReset+0x4c>
804044b0:	2442ffff 	addiu	v0,v0,-1
804044b4:	3c03fffe 	lui	v1,0xfffe
804044b8:	8c620028 	lw	v0,40(v1)
804044bc:	344205fd 	ori	v0,v0,0x5fd
804044c0:	ac620028 	sw	v0,40(v1)
804044c4:	03200008 	jr	t9
804044c8:	00000000 	nop
804044cc:	8ca20008 	lw	v0,8(a1)
804044d0:	34420001 	ori	v0,v0,0x1
804044d4:	aca20008 	sw	v0,8(a1)
804044d8:	03e00008 	jr	ra
804044dc:	00000000 	nop

804044e0 <getBoardParam>:
804044e0:	8f8280b8 	lw	v0,-32584(gp)
804044e4:	27bdffc8 	addiu	sp,sp,-56
804044e8:	afbf0034 	sw	ra,52(sp)
804044ec:	afb40030 	sw	s4,48(sp)
804044f0:	afb3002c 	sw	s3,44(sp)
804044f4:	afb20028 	sw	s2,40(sp)
804044f8:	afb10024 	sw	s1,36(sp)
804044fc:	14400006 	bnez	v0,80404518 <getBoardParam+0x38>
80404500:	afb00020 	sw	s0,32(sp)
80404504:	3c048042 	lui	a0,0x8042
80404508:	2484e508 	addiu	a0,a0,-6904
8040450c:	0c102709 	jal	80409c24 <BpGetBoardIds>
80404510:	24050010 	li	a1,16
80404514:	af8280b8 	sw	v0,-32584(gp)
80404518:	3c138042 	lui	s3,0x8042
8040451c:	2664c55e 	addiu	a0,s3,-15010
80404520:	00002821 	move	a1,zero
80404524:	0c103468 	jal	8040d1a0 <lib_memset>
80404528:	24060010 	li	a2,16
8040452c:	3c048042 	lui	a0,0x8042
80404530:	2484a644 	addiu	a0,a0,-22972
80404534:	0c1033bf 	jal	8040cefc <lib_strlen>
80404538:	3c148042 	lui	s4,0x8042
8040453c:	8e83c554 	lw	v1,-15020(s4)
80404540:	00628021 	addu	s0,v1,v0
80404544:	3c028042 	lui	v0,0x8042
80404548:	2451e508 	addiu	s1,v0,-6904
8040454c:	8f8280b8 	lw	v0,-32584(gp)
80404550:	18400019 	blez	v0,804045b8 <getBoardParam+0xd8>
80404554:	00009021 	move	s2,zero
80404558:	0c1033bf 	jal	8040cefc <lib_strlen>
8040455c:	02202021 	move	a0,s1
80404560:	00403021 	move	a2,v0
80404564:	02002021 	move	a0,s0
80404568:	0c10345e 	jal	8040d178 <lib_memcpy>
8040456c:	02202821 	move	a1,s1
80404570:	3c048042 	lui	a0,0x8042
80404574:	02202821 	move	a1,s1
80404578:	0c1033c8 	jal	8040cf20 <lib_strcmp>
8040457c:	24842bb4 	addiu	a0,a0,11188
80404580:	3c058042 	lui	a1,0x8042
80404584:	02403021 	move	a2,s2
80404588:	2610001c 	addiu	s0,s0,28
8040458c:	26310010 	addiu	s1,s1,16
80404590:	24a5a65c 	addiu	a1,a1,-22948
80404594:	26520001 	addiu	s2,s2,1
80404598:	14400003 	bnez	v0,804045a8 <getBoardParam+0xc8>
8040459c:	2664c55e 	addiu	a0,s3,-15010
804045a0:	0c103311 	jal	8040cc44 <xsprintf>
804045a4:	00000000 	nop
804045a8:	8f8280b8 	lw	v0,-32584(gp)
804045ac:	0242102a 	slt	v0,s2,v0
804045b0:	1440ffe9 	bnez	v0,80404558 <getBoardParam+0x78>
804045b4:	00000000 	nop
804045b8:	3c058042 	lui	a1,0x8042
804045bc:	2604ffff 	addiu	a0,s0,-1
804045c0:	0c10338e 	jal	8040ce38 <lib_strcpy>
804045c4:	24a5a660 	addiu	a1,a1,-22944
804045c8:	8f8680b8 	lw	a2,-32584(gp)
804045cc:	3c058042 	lui	a1,0x8042
804045d0:	24a5a66c 	addiu	a1,a1,-22932
804045d4:	24c6ffff 	addiu	a2,a2,-1
804045d8:	0c103311 	jal	8040cc44 <xsprintf>
804045dc:	27a40010 	addiu	a0,sp,16
804045e0:	3c048042 	lui	a0,0x8042
804045e4:	0c1033bf 	jal	8040cefc <lib_strlen>
804045e8:	2484a670 	addiu	a0,a0,-22928
804045ec:	8e90c554 	lw	s0,-15020(s4)
804045f0:	27a40010 	addiu	a0,sp,16
804045f4:	2411ffff 	li	s1,-1
804045f8:	0c1033bf 	jal	8040cefc <lib_strlen>
804045fc:	02028021 	addu	s0,s0,v0
80404600:	00403021 	move	a2,v0
80404604:	02002021 	move	a0,s0
80404608:	0c10345e 	jal	8040d178 <lib_memcpy>
8040460c:	27a50010 	addiu	a1,sp,16
80404610:	3c028042 	lui	v0,0x8042
80404614:	24502ab0 	addiu	s0,v0,10928
80404618:	8e02011c 	lw	v0,284(s0)
8040461c:	14510002 	bne	v0,s1,80404628 <getBoardParam+0x148>
80404620:	00000000 	nop
80404624:	ae00011c 	sw	zero,284(s0)
80404628:	8e06011c 	lw	a2,284(s0)
8040462c:	3c048042 	lui	a0,0x8042
80404630:	3c058042 	lui	a1,0x8042
80404634:	24a5a65c 	addiu	a1,a1,-22948
80404638:	0c103311 	jal	8040cc44 <xsprintf>
8040463c:	2484c5a6 	addiu	a0,a0,-14938
80404640:	8e020120 	lw	v0,288(s0)
80404644:	14510007 	bne	v0,s1,80404664 <getBoardParam+0x184>
80404648:	3c058042 	lui	a1,0x8042
8040464c:	24a4c5ee 	addiu	a0,a1,-14866
80404650:	24060006 	li	a2,6
80404654:	0c103468 	jal	8040d1a0 <lib_memset>
80404658:	00002821 	move	a1,zero
8040465c:	0810119e 	j	80404678 <getBoardParam+0x198>
80404660:	8fbf0034 	lw	ra,52(sp)
80404664:	3c048042 	lui	a0,0x8042
80404668:	24842bd0 	addiu	a0,a0,11216
8040466c:	0c101835 	jal	804060d4 <macNumToStr>
80404670:	24a5c5ee 	addiu	a1,a1,-14866
80404674:	8fbf0034 	lw	ra,52(sp)
80404678:	8fb40030 	lw	s4,48(sp)
8040467c:	8fb3002c 	lw	s3,44(sp)
80404680:	8fb20028 	lw	s2,40(sp)
80404684:	8fb10024 	lw	s1,36(sp)
80404688:	8fb00020 	lw	s0,32(sp)
8040468c:	03e00008 	jr	ra
80404690:	27bd0038 	addiu	sp,sp,56

80404694 <setBoardParam>:
80404694:	3c038042 	lui	v1,0x8042
80404698:	8c62c554 	lw	v0,-15020(v1)
8040469c:	27bdffd8 	addiu	sp,sp,-40
804046a0:	afb1001c 	sw	s1,28(sp)
804046a4:	afb00018 	sw	s0,24(sp)
804046a8:	afbf0020 	sw	ra,32(sp)
804046ac:	00008821 	move	s1,zero
804046b0:	2470c554 	addiu	s0,v1,-15020
804046b4:	10400004 	beqz	v0,804046c8 <setBoardParam+0x34>
804046b8:	26100048 	addiu	s0,s0,72
804046bc:	8e020000 	lw	v0,0(s0)
804046c0:	081011ad 	j	804046b4 <setBoardParam+0x20>
804046c4:	26310001 	addiu	s1,s1,1
804046c8:	0c101138 	jal	804044e0 <getBoardParam>
804046cc:	2470c554 	addiu	s0,v1,-15020
804046d0:	02002021 	move	a0,s0
804046d4:	0c1019f1 	jal	804067c4 <processPrompt>
804046d8:	02202821 	move	a1,s1
804046dc:	1040002f 	beqz	v0,8040479c <setBoardParam+0x108>
804046e0:	8fbf0020 	lw	ra,32(sp)
804046e4:	3c048042 	lui	a0,0x8042
804046e8:	0c1034f6 	jal	8040d3d8 <lib_atoi>
804046ec:	2484c55e 	addiu	a0,a0,-15010
804046f0:	3c058042 	lui	a1,0x8042
804046f4:	00021100 	sll	v0,v0,0x4
804046f8:	3c118042 	lui	s1,0x8042
804046fc:	24a5e508 	addiu	a1,a1,-6904
80404700:	00452821 	addu	a1,v0,a1
80404704:	0c10338e 	jal	8040ce38 <lib_strcpy>
80404708:	26242bb4 	addiu	a0,s1,11188
8040470c:	3c048042 	lui	a0,0x8042
80404710:	2484c5a6 	addiu	a0,a0,-14938
80404714:	3c108042 	lui	s0,0x8042
80404718:	24020002 	li	v0,2
8040471c:	0c1034f6 	jal	8040d3d8 <lib_atoi>
80404720:	ae022ab0 	sw	v0,10928(s0)
80404724:	26102ab0 	addiu	s0,s0,10928
80404728:	3c058042 	lui	a1,0x8042
8040472c:	3c048042 	lui	a0,0x8042
80404730:	24a52bd0 	addiu	a1,a1,11216
80404734:	2484c5ee 	addiu	a0,a0,-14866
80404738:	0c1017a4 	jal	80405e90 <parsehwaddr>
8040473c:	ae02011c 	sw	v0,284(s0)
80404740:	0c1026db 	jal	80409b6c <BpSetBoardId>
80404744:	26242bb4 	addiu	a0,s1,11188
80404748:	0c102748 	jal	80409d20 <BpGetSdramSize>
8040474c:	27a40010 	addiu	a0,sp,16
80404750:	0c100d87 	jal	8040361c <kerSysMemoryTypeSet>
80404754:	8fa40010 	lw	a0,16(sp)
80404758:	0c10292d 	jal	8040a4b4 <BpGetCMTThread>
8040475c:	27a40014 	addiu	a0,sp,20
80404760:	0c100e4c 	jal	80403930 <kerSysThreadNumSet>
80404764:	8fa40014 	lw	a0,20(sp)
80404768:	0c101a90 	jal	80406a40 <writeNvramData>
8040476c:	00000000 	nop
80404770:	3c048042 	lui	a0,0x8042
80404774:	0c10331a 	jal	8040cc68 <xprintf>
80404778:	2484a684 	addiu	a0,a0,-22908
8040477c:	0c103a30 	jal	8040e8c0 <console_status>
80404780:	00000000 	nop
80404784:	1040fffd 	beqz	v0,8040477c <setBoardParam+0xe8>
80404788:	00000000 	nop
8040478c:	0c101118 	jal	80404460 <kerSysMipsSoftReset>
80404790:	00000000 	nop
80404794:	081011df 	j	8040477c <setBoardParam+0xe8>
80404798:	00000000 	nop
8040479c:	8fb1001c 	lw	s1,28(sp)
804047a0:	8fb00018 	lw	s0,24(sp)
804047a4:	00001021 	move	v0,zero
804047a8:	03e00008 	jr	ra
804047ac:	27bd0028 	addiu	sp,sp,40

804047b0 <displayBoardParam>:
804047b0:	3c028042 	lui	v0,0x8042
804047b4:	27bdff98 	addiu	sp,sp,-104
804047b8:	2446a6a8 	addiu	a2,v0,-22872
804047bc:	afbf0060 	sw	ra,96(sp)
804047c0:	afb1005c 	sw	s1,92(sp)
804047c4:	afb00058 	sw	s0,88(sp)
804047c8:	27a70010 	addiu	a3,sp,16
804047cc:	24c80020 	addiu	t0,a2,32
804047d0:	8cc20000 	lw	v0,0(a2)
804047d4:	8cc30004 	lw	v1,4(a2)
804047d8:	8cc40008 	lw	a0,8(a2)
804047dc:	8cc5000c 	lw	a1,12(a2)
804047e0:	24c60010 	addiu	a2,a2,16
804047e4:	ace20000 	sw	v0,0(a3)
804047e8:	ace30004 	sw	v1,4(a3)
804047ec:	ace40008 	sw	a0,8(a3)
804047f0:	ace5000c 	sw	a1,12(a3)
804047f4:	14c8fff6 	bne	a2,t0,804047d0 <displayBoardParam+0x20>
804047f8:	24e70010 	addiu	a3,a3,16
804047fc:	8cc20000 	lw	v0,0(a2)
80404800:	3c118042 	lui	s1,0x8042
80404804:	0c101138 	jal	804044e0 <getBoardParam>
80404808:	ace20000 	sw	v0,0(a3)
8040480c:	3c068042 	lui	a2,0x8042
80404810:	2624a6cc 	addiu	a0,s1,-22836
80404814:	24c62bb4 	addiu	a2,a2,11188
80404818:	0c10331a 	jal	8040cc68 <xprintf>
8040481c:	27a50010 	addiu	a1,sp,16
80404820:	0c102753 	jal	80409d4c <BpGetPsiSize>
80404824:	27a40050 	addiu	a0,sp,80
80404828:	14400006 	bnez	v0,80404844 <displayBoardParam+0x94>
8040482c:	3c108042 	lui	s0,0x8042
80404830:	8fa50050 	lw	a1,80(sp)
80404834:	3c048042 	lui	a0,0x8042
80404838:	0c10331a 	jal	8040cc68 <xprintf>
8040483c:	2484a6d8 	addiu	a0,a0,-22824
80404840:	3c108042 	lui	s0,0x8042
80404844:	2610c554 	addiu	s0,s0,-15020
80404848:	8e050048 	lw	a1,72(s0)
8040484c:	3c068042 	lui	a2,0x8042
80404850:	24c6c5a6 	addiu	a2,a2,-14938
80404854:	0c10331a 	jal	8040cc68 <xprintf>
80404858:	2624a6cc 	addiu	a0,s1,-22836
8040485c:	8e050090 	lw	a1,144(s0)
80404860:	3c068042 	lui	a2,0x8042
80404864:	2624a6cc 	addiu	a0,s1,-22836
80404868:	0c10331a 	jal	8040cc68 <xprintf>
8040486c:	24c6c5ee 	addiu	a2,a2,-14866
80404870:	27a40038 	addiu	a0,sp,56
80404874:	0c102721 	jal	80409c84 <BpGetEthernetMacInfo>
80404878:	24050001 	li	a1,1
8040487c:	14400018 	bnez	v0,804048e0 <displayBoardParam+0x130>
80404880:	3c048042 	lui	a0,0x8042
80404884:	0c10331a 	jal	8040cc68 <xprintf>
80404888:	2484a700 	addiu	a0,a0,-22784
8040488c:	93a30038 	lbu	v1,56(sp)
80404890:	24020002 	li	v0,2
80404894:	1062000b 	beq	v1,v0,804048c4 <displayBoardParam+0x114>
80404898:	24020003 	li	v0,3
8040489c:	1462000c 	bne	v1,v0,804048d0 <displayBoardParam+0x120>
804048a0:	97a20048 	lhu	v0,72(sp)
804048a4:	14400004 	bnez	v0,804048b8 <displayBoardParam+0x108>
804048a8:	00000000 	nop
804048ac:	3c048042 	lui	a0,0x8042
804048b0:	08101236 	j	804048d8 <displayBoardParam+0x128>
804048b4:	2484a728 	addiu	a0,a0,-22744
804048b8:	3c048042 	lui	a0,0x8042
804048bc:	08101236 	j	804048d8 <displayBoardParam+0x128>
804048c0:	2484a750 	addiu	a0,a0,-22704
804048c4:	3c048042 	lui	a0,0x8042
804048c8:	08101236 	j	804048d8 <displayBoardParam+0x128>
804048cc:	2484a774 	addiu	a0,a0,-22668
804048d0:	3c048042 	lui	a0,0x8042
804048d4:	2484a780 	addiu	a0,a0,-22656
804048d8:	0c10331a 	jal	8040cc68 <xprintf>
804048dc:	00000000 	nop
804048e0:	0c102748 	jal	80409d20 <BpGetSdramSize>
804048e4:	27a40050 	addiu	a0,sp,80
804048e8:	1440001d 	bnez	v0,80404960 <displayBoardParam+0x1b0>
804048ec:	3c048042 	lui	a0,0x8042
804048f0:	0c10331a 	jal	8040cc68 <xprintf>
804048f4:	2484a78c 	addiu	a0,a0,-22644
804048f8:	8fa30050 	lw	v1,80(sp)
804048fc:	2c620006 	sltiu	v0,v1,6
80404900:	10400013 	beqz	v0,80404950 <displayBoardParam+0x1a0>
80404904:	00031080 	sll	v0,v1,0x2
80404908:	3c038042 	lui	v1,0x8042
8040490c:	246395ec 	addiu	v1,v1,-27156
80404910:	00431021 	addu	v0,v0,v1
80404914:	8c420000 	lw	v0,0(v0)
80404918:	00400008 	jr	v0
8040491c:	00000000 	nop
80404920:	3c048042 	lui	a0,0x8042
80404924:	08101256 	j	80404958 <displayBoardParam+0x1a8>
80404928:	2484a7b4 	addiu	a0,a0,-22604
8040492c:	3c048042 	lui	a0,0x8042
80404930:	08101256 	j	80404958 <displayBoardParam+0x1a8>
80404934:	2484a7b8 	addiu	a0,a0,-22600
80404938:	3c048042 	lui	a0,0x8042
8040493c:	08101256 	j	80404958 <displayBoardParam+0x1a8>
80404940:	2484a7bc 	addiu	a0,a0,-22596
80404944:	3c048042 	lui	a0,0x8042
80404948:	08101256 	j	80404958 <displayBoardParam+0x1a8>
8040494c:	2484a7c0 	addiu	a0,a0,-22592
80404950:	3c048042 	lui	a0,0x8042
80404954:	2484a7c4 	addiu	a0,a0,-22588
80404958:	0c10331a 	jal	8040cc68 <xprintf>
8040495c:	00000000 	nop
80404960:	0c10292d 	jal	8040a4b4 <BpGetCMTThread>
80404964:	27a40050 	addiu	a0,sp,80
80404968:	14400004 	bnez	v0,8040497c <displayBoardParam+0x1cc>
8040496c:	8fa50050 	lw	a1,80(sp)
80404970:	3c048042 	lui	a0,0x8042
80404974:	0c10331a 	jal	8040cc68 <xprintf>
80404978:	2484a7dc 	addiu	a0,a0,-22564
8040497c:	3c048042 	lui	a0,0x8042
80404980:	0c10331a 	jal	8040cc68 <xprintf>
80404984:	2484a398 	addiu	a0,a0,-23656
80404988:	8fbf0060 	lw	ra,96(sp)
8040498c:	8fb1005c 	lw	s1,92(sp)
80404990:	8fb00058 	lw	s0,88(sp)
80404994:	03e00008 	jr	ra
80404998:	27bd0068 	addiu	sp,sp,104

8040499c <setDefaultBootline>:
8040499c:	27bdffe0 	addiu	sp,sp,-32
804049a0:	afb10014 	sw	s1,20(sp)
804049a4:	3c118042 	lui	s1,0x8042
804049a8:	afb00010 	sw	s0,16(sp)
804049ac:	00002821 	move	a1,zero
804049b0:	3c108042 	lui	s0,0x8042
804049b4:	24060100 	li	a2,256
804049b8:	afbf0018 	sw	ra,24(sp)
804049bc:	0c103468 	jal	8040d1a0 <lib_memset>
804049c0:	26242ab4 	addiu	a0,s1,10932
804049c4:	0c1033bf 	jal	8040cefc <lib_strlen>
804049c8:	2604a804 	addiu	a0,s0,-22524
804049cc:	00403021 	move	a2,v0
804049d0:	26242ab4 	addiu	a0,s1,10932
804049d4:	0c103399 	jal	8040ce64 <lib_strncpy>
804049d8:	2605a804 	addiu	a1,s0,-22524
804049dc:	3c048042 	lui	a0,0x8042
804049e0:	2605a804 	addiu	a1,s0,-22524
804049e4:	0c10331a 	jal	8040cc68 <xprintf>
804049e8:	2484a85c 	addiu	a0,a0,-22436
804049ec:	0c101a90 	jal	80406a40 <writeNvramData>
804049f0:	00000000 	nop
804049f4:	0c101aa2 	jal	80406a88 <readNvramData>
804049f8:	00000000 	nop
804049fc:	8fbf0018 	lw	ra,24(sp)
80404a00:	8fb10014 	lw	s1,20(sp)
80404a04:	8fb00010 	lw	s0,16(sp)
80404a08:	081019a8 	j	804066a0 <convertBootInfo>
80404a0c:	27bd0020 	addiu	sp,sp,32

80404a10 <setBoardIdName>:
80404a10:	27bdffe8 	addiu	sp,sp,-24
80404a14:	afbf0010 	sw	ra,16(sp)
80404a18:	0c101aa2 	jal	80406a88 <readNvramData>
80404a1c:	00000000 	nop
80404a20:	3c048042 	lui	a0,0x8042
80404a24:	14400004 	bnez	v0,80404a38 <setBoardIdName+0x28>
80404a28:	24842bb4 	addiu	a0,a0,11188
80404a2c:	8fbf0010 	lw	ra,16(sp)
80404a30:	081026db 	j	80409b6c <BpSetBoardId>
80404a34:	27bd0018 	addiu	sp,sp,24
80404a38:	8fbf0010 	lw	ra,16(sp)
80404a3c:	03e00008 	jr	ra
80404a40:	27bd0018 	addiu	sp,sp,24

80404a44 <getNumberBoardIdNames>:
80404a44:	03e00008 	jr	ra
80404a48:	8f8280b8 	lw	v0,-32584(gp)

80404a4c <ui_cmd_set_board_param>:
80404a4c:	081011a5 	j	80404694 <setBoardParam>
80404a50:	00000000 	nop

80404a54 <ui_cmd_reset>:
80404a54:	27bdffe8 	addiu	sp,sp,-24
80404a58:	afbf0010 	sw	ra,16(sp)
80404a5c:	0c101118 	jal	80404460 <kerSysMipsSoftReset>
80404a60:	00000000 	nop
80404a64:	8fbf0010 	lw	ra,16(sp)
80404a68:	00001021 	move	v0,zero
80404a6c:	03e00008 	jr	ra
80404a70:	27bd0018 	addiu	sp,sp,24

80404a74 <yesno>:
80404a74:	3c048042 	lui	a0,0x8042
80404a78:	27bdffe0 	addiu	sp,sp,-32
80404a7c:	afbf0018 	sw	ra,24(sp)
80404a80:	0c10331a 	jal	8040cc68 <xprintf>
80404a84:	2484a884 	addiu	a0,a0,-22396
80404a88:	3c048042 	lui	a0,0x8042
80404a8c:	27a50010 	addiu	a1,sp,16
80404a90:	24849604 	addiu	a0,a0,-27132
80404a94:	0c103b08 	jal	8040ec20 <console_readline>
80404a98:	24060005 	li	a2,5
80404a9c:	83a30010 	lb	v1,16(sp)
80404aa0:	8fbf0018 	lw	ra,24(sp)
80404aa4:	2402ffff 	li	v0,-1
80404aa8:	38630079 	xori	v1,v1,0x79
80404aac:	0003100a 	movz	v0,zero,v1
80404ab0:	03e00008 	jr	ra
80404ab4:	27bd0020 	addiu	sp,sp,32

80404ab8 <ui_cmd_erase_psi>:
80404ab8:	3c048042 	lui	a0,0x8042
80404abc:	27bdffe8 	addiu	sp,sp,-24
80404ac0:	afbf0010 	sw	ra,16(sp)
80404ac4:	0c10331a 	jal	8040cc68 <xprintf>
80404ac8:	2484a88c 	addiu	a0,a0,-22388
80404acc:	0c10129d 	jal	80404a74 <yesno>
80404ad0:	00000000 	nop
80404ad4:	00002021 	move	a0,zero
80404ad8:	14400004 	bnez	v0,80404aec <ui_cmd_erase_psi+0x34>
80404adc:	2403ffff 	li	v1,-1
80404ae0:	0c100e18 	jal	80403860 <kerSysErasePsi>
80404ae4:	00000000 	nop
80404ae8:	00001821 	move	v1,zero
80404aec:	8fbf0010 	lw	ra,16(sp)
80404af0:	00601021 	move	v0,v1
80404af4:	03e00008 	jr	ra
80404af8:	27bd0018 	addiu	sp,sp,24

80404afc <ui_cmd_erase>:
80404afc:	27bdffe0 	addiu	sp,sp,-32
80404b00:	afb20018 	sw	s2,24(sp)
80404b04:	00a09021 	move	s2,a1
80404b08:	00002821 	move	a1,zero
80404b0c:	afb10014 	sw	s1,20(sp)
80404b10:	afb00010 	sw	s0,16(sp)
80404b14:	afbf001c 	sw	ra,28(sp)
80404b18:	00c08821 	move	s1,a2
80404b1c:	0c103e94 	jal	8040fa50 <cmd_getarg>
80404b20:	00808021 	move	s0,a0
80404b24:	1040007d 	beqz	v0,80404d1c <ui_cmd_erase+0x220>
80404b28:	3c048042 	lui	a0,0x8042
80404b2c:	80430000 	lb	v1,0(v0)
80404b30:	24020062 	li	v0,98
80404b34:	1062000e 	beq	v1,v0,80404b70 <ui_cmd_erase+0x74>
80404b38:	28620063 	slti	v0,v1,99
80404b3c:	10400006 	beqz	v0,80404b58 <ui_cmd_erase+0x5c>
80404b40:	2402006e 	li	v0,110
80404b44:	24020061 	li	v0,97
80404b48:	10620026 	beq	v1,v0,80404be4 <ui_cmd_erase+0xe8>
80404b4c:	00000000 	nop
80404b50:	08101347 	j	80404d1c <ui_cmd_erase+0x220>
80404b54:	00000000 	nop
80404b58:	10620017 	beq	v1,v0,80404bb8 <ui_cmd_erase+0xbc>
80404b5c:	24020070 	li	v0,112
80404b60:	10620069 	beq	v1,v0,80404d08 <ui_cmd_erase+0x20c>
80404b64:	02402821 	move	a1,s2
80404b68:	08101347 	j	80404d1c <ui_cmd_erase+0x220>
80404b6c:	3c048042 	lui	a0,0x8042
80404b70:	3c048042 	lui	a0,0x8042
80404b74:	0c10331a 	jal	8040cc68 <xprintf>
80404b78:	2484a900 	addiu	a0,a0,-22272
80404b7c:	0c10129d 	jal	80404a74 <yesno>
80404b80:	00000000 	nop
80404b84:	14400068 	bnez	v0,80404d28 <ui_cmd_erase+0x22c>
80404b88:	8fbf001c 	lw	ra,28(sp)
80404b8c:	3c048042 	lui	a0,0x8042
80404b90:	0c10331a 	jal	8040cc68 <xprintf>
80404b94:	2484a914 	addiu	a0,a0,-22252
80404b98:	0c10129d 	jal	80404a74 <yesno>
80404b9c:	00000000 	nop
80404ba0:	14400060 	bnez	v0,80404d24 <ui_cmd_erase+0x228>
80404ba4:	00000000 	nop
80404ba8:	0c100f9c 	jal	80403e70 <flash_sector_erase_int>
80404bac:	00002021 	move	a0,zero
80404bb0:	0810134a 	j	80404d28 <ui_cmd_erase+0x22c>
80404bb4:	8fbf001c 	lw	ra,28(sp)
80404bb8:	3c048042 	lui	a0,0x8042
80404bbc:	0c10331a 	jal	8040cc68 <xprintf>
80404bc0:	2484a960 	addiu	a0,a0,-22176
80404bc4:	0c10129d 	jal	80404a74 <yesno>
80404bc8:	00000000 	nop
80404bcc:	14400055 	bnez	v0,80404d24 <ui_cmd_erase+0x228>
80404bd0:	00000000 	nop
80404bd4:	0c100dc2 	jal	80403708 <kerSysEraseNvRam>
80404bd8:	00000000 	nop
80404bdc:	0810134a 	j	80404d28 <ui_cmd_erase+0x22c>
80404be0:	8fbf001c 	lw	ra,28(sp)
80404be4:	3c048042 	lui	a0,0x8042
80404be8:	0c10331a 	jal	8040cc68 <xprintf>
80404bec:	2484a970 	addiu	a0,a0,-22160
80404bf0:	0c10129d 	jal	80404a74 <yesno>
80404bf4:	00000000 	nop
80404bf8:	1440004b 	bnez	v0,80404d28 <ui_cmd_erase+0x22c>
80404bfc:	8fbf001c 	lw	ra,28(sp)
80404c00:	0c100fb4 	jal	80403ed0 <flash_get_numsectors>
80404c04:	00000000 	nop
80404c08:	24040001 	li	a0,1
80404c0c:	0c10193f 	jal	804064fc <getTagFromPartition>
80404c10:	00409021 	move	s2,v0
80404c14:	10400010 	beqz	v0,80404c58 <ui_cmd_erase+0x15c>
80404c18:	00000000 	nop
80404c1c:	0c1034f6 	jal	8040d3d8 <lib_atoi>
80404c20:	2444005e 	addiu	a0,v0,94
80404c24:	3c03fffe 	lui	v1,0xfffe
80404c28:	34632000 	ori	v1,v1,0x2000
80404c2c:	8c630000 	lw	v1,0(v1)
80404c30:	2404ff00 	li	a0,-256
80404c34:	00641824 	and	v1,v1,a0
80404c38:	3c04a000 	lui	a0,0xa000
80404c3c:	00641825 	or	v1,v1,a0
80404c40:	00431021 	addu	v0,v0,v1
80404c44:	3c044040 	lui	a0,0x4040
80404c48:	0c100fcc 	jal	80403f30 <flash_get_blk>
80404c4c:	00442021 	addu	a0,v0,a0
80404c50:	08101327 	j	80404c9c <ui_cmd_erase+0x1a0>
80404c54:	00408021 	move	s0,v0
80404c58:	00008021 	move	s0,zero
80404c5c:	1a40000b 	blez	s2,80404c8c <ui_cmd_erase+0x190>
80404c60:	00008821 	move	s1,zero
80404c64:	0c100fbc 	jal	80403ef0 <flash_get_sector_size>
80404c68:	3204ffff 	andi	a0,s0,0xffff
80404c6c:	02228821 	addu	s1,s1,v0
80404c70:	3402ffff 	li	v0,0xffff
80404c74:	26100001 	addiu	s0,s0,1
80404c78:	0051102a 	slt	v0,v0,s1
80404c7c:	14400003 	bnez	v0,80404c8c <ui_cmd_erase+0x190>
80404c80:	0212182a 	slt	v1,s0,s2
80404c84:	1460fff7 	bnez	v1,80404c64 <ui_cmd_erase+0x168>
80404c88:	00000000 	nop
80404c8c:	3c048042 	lui	a0,0x8042
80404c90:	2484a994 	addiu	a0,a0,-22124
80404c94:	0c10331a 	jal	8040cc68 <xprintf>
80404c98:	02002821 	move	a1,s0
80404c9c:	1a00000f 	blez	s0,80404cdc <ui_cmd_erase+0x1e0>
80404ca0:	02008821 	move	s1,s0
80404ca4:	0232102a 	slt	v0,s1,s2
80404ca8:	10400009 	beqz	v0,80404cd0 <ui_cmd_erase+0x1d4>
80404cac:	00000000 	nop
80404cb0:	3c048042 	lui	a0,0x8042
80404cb4:	0c10331a 	jal	8040cc68 <xprintf>
80404cb8:	2484bc48 	addiu	a0,a0,-17336
80404cbc:	3224ffff 	andi	a0,s1,0xffff
80404cc0:	0c100f9c 	jal	80403e70 <flash_sector_erase_int>
80404cc4:	26310001 	addiu	s1,s1,1
80404cc8:	0810132a 	j	80404ca8 <ui_cmd_erase+0x1ac>
80404ccc:	0232102a 	slt	v0,s1,s2
80404cd0:	3c048042 	lui	a0,0x8042
80404cd4:	0c10331a 	jal	8040cc68 <xprintf>
80404cd8:	2484a398 	addiu	a0,a0,-23656
80404cdc:	0c101a90 	jal	80406a40 <writeNvramData>
80404ce0:	00000000 	nop
80404ce4:	0c101267 	jal	8040499c <setDefaultBootline>
80404ce8:	00000000 	nop
80404cec:	3c048042 	lui	a0,0x8042
80404cf0:	0c10331a 	jal	8040cc68 <xprintf>
80404cf4:	2484a9cc 	addiu	a0,a0,-22068
80404cf8:	0c101118 	jal	80404460 <kerSysMipsSoftReset>
80404cfc:	00000000 	nop
80404d00:	0810134a 	j	80404d28 <ui_cmd_erase+0x22c>
80404d04:	8fbf001c 	lw	ra,28(sp)
80404d08:	02002021 	move	a0,s0
80404d0c:	0c1012ae 	jal	80404ab8 <ui_cmd_erase_psi>
80404d10:	02203021 	move	a2,s1
80404d14:	0810134a 	j	80404d28 <ui_cmd_erase+0x22c>
80404d18:	8fbf001c 	lw	ra,28(sp)
80404d1c:	0c10331a 	jal	8040cc68 <xprintf>
80404d20:	2484a8ac 	addiu	a0,a0,-22356
80404d24:	8fbf001c 	lw	ra,28(sp)
80404d28:	8fb20018 	lw	s2,24(sp)
80404d2c:	8fb10014 	lw	s1,20(sp)
80404d30:	8fb00010 	lw	s0,16(sp)
80404d34:	00001021 	move	v0,zero
80404d38:	03e00008 	jr	ra
80404d3c:	27bd0020 	addiu	sp,sp,32

80404d40 <loadRaw>:
80404d40:	27bdffb8 	addiu	sp,sp,-72
80404d44:	afb00038 	sw	s0,56(sp)
80404d48:	00808021 	move	s0,a0
80404d4c:	3c048042 	lui	a0,0x8042
80404d50:	afb1003c 	sw	s1,60(sp)
80404d54:	2484a9e4 	addiu	a0,a0,-22044
80404d58:	00a08821 	move	s1,a1
80404d5c:	afbf0040 	sw	ra,64(sp)
80404d60:	0c10331a 	jal	8040cc68 <xprintf>
80404d64:	02002821 	move	a1,s0
80404d68:	8f82804c 	lw	v0,-32692(gp)
80404d6c:	3c050080 	lui	a1,0x80
80404d70:	3c030040 	lui	v1,0x40
80404d74:	00a2102b 	sltu	v0,a1,v0
80404d78:	0062280a 	movz	a1,v1,v0
80404d7c:	3c028042 	lui	v0,0x8042
80404d80:	2442a9f4 	addiu	v0,v0,-22028
80404d84:	27a40010 	addiu	a0,sp,16
80404d88:	afa20014 	sw	v0,20(sp)
80404d8c:	24020004 	li	v0,4
80404d90:	afb00010 	sw	s0,16(sp)
80404d94:	afa5002c 	sw	a1,44(sp)
80404d98:	afb10028 	sw	s1,40(sp)
80404d9c:	afa20024 	sw	v0,36(sp)
80404da0:	afa00018 	sw	zero,24(sp)
80404da4:	0c101dc6 	jal	80407718 <bcm63xx_cfe_rawload>
80404da8:	afa0001c 	sw	zero,28(sp)
80404dac:	3c058042 	lui	a1,0x8042
80404db0:	00408021 	move	s0,v0
80404db4:	24a5a9fc 	addiu	a1,a1,-22020
80404db8:	04410005 	bgez	v0,80404dd0 <loadRaw+0x90>
80404dbc:	00402021 	move	a0,v0
80404dc0:	0c1043c9 	jal	80410f24 <ui_showerror>
80404dc4:	00000000 	nop
80404dc8:	08101379 	j	80404de4 <loadRaw+0xa4>
80404dcc:	02001021 	move	v0,s0
80404dd0:	3c048042 	lui	a0,0x8042
80404dd4:	2484aa0c 	addiu	a0,a0,-22004
80404dd8:	0c10331a 	jal	8040cc68 <xprintf>
80404ddc:	00402821 	move	a1,v0
80404de0:	02001021 	move	v0,s0
80404de4:	8fbf0040 	lw	ra,64(sp)
80404de8:	8fb1003c 	lw	s1,60(sp)
80404dec:	8fb00038 	lw	s0,56(sp)
80404df0:	03e00008 	jr	ra
80404df4:	27bd0048 	addiu	sp,sp,72

80404df8 <ui_cmd_flash_image>:
80404df8:	8f82804c 	lw	v0,-32692(gp)
80404dfc:	27bdff98 	addiu	sp,sp,-104
80404e00:	3c030080 	lui	v1,0x80
80404e04:	0062182b 	sltu	v1,v1,v0
80404e08:	afb1005c 	sw	s1,92(sp)
80404e0c:	3c028000 	lui	v0,0x8000
80404e10:	3c118080 	lui	s1,0x8080
80404e14:	0043880a 	movz	s1,v0,v1
80404e18:	00002821 	move	a1,zero
80404e1c:	24020001 	li	v0,1
80404e20:	afb00058 	sw	s0,88(sp)
80404e24:	afbf0060 	sw	ra,96(sp)
80404e28:	0c103e94 	jal	8040fa50 <cmd_getarg>
80404e2c:	af8280bc 	sw	v0,-32580(gp)
80404e30:	10400014 	beqz	v0,80404e84 <ui_cmd_flash_image+0x8c>
80404e34:	00408021 	move	s0,v0
80404e38:	00402021 	move	a0,v0
80404e3c:	0c103424 	jal	8040d090 <lib_strchr>
80404e40:	2405003a 	li	a1,58
80404e44:	10400006 	beqz	v0,80404e60 <ui_cmd_flash_image+0x68>
80404e48:	3c058042 	lui	a1,0x8042
80404e4c:	02002821 	move	a1,s0
80404e50:	0c10338e 	jal	8040ce38 <lib_strcpy>
80404e54:	27a40010 	addiu	a0,sp,16
80404e58:	081013ae 	j	80404eb8 <ui_cmd_flash_image+0xc0>
80404e5c:	27a40010 	addiu	a0,sp,16
80404e60:	24a52a1c 	addiu	a1,a1,10780
80404e64:	0c10338e 	jal	8040ce38 <lib_strcpy>
80404e68:	27a40010 	addiu	a0,sp,16
80404e6c:	3c058042 	lui	a1,0x8042
80404e70:	24a5a578 	addiu	a1,a1,-23176
80404e74:	0c103480 	jal	8040d200 <lib_strcat>
80404e78:	27a40010 	addiu	a0,sp,16
80404e7c:	081013ab 	j	80404eac <ui_cmd_flash_image+0xb4>
80404e80:	02002821 	move	a1,s0
80404e84:	3c058042 	lui	a1,0x8042
80404e88:	24a52a1c 	addiu	a1,a1,10780
80404e8c:	0c10338e 	jal	8040ce38 <lib_strcpy>
80404e90:	27a40010 	addiu	a0,sp,16
80404e94:	3c058042 	lui	a1,0x8042
80404e98:	24a5a578 	addiu	a1,a1,-23176
80404e9c:	0c103480 	jal	8040d200 <lib_strcat>
80404ea0:	27a40010 	addiu	a0,sp,16
80404ea4:	3c058042 	lui	a1,0x8042
80404ea8:	24a52a73 	addiu	a1,a1,10867
80404eac:	0c103480 	jal	8040d200 <lib_strcat>
80404eb0:	27a40010 	addiu	a0,sp,16
80404eb4:	27a40010 	addiu	a0,sp,16
80404eb8:	0c101350 	jal	80404d40 <loadRaw>
80404ebc:	02202821 	move	a1,s1
80404ec0:	04410007 	bgez	v0,80404ee0 <ui_cmd_flash_image+0xe8>
80404ec4:	00408021 	move	s0,v0
80404ec8:	081013d5 	j	80404f54 <ui_cmd_flash_image+0x15c>
80404ecc:	02001021 	move	v0,s0
80404ed0:	0c101a90 	jal	80406a40 <writeNvramData>
80404ed4:	a0820002 	sb	v0,2(a0)
80404ed8:	081013d0 	j	80404f40 <ui_cmd_flash_image+0x148>
80404edc:	3c048042 	lui	a0,0x8042
80404ee0:	0c101ba5 	jal	80406e94 <flashImage>
80404ee4:	02202021 	move	a0,s1
80404ee8:	14400019 	bnez	v0,80404f50 <ui_cmd_flash_image+0x158>
80404eec:	00408021 	move	s0,v0
80404ef0:	3c028042 	lui	v0,0x8042
80404ef4:	24442ab4 	addiu	a0,v0,10932
80404ef8:	90830002 	lbu	v1,2(a0)
80404efc:	1060000f 	beqz	v1,80404f3c <ui_cmd_flash_image+0x144>
80404f00:	24070072 	li	a3,114
80404f04:	2406003d 	li	a2,61
80404f08:	24050068 	li	a1,104
80404f0c:	80820000 	lb	v0,0(a0)
80404f10:	14470006 	bne	v0,a3,80404f2c <ui_cmd_flash_image+0x134>
80404f14:	00031e00 	sll	v1,v1,0x18
80404f18:	80820001 	lb	v0,1(a0)
80404f1c:	14460003 	bne	v0,a2,80404f2c <ui_cmd_flash_image+0x134>
80404f20:	00031e03 	sra	v1,v1,0x18
80404f24:	1065ffea 	beq	v1,a1,80404ed0 <ui_cmd_flash_image+0xd8>
80404f28:	24020066 	li	v0,102
80404f2c:	24840001 	addiu	a0,a0,1
80404f30:	90830002 	lbu	v1,2(a0)
80404f34:	1460fff5 	bnez	v1,80404f0c <ui_cmd_flash_image+0x114>
80404f38:	00000000 	nop
80404f3c:	3c048042 	lui	a0,0x8042
80404f40:	0c10331a 	jal	8040cc68 <xprintf>
80404f44:	2484aa28 	addiu	a0,a0,-21976
80404f48:	0c101118 	jal	80404460 <kerSysMipsSoftReset>
80404f4c:	00000000 	nop
80404f50:	02001021 	move	v0,s0
80404f54:	8fbf0060 	lw	ra,96(sp)
80404f58:	8fb1005c 	lw	s1,92(sp)
80404f5c:	8fb00058 	lw	s0,88(sp)
80404f60:	27bd0068 	addiu	sp,sp,104
80404f64:	03e00008 	jr	ra
80404f68:	af8080bc 	sw	zero,-32580(gp)

80404f6c <ui_cmd_write_whole_image>:
80404f6c:	8f82804c 	lw	v0,-32692(gp)
80404f70:	27bdff98 	addiu	sp,sp,-104
80404f74:	3c030080 	lui	v1,0x80
80404f78:	0062182b 	sltu	v1,v1,v0
80404f7c:	afb20060 	sw	s2,96(sp)
80404f80:	3c028000 	lui	v0,0x8000
80404f84:	3c128080 	lui	s2,0x8080
80404f88:	0043900a 	movz	s2,v0,v1
80404f8c:	00002821 	move	a1,zero
80404f90:	24020001 	li	v0,1
80404f94:	afb1005c 	sw	s1,92(sp)
80404f98:	afb00058 	sw	s0,88(sp)
80404f9c:	afbf0064 	sw	ra,100(sp)
80404fa0:	af8280bc 	sw	v0,-32580(gp)
80404fa4:	0c103e94 	jal	8040fa50 <cmd_getarg>
80404fa8:	00808821 	move	s1,a0
80404fac:	14400005 	bnez	v0,80404fc4 <ui_cmd_write_whole_image+0x58>
80404fb0:	00408021 	move	s0,v0
80404fb4:	0c1043ea 	jal	80410fa8 <ui_showusage>
80404fb8:	02202021 	move	a0,s1
80404fbc:	0810141b 	j	8040506c <ui_cmd_write_whole_image+0x100>
80404fc0:	8fbf0064 	lw	ra,100(sp)
80404fc4:	00402021 	move	a0,v0
80404fc8:	0c103424 	jal	8040d090 <lib_strchr>
80404fcc:	2405003a 	li	a1,58
80404fd0:	10400006 	beqz	v0,80404fec <ui_cmd_write_whole_image+0x80>
80404fd4:	3c058042 	lui	a1,0x8042
80404fd8:	02002821 	move	a1,s0
80404fdc:	0c10338e 	jal	8040ce38 <lib_strcpy>
80404fe0:	27a40010 	addiu	a0,sp,16
80404fe4:	08101406 	j	80405018 <ui_cmd_write_whole_image+0xac>
80404fe8:	27a40010 	addiu	a0,sp,16
80404fec:	24a52a1c 	addiu	a1,a1,10780
80404ff0:	0c10338e 	jal	8040ce38 <lib_strcpy>
80404ff4:	27a40010 	addiu	a0,sp,16
80404ff8:	3c058042 	lui	a1,0x8042
80404ffc:	24a5a578 	addiu	a1,a1,-23176
80405000:	0c103480 	jal	8040d200 <lib_strcat>
80405004:	27a40010 	addiu	a0,sp,16
80405008:	02002821 	move	a1,s0
8040500c:	0c103480 	jal	8040d200 <lib_strcat>
80405010:	27a40010 	addiu	a0,sp,16
80405014:	27a40010 	addiu	a0,sp,16
80405018:	0c101350 	jal	80404d40 <loadRaw>
8040501c:	02402821 	move	a1,s2
80405020:	04410003 	bgez	v0,80405030 <ui_cmd_write_whole_image+0xc4>
80405024:	02402021 	move	a0,s2
80405028:	0810141a 	j	80405068 <ui_cmd_write_whole_image+0xfc>
8040502c:	af8080bc 	sw	zero,-32580(gp)
80405030:	0c101ac3 	jal	80406b0c <writeWholeImage>
80405034:	00402821 	move	a1,v0
80405038:	3c048042 	lui	a0,0x8042
8040503c:	00408021 	move	s0,v0
80405040:	0c10331a 	jal	8040cc68 <xprintf>
80405044:	2484aa3c 	addiu	a0,a0,-21956
80405048:	16000005 	bnez	s0,80405060 <ui_cmd_write_whole_image+0xf4>
8040504c:	3c048042 	lui	a0,0x8042
80405050:	0c10331a 	jal	8040cc68 <xprintf>
80405054:	2484aa28 	addiu	a0,a0,-21976
80405058:	0c101118 	jal	80404460 <kerSysMipsSoftReset>
8040505c:	00000000 	nop
80405060:	af8080bc 	sw	zero,-32580(gp)
80405064:	02001021 	move	v0,s0
80405068:	8fbf0064 	lw	ra,100(sp)
8040506c:	8fb20060 	lw	s2,96(sp)
80405070:	8fb1005c 	lw	s1,92(sp)
80405074:	8fb00058 	lw	s0,88(sp)
80405078:	03e00008 	jr	ra
8040507c:	27bd0068 	addiu	sp,sp,104

80405080 <ui_cmd_flash_router_image>:
80405080:	8f83804c 	lw	v1,-32692(gp)
80405084:	27bdff98 	addiu	sp,sp,-104
80405088:	3c020080 	lui	v0,0x80
8040508c:	0043102b 	sltu	v0,v0,v1
80405090:	afb20060 	sw	s2,96(sp)
80405094:	3c038000 	lui	v1,0x8000
80405098:	3c128080 	lui	s2,0x8080
8040509c:	00002821 	move	a1,zero
804050a0:	afb1005c 	sw	s1,92(sp)
804050a4:	afb00058 	sw	s0,88(sp)
804050a8:	afbf0064 	sw	ra,100(sp)
804050ac:	0062900a 	movz	s2,v1,v0
804050b0:	0c103e94 	jal	8040fa50 <cmd_getarg>
804050b4:	00808821 	move	s1,a0
804050b8:	14400005 	bnez	v0,804050d0 <ui_cmd_flash_router_image+0x50>
804050bc:	00408021 	move	s0,v0
804050c0:	0c1043ea 	jal	80410fa8 <ui_showusage>
804050c4:	02202021 	move	a0,s1
804050c8:	08101487 	j	8040521c <ui_cmd_flash_router_image+0x19c>
804050cc:	8fbf0064 	lw	ra,100(sp)
804050d0:	00402021 	move	a0,v0
804050d4:	0c103424 	jal	8040d090 <lib_strchr>
804050d8:	2405003a 	li	a1,58
804050dc:	10400006 	beqz	v0,804050f8 <ui_cmd_flash_router_image+0x78>
804050e0:	3c058042 	lui	a1,0x8042
804050e4:	02002821 	move	a1,s0
804050e8:	0c10338e 	jal	8040ce38 <lib_strcpy>
804050ec:	27a40010 	addiu	a0,sp,16
804050f0:	08101449 	j	80405124 <ui_cmd_flash_router_image+0xa4>
804050f4:	27a40010 	addiu	a0,sp,16
804050f8:	24a52a1c 	addiu	a1,a1,10780
804050fc:	0c10338e 	jal	8040ce38 <lib_strcpy>
80405100:	27a40010 	addiu	a0,sp,16
80405104:	3c058042 	lui	a1,0x8042
80405108:	24a5a578 	addiu	a1,a1,-23176
8040510c:	0c103480 	jal	8040d200 <lib_strcat>
80405110:	27a40010 	addiu	a0,sp,16
80405114:	02002821 	move	a1,s0
80405118:	0c103480 	jal	8040d200 <lib_strcat>
8040511c:	27a40010 	addiu	a0,sp,16
80405120:	27a40010 	addiu	a0,sp,16
80405124:	0c101350 	jal	80404d40 <loadRaw>
80405128:	02402821 	move	a1,s2
8040512c:	00408021 	move	s0,v0
80405130:	0600003a 	bltz	s0,8040521c <ui_cmd_flash_router_image+0x19c>
80405134:	8fbf0064 	lw	ra,100(sp)
80405138:	3c02fffe 	lui	v0,0xfffe
8040513c:	34422000 	ori	v0,v0,0x2000
80405140:	8c440000 	lw	a0,0(v0)
80405144:	2402ff00 	li	v0,-256
80405148:	02003021 	move	a2,s0
8040514c:	00822024 	and	a0,a0,v0
80405150:	3c02a000 	lui	v0,0xa000
80405154:	00822025 	or	a0,a0,v0
80405158:	3c020001 	lui	v0,0x1
8040515c:	00822021 	addu	a0,a0,v0
80405160:	02402821 	move	a1,s2
80405164:	0c100e90 	jal	80403a40 <kerSysBcmImageSet>
80405168:	24070001 	li	a3,1
8040516c:	10400007 	beqz	v0,8040518c <ui_cmd_flash_router_image+0x10c>
80405170:	00408021 	move	s0,v0
80405174:	08101468 	j	804051a0 <ui_cmd_flash_router_image+0x120>
80405178:	3c048042 	lui	a0,0x8042
8040517c:	0c101a90 	jal	80406a40 <writeNvramData>
80405180:	a0820002 	sb	v0,2(a0)
80405184:	08101481 	j	80405204 <ui_cmd_flash_router_image+0x184>
80405188:	3c048042 	lui	a0,0x8042
8040518c:	3c048042 	lui	a0,0x8042
80405190:	0c10331a 	jal	8040cc68 <xprintf>
80405194:	2484aa3c 	addiu	a0,a0,-21956
80405198:	0810146e 	j	804051b8 <ui_cmd_flash_router_image+0x138>
8040519c:	3c028042 	lui	v0,0x8042
804051a0:	2484aa58 	addiu	a0,a0,-21928
804051a4:	0c10331a 	jal	8040cc68 <xprintf>
804051a8:	00402821 	move	a1,v0
804051ac:	1600001a 	bnez	s0,80405218 <ui_cmd_flash_router_image+0x198>
804051b0:	02001021 	move	v0,s0
804051b4:	3c028042 	lui	v0,0x8042
804051b8:	24442ab4 	addiu	a0,v0,10932
804051bc:	90830002 	lbu	v1,2(a0)
804051c0:	1060000f 	beqz	v1,80405200 <ui_cmd_flash_router_image+0x180>
804051c4:	24070072 	li	a3,114
804051c8:	2406003d 	li	a2,61
804051cc:	24050068 	li	a1,104
804051d0:	80820000 	lb	v0,0(a0)
804051d4:	14470006 	bne	v0,a3,804051f0 <ui_cmd_flash_router_image+0x170>
804051d8:	00031e00 	sll	v1,v1,0x18
804051dc:	80820001 	lb	v0,1(a0)
804051e0:	14460003 	bne	v0,a2,804051f0 <ui_cmd_flash_router_image+0x170>
804051e4:	00031e03 	sra	v1,v1,0x18
804051e8:	1065ffe4 	beq	v1,a1,8040517c <ui_cmd_flash_router_image+0xfc>
804051ec:	24020066 	li	v0,102
804051f0:	24840001 	addiu	a0,a0,1
804051f4:	90830002 	lbu	v1,2(a0)
804051f8:	1460fff5 	bnez	v1,804051d0 <ui_cmd_flash_router_image+0x150>
804051fc:	00000000 	nop
80405200:	3c048042 	lui	a0,0x8042
80405204:	0c10331a 	jal	8040cc68 <xprintf>
80405208:	2484aa28 	addiu	a0,a0,-21976
8040520c:	0c101118 	jal	80404460 <kerSysMipsSoftReset>
80405210:	00000000 	nop
80405214:	02001021 	move	v0,s0
80405218:	8fbf0064 	lw	ra,100(sp)
8040521c:	8fb20060 	lw	s2,96(sp)
80405220:	8fb1005c 	lw	s1,92(sp)
80405224:	8fb00058 	lw	s0,88(sp)
80405228:	03e00008 	jr	ra
8040522c:	27bd0068 	addiu	sp,sp,104

80405230 <cfe_go>:
80405230:	27bdffe0 	addiu	sp,sp,-32
80405234:	afb00018 	sw	s0,24(sp)
80405238:	afbf001c 	sw	ra,28(sp)
8040523c:	00808021 	move	s0,a0
80405240:	8e020020 	lw	v0,32(s0)
80405244:	3c048042 	lui	a0,0x8042
80405248:	14400005 	bnez	v0,80405260 <cfe_go+0x30>
8040524c:	2484aa7c 	addiu	a0,a0,-21892
80405250:	0c10331a 	jal	8040cc68 <xprintf>
80405254:	00000000 	nop
80405258:	081014b0 	j	804052c0 <cfe_go+0x90>
8040525c:	8fbf001c 	lw	ra,28(sp)
80405260:	0c104fa8 	jal	80413ea0 <net_getparam>
80405264:	2404000a 	li	a0,10
80405268:	3c048042 	lui	a0,0x8042
8040526c:	10400005 	beqz	v0,80405284 <cfe_go+0x54>
80405270:	2484aa9c 	addiu	a0,a0,-21860
80405274:	0c10331a 	jal	8040cc68 <xprintf>
80405278:	00000000 	nop
8040527c:	0c104fe4 	jal	80413f90 <net_uninit>
80405280:	00000000 	nop
80405284:	8e050020 	lw	a1,32(s0)
80405288:	3c048042 	lui	a0,0x8042
8040528c:	0c10331a 	jal	8040cc68 <xprintf>
80405290:	2484aab0 	addiu	a0,a0,-21840
80405294:	0c1010d9 	jal	80404364 <setPowerOnLedOn>
80405298:	00000000 	nop
8040529c:	0c102892 	jal	8040a248 <BpGetBootloaderResetCfgLedGpio>
804052a0:	27a40010 	addiu	a0,sp,16
804052a4:	14400003 	bnez	v0,804052b4 <cfe_go+0x84>
804052a8:	00000000 	nop
804052ac:	0c100ff4 	jal	80403fd0 <setLedOn>
804052b0:	97a40010 	lhu	a0,16(sp)
804052b4:	0c101f94 	jal	80407e50 <cfe_start>
804052b8:	8e040020 	lw	a0,32(s0)
804052bc:	8fbf001c 	lw	ra,28(sp)
804052c0:	8fb00018 	lw	s0,24(sp)
804052c4:	03e00008 	jr	ra
804052c8:	27bd0020 	addiu	sp,sp,32

804052cc <bootCompressedImage>:
804052cc:	27bdff68 	addiu	sp,sp,-152
804052d0:	afb3007c 	sw	s3,124(sp)
804052d4:	00809821 	move	s3,a0
804052d8:	24040001 	li	a0,1
804052dc:	afbf0094 	sw	ra,148(sp)
804052e0:	afa5009c 	sw	a1,156(sp)
804052e4:	afbe0090 	sw	s8,144(sp)
804052e8:	afb7008c 	sw	s7,140(sp)
804052ec:	afb20078 	sw	s2,120(sp)
804052f0:	afb60088 	sw	s6,136(sp)
804052f4:	afb50084 	sw	s5,132(sp)
804052f8:	afb40080 	sw	s4,128(sp)
804052fc:	afb10074 	sw	s1,116(sp)
80405300:	0c10193f 	jal	804064fc <getTagFromPartition>
80405304:	afb00070 	sw	s0,112(sp)
80405308:	24040002 	li	a0,2
8040530c:	0c10193f 	jal	804064fc <getTagFromPartition>
80405310:	afa20068 	sw	v0,104(sp)
80405314:	0c101fa2 	jal	80407e88 <AlertLed_Off>
80405318:	0040f021 	move	s8,v0
8040531c:	3c02fffe 	lui	v0,0xfffe
80405320:	34422000 	ori	v0,v0,0x2000
80405324:	8c420000 	lw	v0,0(v0)
80405328:	2403ff00 	li	v1,-256
8040532c:	afb3005c 	sw	s3,92(sp)
80405330:	00431024 	and	v0,v0,v1
80405334:	3c03a000 	lui	v1,0xa000
80405338:	00431025 	or	v0,v0,v1
8040533c:	0053102b 	sltu	v0,v0,s3
80405340:	0000b821 	move	s7,zero
80405344:	afa00060 	sw	zero,96(sp)
80405348:	afa00064 	sw	zero,100(sp)
8040534c:	10400042 	beqz	v0,80405458 <bootCompressedImage+0x18c>
80405350:	00009021 	move	s2,zero
80405354:	8fa20068 	lw	v0,104(sp)
80405358:	1040003f 	beqz	v0,80405458 <bootCompressedImage+0x18c>
8040535c:	00000000 	nop
80405360:	13c0003d 	beqz	s8,80405458 <bootCompressedImage+0x18c>
80405364:	00000000 	nop
80405368:	0c1034f6 	jal	8040d3d8 <lib_atoi>
8040536c:	2444008a 	addiu	a0,v0,138
80405370:	27c4008a 	addiu	a0,s8,138
80405374:	0c1034f6 	jal	8040d3d8 <lib_atoi>
80405378:	00408021 	move	s0,v0
8040537c:	0050102a 	slt	v0,v0,s0
80405380:	10400003 	beqz	v0,80405390 <bootCompressedImage+0xc4>
80405384:	8fb20068 	lw	s2,104(sp)
80405388:	081014e6 	j	80405398 <bootCompressedImage+0xcc>
8040538c:	03c08821 	move	s1,s8
80405390:	8fb10068 	lw	s1,104(sp)
80405394:	03c09021 	move	s2,s8
80405398:	0c1034f6 	jal	8040d3d8 <lib_atoi>
8040539c:	26440074 	addiu	a0,s2,116
804053a0:	3c03fffe 	lui	v1,0xfffe
804053a4:	34742000 	ori	s4,v1,0x2000
804053a8:	8e830000 	lw	v1,0(s4)
804053ac:	2415ff00 	li	s5,-256
804053b0:	3c16a000 	lui	s6,0xa000
804053b4:	00751824 	and	v1,v1,s5
804053b8:	00761825 	or	v1,v1,s6
804053bc:	00431021 	addu	v0,v0,v1
804053c0:	3c104040 	lui	s0,0x4040
804053c4:	00501021 	addu	v0,v0,s0
804053c8:	26240074 	addiu	a0,s1,116
804053cc:	0c1034f6 	jal	8040d3d8 <lib_atoi>
804053d0:	afa20060 	sw	v0,96(sp)
804053d4:	8e830000 	lw	v1,0(s4)
804053d8:	00751824 	and	v1,v1,s5
804053dc:	00761825 	or	v1,v1,s6
804053e0:	00431021 	addu	v0,v0,v1
804053e4:	00501021 	addu	v0,v0,s0
804053e8:	1662000f 	bne	s3,v0,80405428 <bootCompressedImage+0x15c>
804053ec:	afa20064 	sw	v0,100(sp)
804053f0:	0c1034f6 	jal	8040d3d8 <lib_atoi>
804053f4:	2624005e 	addiu	a0,s1,94
804053f8:	8e830000 	lw	v1,0(s4)
804053fc:	3c05403f 	lui	a1,0x403f
80405400:	34a5ff00 	ori	a1,a1,0xff00
80405404:	00751824 	and	v1,v1,s5
80405408:	00761825 	or	v1,v1,s6
8040540c:	00431021 	addu	v0,v0,v1
80405410:	3c048042 	lui	a0,0x8042
80405414:	00452821 	addu	a1,v0,a1
80405418:	0c10331a 	jal	8040cc68 <xprintf>
8040541c:	2484aacc 	addiu	a0,a0,-21812
80405420:	08101516 	j	80405458 <bootCompressedImage+0x18c>
80405424:	02209021 	move	s2,s1
80405428:	0c1034f6 	jal	8040d3d8 <lib_atoi>
8040542c:	2644005e 	addiu	a0,s2,94
80405430:	8e830000 	lw	v1,0(s4)
80405434:	3c05403f 	lui	a1,0x403f
80405438:	34a5ff00 	ori	a1,a1,0xff00
8040543c:	00751824 	and	v1,v1,s5
80405440:	00761825 	or	v1,v1,s6
80405444:	00431021 	addu	v0,v0,v1
80405448:	3c048042 	lui	a0,0x8042
8040544c:	00452821 	addu	a1,v0,a1
80405450:	0c10331a 	jal	8040cc68 <xprintf>
80405454:	2484aaf8 	addiu	a0,a0,-21768
80405458:	0c100fd4 	jal	80403f50 <flash_get_total_memory_mapped_size>
8040545c:	00000000 	nop
80405460:	0c100f41 	jal	80403d04 <flash_get_total_size>
80405464:	00408021 	move	s0,v0
80405468:	1202000b 	beq	s0,v0,80405498 <bootCompressedImage+0x1cc>
8040546c:	27a40038 	addiu	a0,sp,56
80405470:	0c100c46 	jal	80403118 <kerSysFlashAddrInfoGet>
80405474:	8f908010 	lw	s0,-32752(gp)
80405478:	97a4003a 	lhu	a0,58(sp)
8040547c:	0c100fc4 	jal	80403f10 <flash_get_memptr>
80405480:	26100400 	addiu	s0,s0,1024
80405484:	00533023 	subu	a2,v0,s3
80405488:	02602821 	move	a1,s3
8040548c:	0c100f26 	jal	80403c98 <kerSysReadFromFlash>
80405490:	02002021 	move	a0,s0
80405494:	02009821 	move	s3,s0
80405498:	8e750000 	lw	s5,0(s3)
8040549c:	8e740004 	lw	s4,4(s3)
804054a0:	8e630008 	lw	v1,8(s3)
804054a4:	3c048042 	lui	a0,0x8042
804054a8:	2484ab24 	addiu	a0,a0,-21724
804054ac:	02a02821 	move	a1,s5
804054b0:	02803021 	move	a2,s4
804054b4:	afa30058 	sw	v1,88(sp)
804054b8:	0c10331a 	jal	8040cc68 <xprintf>
804054bc:	2676000c 	addiu	s6,s3,12
804054c0:	1240002e 	beqz	s2,8040557c <bootCompressedImage+0x2b0>
804054c4:	8fa50058 	lw	a1,88(sp)
804054c8:	8e5100dc 	lw	s1,220(s2)
804054cc:	12200019 	beqz	s1,80405534 <bootCompressedImage+0x268>
804054d0:	00000000 	nop
804054d4:	0c1034f6 	jal	8040d3d8 <lib_atoi>
804054d8:	2644005e 	addiu	a0,s2,94
804054dc:	3c03fffe 	lui	v1,0xfffe
804054e0:	34632000 	ori	v1,v1,0x2000
804054e4:	8c630000 	lw	v1,0(v1)
804054e8:	2404ff00 	li	a0,-256
804054ec:	00641824 	and	v1,v1,a0
804054f0:	3c04a000 	lui	a0,0xa000
804054f4:	00641825 	or	v1,v1,a0
804054f8:	00438021 	addu	s0,v0,v1
804054fc:	2644006a 	addiu	a0,s2,106
80405500:	3c024040 	lui	v0,0x4040
80405504:	0c1034f6 	jal	8040d3d8 <lib_atoi>
80405508:	02028021 	addu	s0,s0,v0
8040550c:	00402821 	move	a1,v0
80405510:	02002021 	move	a0,s0
80405514:	0c1018b6 	jal	804062d8 <getCrc32>
80405518:	2406ffff 	li	a2,-1
8040551c:	10510005 	beq	v0,s1,80405534 <bootCompressedImage+0x268>
80405520:	00000000 	nop
80405524:	3c048042 	lui	a0,0x8042
80405528:	0c10331a 	jal	8040cc68 <xprintf>
8040552c:	2484ab54 	addiu	a0,a0,-21676
80405530:	2417ffff 	li	s7,-1
80405534:	8e5100e0 	lw	s1,224(s2)
80405538:	1220000d 	beqz	s1,80405570 <bootCompressedImage+0x2a4>
8040553c:	00000000 	nop
80405540:	0c1034f6 	jal	8040d3d8 <lib_atoi>
80405544:	26440080 	addiu	a0,s2,128
80405548:	00402821 	move	a1,v0
8040554c:	02602021 	move	a0,s3
80405550:	0c1018b6 	jal	804062d8 <getCrc32>
80405554:	2406ffff 	li	a2,-1
80405558:	10510005 	beq	v0,s1,80405570 <bootCompressedImage+0x2a4>
8040555c:	3c048042 	lui	a0,0x8042
80405560:	0c10331a 	jal	8040cc68 <xprintf>
80405564:	2484ab84 	addiu	a0,a0,-21628
80405568:	08101568 	j	804055a0 <bootCompressedImage+0x2d4>
8040556c:	2417ffff 	li	s7,-1
80405570:	16e0000c 	bnez	s7,804055a4 <bootCompressedImage+0x2d8>
80405574:	8fa4009c 	lw	a0,156(sp)
80405578:	8fa50058 	lw	a1,88(sp)
8040557c:	02c02021 	move	a0,s6
80405580:	02a03021 	move	a2,s5
80405584:	0c105891 	jal	80416244 <decompress_lzma_7z>
80405588:	3c070170 	lui	a3,0x170
8040558c:	10400021 	beqz	v0,80405614 <bootCompressedImage+0x348>
80405590:	0040b821 	move	s7,v0
80405594:	3c048042 	lui	a0,0x8042
80405598:	0c10331a 	jal	8040cc68 <xprintf>
8040559c:	2484abb0 	addiu	a0,a0,-21584
804055a0:	8fa4009c 	lw	a0,156(sp)
804055a4:	24020001 	li	v0,1
804055a8:	14820025 	bne	a0,v0,80405640 <bootCompressedImage+0x374>
804055ac:	02e01021 	move	v0,s7
804055b0:	3c02fffe 	lui	v0,0xfffe
804055b4:	34422000 	ori	v0,v0,0x2000
804055b8:	8c420000 	lw	v0,0(v0)
804055bc:	2403ff00 	li	v1,-256
804055c0:	00431024 	and	v0,v0,v1
804055c4:	3c03a000 	lui	v1,0xa000
804055c8:	00431025 	or	v0,v0,v1
804055cc:	8fa3005c 	lw	v1,92(sp)
804055d0:	0043102b 	sltu	v0,v0,v1
804055d4:	1040000d 	beqz	v0,8040560c <bootCompressedImage+0x340>
804055d8:	00000000 	nop
804055dc:	8fa40068 	lw	a0,104(sp)
804055e0:	1080000a 	beqz	a0,8040560c <bootCompressedImage+0x340>
804055e4:	00000000 	nop
804055e8:	13c00008 	beqz	s8,8040560c <bootCompressedImage+0x340>
804055ec:	00002821 	move	a1,zero
804055f0:	8fa40064 	lw	a0,100(sp)
804055f4:	00641026 	xor	v0,v1,a0
804055f8:	8fa40060 	lw	a0,96(sp)
804055fc:	8fa30064 	lw	v1,100(sp)
80405600:	0c1014b3 	jal	804052cc <bootCompressedImage>
80405604:	0062200b 	movn	a0,v1,v0
80405608:	0040b821 	move	s7,v0
8040560c:	08101590 	j	80405640 <bootCompressedImage+0x374>
80405610:	02e01021 	move	v0,s7
80405614:	3c048042 	lui	a0,0x8042
80405618:	0c10331a 	jal	8040cc68 <xprintf>
8040561c:	2484abdc 	addiu	a0,a0,-21540
80405620:	3c048042 	lui	a0,0x8042
80405624:	2484abf0 	addiu	a0,a0,-21520
80405628:	02802821 	move	a1,s4
8040562c:	0c10331a 	jal	8040cc68 <xprintf>
80405630:	afb40030 	sw	s4,48(sp)
80405634:	0c10148c 	jal	80405230 <cfe_go>
80405638:	27a40010 	addiu	a0,sp,16
8040563c:	00001021 	move	v0,zero
80405640:	8fbf0094 	lw	ra,148(sp)
80405644:	8fbe0090 	lw	s8,144(sp)
80405648:	8fb7008c 	lw	s7,140(sp)
8040564c:	8fb60088 	lw	s6,136(sp)
80405650:	8fb50084 	lw	s5,132(sp)
80405654:	8fb40080 	lw	s4,128(sp)
80405658:	8fb3007c 	lw	s3,124(sp)
8040565c:	8fb20078 	lw	s2,120(sp)
80405660:	8fb10074 	lw	s1,116(sp)
80405664:	8fb00070 	lw	s0,112(sp)
80405668:	03e00008 	jr	ra
8040566c:	27bd0098 	addiu	sp,sp,152

80405670 <autoRun>:
80405670:	27bdff70 	addiu	sp,sp,-144
80405674:	afb00080 	sw	s0,128(sp)
80405678:	3c028042 	lui	v0,0x8042
8040567c:	afbf0088 	sw	ra,136(sp)
80405680:	afb10084 	sw	s1,132(sp)
80405684:	80432a40 	lb	v1,10816(v0)
80405688:	24020066 	li	v0,102
8040568c:	14620015 	bne	v1,v0,804056e4 <autoRun+0x74>
80405690:	00808021 	move	s0,a0
80405694:	14800015 	bnez	a0,804056ec <autoRun+0x7c>
80405698:	00000000 	nop
8040569c:	0c101b78 	jal	80406de0 <getBootImageTag>
804056a0:	00000000 	nop
804056a4:	0c1034f6 	jal	8040d3d8 <lib_atoi>
804056a8:	24440074 	addiu	a0,v0,116
804056ac:	3c03fffe 	lui	v1,0xfffe
804056b0:	34632000 	ori	v1,v1,0x2000
804056b4:	8c630000 	lw	v1,0(v1)
804056b8:	2404ff00 	li	a0,-256
804056bc:	24050001 	li	a1,1
804056c0:	00641824 	and	v1,v1,a0
804056c4:	3c04a000 	lui	a0,0xa000
804056c8:	00641825 	or	v1,v1,a0
804056cc:	00431021 	addu	v0,v0,v1
804056d0:	3c044040 	lui	a0,0x4040
804056d4:	0c1014b3 	jal	804052cc <bootCompressedImage>
804056d8:	00442021 	addu	a0,v0,a0
804056dc:	08101611 	j	80405844 <autoRun+0x1d4>
804056e0:	00408021 	move	s0,v0
804056e4:	10800014 	beqz	a0,80405738 <autoRun+0xc8>
804056e8:	3c058042 	lui	a1,0x8042
804056ec:	02002021 	move	a0,s0
804056f0:	0c103424 	jal	8040d090 <lib_strchr>
804056f4:	2405003a 	li	a1,58
804056f8:	10400006 	beqz	v0,80405714 <autoRun+0xa4>
804056fc:	3c058042 	lui	a1,0x8042
80405700:	02002821 	move	a1,s0
80405704:	0c10338e 	jal	8040ce38 <lib_strcpy>
80405708:	27a40010 	addiu	a0,sp,16
8040570c:	081015da 	j	80405768 <autoRun+0xf8>
80405710:	3c028042 	lui	v0,0x8042
80405714:	24a52a1c 	addiu	a1,a1,10780
80405718:	0c10338e 	jal	8040ce38 <lib_strcpy>
8040571c:	27a40010 	addiu	a0,sp,16
80405720:	3c058042 	lui	a1,0x8042
80405724:	24a5a578 	addiu	a1,a1,-23176
80405728:	0c103480 	jal	8040d200 <lib_strcat>
8040572c:	27a40010 	addiu	a0,sp,16
80405730:	081015d7 	j	8040575c <autoRun+0xec>
80405734:	02002821 	move	a1,s0
80405738:	24a52a1c 	addiu	a1,a1,10780
8040573c:	0c10338e 	jal	8040ce38 <lib_strcpy>
80405740:	27a40010 	addiu	a0,sp,16
80405744:	3c058042 	lui	a1,0x8042
80405748:	24a5a578 	addiu	a1,a1,-23176
8040574c:	0c103480 	jal	8040d200 <lib_strcat>
80405750:	27a40010 	addiu	a0,sp,16
80405754:	3c058042 	lui	a1,0x8042
80405758:	24a52a41 	addiu	a1,a1,10817
8040575c:	0c103480 	jal	8040d200 <lib_strcat>
80405760:	27a40010 	addiu	a0,sp,16
80405764:	3c028042 	lui	v0,0x8042
80405768:	2442a9f4 	addiu	v0,v0,-22028
8040576c:	afa2005c 	sw	v0,92(sp)
80405770:	27a20010 	addiu	v0,sp,16
80405774:	afa20058 	sw	v0,88(sp)
80405778:	3c028042 	lui	v0,0x8042
8040577c:	2442ac00 	addiu	v0,v0,-21504
80405780:	27b10058 	addiu	s1,sp,88
80405784:	afa20060 	sw	v0,96(sp)
80405788:	02202021 	move	a0,s1
8040578c:	24020003 	li	v0,3
80405790:	afa2006c 	sw	v0,108(sp)
80405794:	afa00064 	sw	zero,100(sp)
80405798:	afa00074 	sw	zero,116(sp)
8040579c:	0c101e73 	jal	804079cc <bcm63xx_cfe_elfload>
804057a0:	afa00070 	sw	zero,112(sp)
804057a4:	14400013 	bnez	v0,804057f4 <autoRun+0x184>
804057a8:	00408021 	move	s0,v0
804057ac:	8fa2006c 	lw	v0,108(sp)
804057b0:	30420001 	andi	v0,v0,0x1
804057b4:	10400006 	beqz	v0,804057d0 <autoRun+0x160>
804057b8:	8fa2006c 	lw	v0,108(sp)
804057bc:	8fa50078 	lw	a1,120(sp)
804057c0:	3c048042 	lui	a0,0x8042
804057c4:	0c10331a 	jal	8040cc68 <xprintf>
804057c8:	2484abf0 	addiu	a0,a0,-21520
804057cc:	8fa2006c 	lw	v0,108(sp)
804057d0:	00021042 	srl	v0,v0,0x1
804057d4:	30420001 	andi	v0,v0,0x1
804057d8:	10400007 	beqz	v0,804057f8 <autoRun+0x188>
804057dc:	2402fff5 	li	v0,-11
804057e0:	8fa20078 	lw	v0,120(sp)
804057e4:	10400004 	beqz	v0,804057f8 <autoRun+0x188>
804057e8:	2402fff5 	li	v0,-11
804057ec:	0c10148c 	jal	80405230 <cfe_go>
804057f0:	02202021 	move	a0,s1
804057f4:	2402fff5 	li	v0,-11
804057f8:	16020013 	bne	s0,v0,80405848 <autoRun+0x1d8>
804057fc:	02001021 	move	v0,s0
80405800:	8f82804c 	lw	v0,-32692(gp)
80405804:	3c030080 	lui	v1,0x80
80405808:	3c118080 	lui	s1,0x8080
8040580c:	0062182b 	sltu	v1,v1,v0
80405810:	3c048042 	lui	a0,0x8042
80405814:	3c028000 	lui	v0,0x8000
80405818:	0043880a 	movz	s1,v0,v1
8040581c:	0c10331a 	jal	8040cc68 <xprintf>
80405820:	2484ac08 	addiu	a0,a0,-21496
80405824:	27a40010 	addiu	a0,sp,16
80405828:	0c101350 	jal	80404d40 <loadRaw>
8040582c:	02202821 	move	a1,s1
80405830:	18400004 	blez	v0,80405844 <autoRun+0x1d4>
80405834:	00408021 	move	s0,v0
80405838:	02202021 	move	a0,s1
8040583c:	0c1014b3 	jal	804052cc <bootCompressedImage>
80405840:	24050001 	li	a1,1
80405844:	02001021 	move	v0,s0
80405848:	8fbf0088 	lw	ra,136(sp)
8040584c:	8fb10084 	lw	s1,132(sp)
80405850:	8fb00080 	lw	s0,128(sp)
80405854:	03e00008 	jr	ra
80405858:	27bd0090 	addiu	sp,sp,144

8040585c <ui_cmd_run_program>:
8040585c:	27bdffe8 	addiu	sp,sp,-24
80405860:	afb00010 	sw	s0,16(sp)
80405864:	afbf0014 	sw	ra,20(sp)
80405868:	0c101b78 	jal	80406de0 <getBootImageTag>
8040586c:	00808021 	move	s0,a0
80405870:	02002021 	move	a0,s0
80405874:	10400009 	beqz	v0,8040589c <ui_cmd_run_program+0x40>
80405878:	00002821 	move	a1,zero
8040587c:	0c103e94 	jal	8040fa50 <cmd_getarg>
80405880:	00000000 	nop
80405884:	00402021 	move	a0,v0
80405888:	24020001 	li	v0,1
8040588c:	0c10159c 	jal	80405670 <autoRun>
80405890:	af8280bc 	sw	v0,-32580(gp)
80405894:	0810162c 	j	804058b0 <ui_cmd_run_program+0x54>
80405898:	8fbf0014 	lw	ra,20(sp)
8040589c:	3c048042 	lui	a0,0x8042
804058a0:	0c10331a 	jal	8040cc68 <xprintf>
804058a4:	2484ac34 	addiu	a0,a0,-21452
804058a8:	2402ffee 	li	v0,-18
804058ac:	8fbf0014 	lw	ra,20(sp)
804058b0:	8fb00010 	lw	s0,16(sp)
804058b4:	03e00008 	jr	ra
804058b8:	27bd0018 	addiu	sp,sp,24

804058bc <ui_cmd_print_system_info>:
804058bc:	08101d2e 	j	804074b8 <printSysInfo>
804058c0:	00000000 	nop

804058c4 <ui_cmd_change_bootline>:
804058c4:	08101d6d 	j	804075b4 <changeBootLine>
804058c8:	00000000 	nop

804058cc <bcm63xx_run>:
804058cc:	27bdffd8 	addiu	sp,sp,-40
804058d0:	27828044 	addiu	v0,gp,-32700
804058d4:	afb1001c 	sw	s1,28(sp)
804058d8:	afb00018 	sw	s0,24(sp)
804058dc:	00808821 	move	s1,a0
804058e0:	af8280f8 	sw	v0,-32520(gp)
804058e4:	3c108042 	lui	s0,0x8042
804058e8:	3c048042 	lui	a0,0x8042
804058ec:	3c058040 	lui	a1,0x8040
804058f0:	3c078042 	lui	a3,0x8042
804058f4:	3c028042 	lui	v0,0x8042
804058f8:	26109604 	addiu	s0,s0,-27132
804058fc:	2484ac68 	addiu	a0,a0,-21400
80405900:	24a55080 	addiu	a1,a1,20608
80405904:	24e7ac74 	addiu	a3,a3,-21388
80405908:	00003021 	move	a2,zero
8040590c:	2442aca8 	addiu	v0,v0,-21336
80405910:	afbf0020 	sw	ra,32(sp)
80405914:	afa20010 	sw	v0,16(sp)
80405918:	0c10420b 	jal	8041082c <cmd_addcmd>
8040591c:	afb00014 	sw	s0,20(sp)
80405920:	3c048042 	lui	a0,0x8042
80405924:	3c058040 	lui	a1,0x8040
80405928:	3c078042 	lui	a3,0x8042
8040592c:	2484acdc 	addiu	a0,a0,-21284
80405930:	24a54a54 	addiu	a1,a1,19028
80405934:	24e7ace4 	addiu	a3,a3,-21276
80405938:	00003021 	move	a2,zero
8040593c:	afb00010 	sw	s0,16(sp)
80405940:	0c10420b 	jal	8041082c <cmd_addcmd>
80405944:	afb00014 	sw	s0,20(sp)
80405948:	3c048042 	lui	a0,0x8042
8040594c:	3c058040 	lui	a1,0x8040
80405950:	3c078042 	lui	a3,0x8042
80405954:	2484acf4 	addiu	a0,a0,-21260
80405958:	24a54a4c 	addiu	a1,a1,19020
8040595c:	24e7acf8 	addiu	a3,a3,-21256
80405960:	00003021 	move	a2,zero
80405964:	afb00010 	sw	s0,16(sp)
80405968:	0c10420b 	jal	8041082c <cmd_addcmd>
8040596c:	afb00014 	sw	s0,20(sp)
80405970:	3c048042 	lui	a0,0x8042
80405974:	3c058040 	lui	a1,0x8040
80405978:	3c078042 	lui	a3,0x8042
8040597c:	2484ad10 	addiu	a0,a0,-21232
80405980:	24a54ab8 	addiu	a1,a1,19128
80405984:	24e7ad14 	addiu	a3,a3,-21228
80405988:	00003021 	move	a2,zero
8040598c:	afb00010 	sw	s0,16(sp)
80405990:	0c10420b 	jal	8041082c <cmd_addcmd>
80405994:	afb00014 	sw	s0,20(sp)
80405998:	3c048042 	lui	a0,0x8042
8040599c:	3c058040 	lui	a1,0x8040
804059a0:	3c078042 	lui	a3,0x8042
804059a4:	3c028042 	lui	v0,0x8042
804059a8:	2484ad34 	addiu	a0,a0,-21196
804059ac:	24a54df8 	addiu	a1,a1,19960
804059b0:	24e7ad38 	addiu	a3,a3,-21192
804059b4:	00003021 	move	a2,zero
804059b8:	2442ad54 	addiu	v0,v0,-21164
804059bc:	afa20010 	sw	v0,16(sp)
804059c0:	0c10420b 	jal	8041082c <cmd_addcmd>
804059c4:	afb00014 	sw	s0,20(sp)
804059c8:	3c048042 	lui	a0,0x8042
804059cc:	3c058040 	lui	a1,0x8040
804059d0:	3c078042 	lui	a3,0x8042
804059d4:	2484adc8 	addiu	a0,a0,-21048
804059d8:	24a558c4 	addiu	a1,a1,22724
804059dc:	24e7adcc 	addiu	a3,a3,-21044
804059e0:	00003021 	move	a2,zero
804059e4:	afb00010 	sw	s0,16(sp)
804059e8:	0c10420b 	jal	8041082c <cmd_addcmd>
804059ec:	afb00014 	sw	s0,20(sp)
804059f0:	3c048042 	lui	a0,0x8042
804059f4:	3c058040 	lui	a1,0x8040
804059f8:	3c078042 	lui	a3,0x8042
804059fc:	2484ade8 	addiu	a0,a0,-21016
80405a00:	24a558bc 	addiu	a1,a1,22716
80405a04:	24e7adec 	addiu	a3,a3,-21012
80405a08:	00003021 	move	a2,zero
80405a0c:	afb00010 	sw	s0,16(sp)
80405a10:	0c10420b 	jal	8041082c <cmd_addcmd>
80405a14:	afb00014 	sw	s0,20(sp)
80405a18:	3c048042 	lui	a0,0x8042
80405a1c:	3c058040 	lui	a1,0x8040
80405a20:	3c078042 	lui	a3,0x8042
80405a24:	3c028042 	lui	v0,0x8042
80405a28:	2484ae18 	addiu	a0,a0,-20968
80405a2c:	24a5585c 	addiu	a1,a1,22620
80405a30:	24e7ae1c 	addiu	a3,a3,-20964
80405a34:	00003021 	move	a2,zero
80405a38:	2442ae5c 	addiu	v0,v0,-20900
80405a3c:	afa20010 	sw	v0,16(sp)
80405a40:	0c10420b 	jal	8041082c <cmd_addcmd>
80405a44:	afb00014 	sw	s0,20(sp)
80405a48:	3c048042 	lui	a0,0x8042
80405a4c:	3c058040 	lui	a1,0x8040
80405a50:	3c078042 	lui	a3,0x8042
80405a54:	3c028042 	lui	v0,0x8042
80405a58:	2484aebc 	addiu	a0,a0,-20804
80405a5c:	24a54afc 	addiu	a1,a1,19196
80405a60:	24e7aec0 	addiu	a3,a3,-20800
80405a64:	00003021 	move	a2,zero
80405a68:	2442aeec 	addiu	v0,v0,-20756
80405a6c:	afa20010 	sw	v0,16(sp)
80405a70:	0c10420b 	jal	8041082c <cmd_addcmd>
80405a74:	afb00014 	sw	s0,20(sp)
80405a78:	3c048042 	lui	a0,0x8042
80405a7c:	3c058040 	lui	a1,0x8040
80405a80:	3c078042 	lui	a3,0x8042
80405a84:	3c028042 	lui	v0,0x8042
80405a88:	2484aef4 	addiu	a0,a0,-20748
80405a8c:	24a54f6c 	addiu	a1,a1,20332
80405a90:	24e7aef8 	addiu	a3,a3,-20744
80405a94:	00003021 	move	a2,zero
80405a98:	2442af30 	addiu	v0,v0,-20688
80405a9c:	afa20010 	sw	v0,16(sp)
80405aa0:	0c10420b 	jal	8041082c <cmd_addcmd>
80405aa4:	afb00014 	sw	s0,20(sp)
80405aa8:	0c101d2e 	jal	804074b8 <printSysInfo>
80405aac:	00000000 	nop
80405ab0:	0c10184e 	jal	80406138 <enet_init>
80405ab4:	00000000 	nop
80405ab8:	16200004 	bnez	s1,80405acc <bcm63xx_run+0x200>
80405abc:	8fbf0020 	lw	ra,32(sp)
80405ac0:	0c10159c 	jal	80405670 <autoRun>
80405ac4:	00002021 	move	a0,zero
80405ac8:	8fbf0020 	lw	ra,32(sp)
80405acc:	8fb1001c 	lw	s1,28(sp)
80405ad0:	8fb00018 	lw	s0,24(sp)
80405ad4:	081010c6 	j	80404318 <setBreakIntoCfeLed>
80405ad8:	27bd0028 	addiu	sp,sp,40

80405adc <parseFilename>:
80405adc:	27bdffe8 	addiu	sp,sp,-24
80405ae0:	afbf0010 	sw	ra,16(sp)
80405ae4:	0c1033bf 	jal	8040cefc <lib_strlen>
80405ae8:	00000000 	nop
80405aec:	8fbf0010 	lw	ra,16(sp)
80405af0:	28420032 	slti	v0,v0,50
80405af4:	38420001 	xori	v0,v0,0x1
80405af8:	03e00008 	jr	ra
80405afc:	27bd0018 	addiu	sp,sp,24

80405b00 <parseChoiceFh>:
80405b00:	80830000 	lb	v1,0(a0)
80405b04:	24020066 	li	v0,102
80405b08:	10620004 	beq	v1,v0,80405b1c <parseChoiceFh+0x1c>
80405b0c:	24040001 	li	a0,1
80405b10:	24020068 	li	v0,104
80405b14:	14620002 	bne	v1,v0,80405b20 <parseChoiceFh+0x20>
80405b18:	00000000 	nop
80405b1c:	00002021 	move	a0,zero
80405b20:	03e00008 	jr	ra
80405b24:	00801021 	move	v0,a0

80405b28 <parseBootPartition>:
80405b28:	90820000 	lbu	v0,0(a0)
80405b2c:	2442ffd0 	addiu	v0,v0,-48
80405b30:	304200ff 	andi	v0,v0,0xff
80405b34:	2c420002 	sltiu	v0,v0,2
80405b38:	03e00008 	jr	ra
80405b3c:	38420001 	xori	v0,v0,0x1

80405b40 <parseChoice09>:
80405b40:	80820000 	lb	v0,0(a0)
80405b44:	2442ffd0 	addiu	v0,v0,-48
80405b48:	2c42000a 	sltiu	v0,v0,10
80405b4c:	03e00008 	jr	ra
80405b50:	38420001 	xori	v0,v0,0x1

80405b54 <lib_parseipaddr>:
80405b54:	27bdffd8 	addiu	sp,sp,-40
80405b58:	afb3001c 	sw	s3,28(sp)
80405b5c:	afb00010 	sw	s0,16(sp)
80405b60:	afbf0024 	sw	ra,36(sp)
80405b64:	afb40020 	sw	s4,32(sp)
80405b68:	afb20018 	sw	s2,24(sp)
80405b6c:	afb10014 	sw	s1,20(sp)
80405b70:	90830000 	lbu	v1,0(a0)
80405b74:	00808021 	move	s0,a0
80405b78:	1060000e 	beqz	v1,80405bb4 <lib_parseipaddr+0x60>
80405b7c:	00a09821 	move	s3,a1
80405b80:	2406002e 	li	a2,46
80405b84:	2462ffd0 	addiu	v0,v1,-48
80405b88:	304200ff 	andi	v0,v0,0xff
80405b8c:	2c45000a 	sltiu	a1,v0,10
80405b90:	00031600 	sll	v0,v1,0x18
80405b94:	00021603 	sra	v0,v0,0x18
80405b98:	10460003 	beq	v0,a2,80405ba8 <lib_parseipaddr+0x54>
80405b9c:	26100001 	addiu	s0,s0,1
80405ba0:	10a0002d 	beqz	a1,80405c58 <lib_parseipaddr+0x104>
80405ba4:	00000000 	nop
80405ba8:	92030000 	lbu	v1,0(s0)
80405bac:	1460fff6 	bnez	v1,80405b88 <lib_parseipaddr+0x34>
80405bb0:	2462ffd0 	addiu	v0,v1,-48
80405bb4:	0c1034f6 	jal	8040d3d8 <lib_atoi>
80405bb8:	00808021 	move	s0,a0
80405bbc:	02002021 	move	a0,s0
80405bc0:	2405002e 	li	a1,46
80405bc4:	0c103424 	jal	8040d090 <lib_strchr>
80405bc8:	0040a021 	move	s4,v0
80405bcc:	10400028 	beqz	v0,80405c70 <lib_parseipaddr+0x11c>
80405bd0:	2404ffff 	li	a0,-1
80405bd4:	24500001 	addiu	s0,v0,1
80405bd8:	0c1034f6 	jal	8040d3d8 <lib_atoi>
80405bdc:	02002021 	move	a0,s0
80405be0:	02002021 	move	a0,s0
80405be4:	2405002e 	li	a1,46
80405be8:	0c103424 	jal	8040d090 <lib_strchr>
80405bec:	00409021 	move	s2,v0
80405bf0:	1040001f 	beqz	v0,80405c70 <lib_parseipaddr+0x11c>
80405bf4:	2404ffff 	li	a0,-1
80405bf8:	24500001 	addiu	s0,v0,1
80405bfc:	0c1034f6 	jal	8040d3d8 <lib_atoi>
80405c00:	02002021 	move	a0,s0
80405c04:	02002021 	move	a0,s0
80405c08:	2405002e 	li	a1,46
80405c0c:	0c103424 	jal	8040d090 <lib_strchr>
80405c10:	00408821 	move	s1,v0
80405c14:	10400016 	beqz	v0,80405c70 <lib_parseipaddr+0x11c>
80405c18:	2404ffff 	li	a0,-1
80405c1c:	0c1034f6 	jal	8040d3d8 <lib_atoi>
80405c20:	24440001 	addiu	a0,v0,1
80405c24:	00401821 	move	v1,v0
80405c28:	2e820100 	sltiu	v0,s4,256
80405c2c:	10400010 	beqz	v0,80405c70 <lib_parseipaddr+0x11c>
80405c30:	2404ffff 	li	a0,-1
80405c34:	2e420100 	sltiu	v0,s2,256
80405c38:	1040000d 	beqz	v0,80405c70 <lib_parseipaddr+0x11c>
80405c3c:	2e220100 	sltiu	v0,s1,256
80405c40:	1040000b 	beqz	v0,80405c70 <lib_parseipaddr+0x11c>
80405c44:	2c620100 	sltiu	v0,v1,256
80405c48:	1040000a 	beqz	v0,80405c74 <lib_parseipaddr+0x120>
80405c4c:	8fbf0024 	lw	ra,36(sp)
80405c50:	08101718 	j	80405c60 <lib_parseipaddr+0x10c>
80405c54:	a2630003 	sb	v1,3(s3)
80405c58:	0810171c 	j	80405c70 <lib_parseipaddr+0x11c>
80405c5c:	2404ffff 	li	a0,-1
80405c60:	a2740000 	sb	s4,0(s3)
80405c64:	a2720001 	sb	s2,1(s3)
80405c68:	a2710002 	sb	s1,2(s3)
80405c6c:	00002021 	move	a0,zero
80405c70:	8fbf0024 	lw	ra,36(sp)
80405c74:	8fb40020 	lw	s4,32(sp)
80405c78:	8fb3001c 	lw	s3,28(sp)
80405c7c:	8fb20018 	lw	s2,24(sp)
80405c80:	8fb10014 	lw	s1,20(sp)
80405c84:	8fb00010 	lw	s0,16(sp)
80405c88:	00801021 	move	v0,a0
80405c8c:	03e00008 	jr	ra
80405c90:	27bd0028 	addiu	sp,sp,40

80405c94 <parsexdigit>:
80405c94:	00042e00 	sll	a1,a0,0x18
80405c98:	00052e03 	sra	a1,a1,0x18
80405c9c:	24a2ffd0 	addiu	v0,a1,-48
80405ca0:	304300ff 	andi	v1,v0,0xff
80405ca4:	24a4ff9f 	addiu	a0,a1,-97
80405ca8:	2c63000a 	sltiu	v1,v1,10
80405cac:	14600008 	bnez	v1,80405cd0 <parsexdigit+0x3c>
80405cb0:	2c840006 	sltiu	a0,a0,6
80405cb4:	24a2ffbf 	addiu	v0,a1,-65
80405cb8:	2c430006 	sltiu	v1,v0,6
80405cbc:	14800004 	bnez	a0,80405cd0 <parsexdigit+0x3c>
80405cc0:	24a2ffa9 	addiu	v0,a1,-87
80405cc4:	2404ffff 	li	a0,-1
80405cc8:	10600002 	beqz	v1,80405cd4 <parsexdigit+0x40>
80405ccc:	24a2ffc9 	addiu	v0,a1,-55
80405cd0:	00402021 	move	a0,v0
80405cd4:	03e00008 	jr	ra
80405cd8:	00801021 	move	v0,a0

80405cdc <convertMaskStr>:
80405cdc:	27bdffa8 	addiu	sp,sp,-88
80405ce0:	afb3004c 	sw	s3,76(sp)
80405ce4:	afb00040 	sw	s0,64(sp)
80405ce8:	afbf0050 	sw	ra,80(sp)
80405cec:	00808021 	move	s0,a0
80405cf0:	afb20048 	sw	s2,72(sp)
80405cf4:	afb10044 	sw	s1,68(sp)
80405cf8:	0c1033bf 	jal	8040cefc <lib_strlen>
80405cfc:	00a09821 	move	s3,a1
80405d00:	24030008 	li	v1,8
80405d04:	1443002c 	bne	v0,v1,80405db8 <convertMaskStr+0xdc>
80405d08:	24040001 	li	a0,1
80405d0c:	08101747 	j	80405d1c <convertMaskStr+0x40>
80405d10:	27a40018 	addiu	a0,sp,24
80405d14:	0810176e 	j	80405db8 <convertMaskStr+0xdc>
80405d18:	24040001 	li	a0,1
80405d1c:	00002821 	move	a1,zero
80405d20:	0c103468 	jal	8040d1a0 <lib_memset>
80405d24:	24060002 	li	a2,2
80405d28:	00008821 	move	s1,zero
80405d2c:	92020000 	lbu	v0,0(s0)
80405d30:	26100001 	addiu	s0,s0,1
80405d34:	92030000 	lbu	v1,0(s0)
80405d38:	00022600 	sll	a0,v0,0x18
80405d3c:	00042603 	sra	a0,a0,0x18
80405d40:	a3a30019 	sb	v1,25(sp)
80405d44:	0c101725 	jal	80405c94 <parsexdigit>
80405d48:	a3a20018 	sb	v0,24(sp)
80405d4c:	27a30018 	addiu	v1,sp,24
80405d50:	00719021 	addu	s2,v1,s1
80405d54:	00602021 	move	a0,v1
80405d58:	2403ffff 	li	v1,-1
80405d5c:	26310001 	addiu	s1,s1,1
80405d60:	1043ffec 	beq	v0,v1,80405d14 <convertMaskStr+0x38>
80405d64:	26100001 	addiu	s0,s0,1
80405d68:	0c1034cf 	jal	8040d33c <lib_xtoi>
80405d6c:	00000000 	nop
80405d70:	2a230004 	slti	v1,s1,4
80405d74:	1460ffed 	bnez	v1,80405d2c <convertMaskStr+0x50>
80405d78:	a2420008 	sb	v0,8(s2)
80405d7c:	93a30023 	lbu	v1,35(sp)
80405d80:	93a60020 	lbu	a2,32(sp)
80405d84:	93a70021 	lbu	a3,33(sp)
80405d88:	93a20022 	lbu	v0,34(sp)
80405d8c:	27b00028 	addiu	s0,sp,40
80405d90:	3c058042 	lui	a1,0x8042
80405d94:	24a5b13c 	addiu	a1,a1,-20164
80405d98:	02002021 	move	a0,s0
80405d9c:	afa30014 	sw	v1,20(sp)
80405da0:	0c103311 	jal	8040cc44 <xsprintf>
80405da4:	afa20010 	sw	v0,16(sp)
80405da8:	02602021 	move	a0,s3
80405dac:	0c10338e 	jal	8040ce38 <lib_strcpy>
80405db0:	02002821 	move	a1,s0
80405db4:	00002021 	move	a0,zero
80405db8:	8fbf0050 	lw	ra,80(sp)
80405dbc:	8fb3004c 	lw	s3,76(sp)
80405dc0:	8fb20048 	lw	s2,72(sp)
80405dc4:	8fb10044 	lw	s1,68(sp)
80405dc8:	8fb00040 	lw	s0,64(sp)
80405dcc:	00801021 	move	v0,a0
80405dd0:	03e00008 	jr	ra
80405dd4:	27bd0058 	addiu	sp,sp,88

80405dd8 <parseIpAddr>:
80405dd8:	27bdff98 	addiu	sp,sp,-104
80405ddc:	afb1005c 	sw	s1,92(sp)
80405de0:	27b10030 	addiu	s1,sp,48
80405de4:	00802821 	move	a1,a0
80405de8:	02202021 	move	a0,s1
80405dec:	afbf0060 	sw	ra,96(sp)
80405df0:	0c10338e 	jal	8040ce38 <lib_strcpy>
80405df4:	afb00058 	sw	s0,88(sp)
80405df8:	02202021 	move	a0,s1
80405dfc:	0c103424 	jal	8040d090 <lib_strchr>
80405e00:	2405003a 	li	a1,58
80405e04:	00408021 	move	s0,v0
80405e08:	02202021 	move	a0,s1
80405e0c:	14400005 	bnez	v0,80405e24 <parseIpAddr+0x4c>
80405e10:	27a50010 	addiu	a1,sp,16
80405e14:	0c1016d5 	jal	80405b54 <lib_parseipaddr>
80405e18:	00000000 	nop
80405e1c:	08101792 	j	80405e48 <parseIpAddr+0x70>
80405e20:	00401821 	move	v1,v0
80405e24:	0c1016d5 	jal	80405b54 <lib_parseipaddr>
80405e28:	a0400000 	sb	zero,0(v0)
80405e2c:	26040001 	addiu	a0,s0,1
80405e30:	27a50018 	addiu	a1,sp,24
80405e34:	14400004 	bnez	v0,80405e48 <parseIpAddr+0x70>
80405e38:	24030001 	li	v1,1
80405e3c:	0c101737 	jal	80405cdc <convertMaskStr>
80405e40:	00000000 	nop
80405e44:	00401821 	move	v1,v0
80405e48:	8fbf0060 	lw	ra,96(sp)
80405e4c:	8fb1005c 	lw	s1,92(sp)
80405e50:	8fb00058 	lw	s0,88(sp)
80405e54:	00601021 	move	v0,v1
80405e58:	03e00008 	jr	ra
80405e5c:	27bd0068 	addiu	sp,sp,104

80405e60 <parseGwIpAddr>:
80405e60:	80820000 	lb	v0,0(a0)
80405e64:	27bdffe8 	addiu	sp,sp,-24
80405e68:	afbf0010 	sw	ra,16(sp)
80405e6c:	10400004 	beqz	v0,80405e80 <parseGwIpAddr+0x20>
80405e70:	00001821 	move	v1,zero
80405e74:	0c101776 	jal	80405dd8 <parseIpAddr>
80405e78:	00000000 	nop
80405e7c:	00401821 	move	v1,v0
80405e80:	8fbf0010 	lw	ra,16(sp)
80405e84:	00601021 	move	v0,v1
80405e88:	03e00008 	jr	ra
80405e8c:	27bd0018 	addiu	sp,sp,24

80405e90 <parsehwaddr>:
80405e90:	27bdffd8 	addiu	sp,sp,-40
80405e94:	afb3001c 	sw	s3,28(sp)
80405e98:	afb20018 	sw	s2,24(sp)
80405e9c:	afb00010 	sw	s0,16(sp)
80405ea0:	afbf0020 	sw	ra,32(sp)
80405ea4:	afb10014 	sw	s1,20(sp)
80405ea8:	00a09021 	move	s2,a1
80405eac:	0c1033bf 	jal	8040cefc <lib_strlen>
80405eb0:	00808021 	move	s0,a0
80405eb4:	2403000c 	li	v1,12
80405eb8:	1443001e 	bne	v0,v1,80405f34 <parsehwaddr+0xa4>
80405ebc:	24130006 	li	s3,6
80405ec0:	92040000 	lbu	a0,0(s0)
80405ec4:	10800057 	beqz	a0,80406024 <parsehwaddr+0x194>
80405ec8:	00000000 	nop
80405ecc:	00042600 	sll	a0,a0,0x18
80405ed0:	0c101725 	jal	80405c94 <parsexdigit>
80405ed4:	00042603 	sra	a0,a0,0x18
80405ed8:	26100001 	addiu	s0,s0,1
80405edc:	0440002a 	bltz	v0,80405f88 <parsehwaddr+0xf8>
80405ee0:	00408821 	move	s1,v0
80405ee4:	92020000 	lbu	v0,0(s0)
80405ee8:	2673ffff 	addiu	s3,s3,-1
80405eec:	26100001 	addiu	s0,s0,1
80405ef0:	00022600 	sll	a0,v0,0x18
80405ef4:	10400024 	beqz	v0,80405f88 <parsehwaddr+0xf8>
80405ef8:	00042603 	sra	a0,a0,0x18
80405efc:	0c101725 	jal	80405c94 <parsexdigit>
80405f00:	00000000 	nop
80405f04:	00402821 	move	a1,v0
80405f08:	00111100 	sll	v0,s1,0x4
80405f0c:	04a0001e 	bltz	a1,80405f88 <parsehwaddr+0xf8>
80405f10:	00451025 	or	v0,v0,a1
80405f14:	a2420000 	sb	v0,0(s2)
80405f18:	92040000 	lbu	a0,0(s0)
80405f1c:	10800041 	beqz	a0,80406024 <parsehwaddr+0x194>
80405f20:	26520001 	addiu	s2,s2,1
80405f24:	1e60ffe9 	bgtz	s3,80405ecc <parsehwaddr+0x3c>
80405f28:	00000000 	nop
80405f2c:	0810180a 	j	80406028 <parsehwaddr+0x198>
80405f30:	00002021 	move	a0,zero
80405f34:	0c1033bf 	jal	8040cefc <lib_strlen>
80405f38:	02002021 	move	a0,s0
80405f3c:	24030011 	li	v1,17
80405f40:	14430039 	bne	v0,v1,80406028 <parsehwaddr+0x198>
80405f44:	2404ffff 	li	a0,-1
80405f48:	92030002 	lbu	v1,2(s0)
80405f4c:	2402003a 	li	v0,58
80405f50:	14620036 	bne	v1,v0,8040602c <parsehwaddr+0x19c>
80405f54:	8fbf0020 	lw	ra,32(sp)
80405f58:	92020005 	lbu	v0,5(s0)
80405f5c:	14430033 	bne	v0,v1,8040602c <parsehwaddr+0x19c>
80405f60:	00000000 	nop
80405f64:	92030008 	lbu	v1,8(s0)
80405f68:	14620030 	bne	v1,v0,8040602c <parsehwaddr+0x19c>
80405f6c:	00000000 	nop
80405f70:	9204000b 	lbu	a0,11(s0)
80405f74:	14830004 	bne	a0,v1,80405f88 <parsehwaddr+0xf8>
80405f78:	00000000 	nop
80405f7c:	9202000e 	lbu	v0,14(s0)
80405f80:	10440003 	beq	v0,a0,80405f90 <parsehwaddr+0x100>
80405f84:	00000000 	nop
80405f88:	0810180a 	j	80406028 <parsehwaddr+0x198>
80405f8c:	2404ffff 	li	a0,-1
80405f90:	92040000 	lbu	a0,0(s0)
80405f94:	10800023 	beqz	a0,80406024 <parsehwaddr+0x194>
80405f98:	00042600 	sll	a0,a0,0x18
80405f9c:	0c101725 	jal	80405c94 <parsexdigit>
80405fa0:	00042603 	sra	a0,a0,0x18
80405fa4:	26100001 	addiu	s0,s0,1
80405fa8:	00408821 	move	s1,v0
80405fac:	0440fff6 	bltz	v0,80405f88 <parsehwaddr+0xf8>
80405fb0:	00402821 	move	a1,v0
80405fb4:	92020000 	lbu	v0,0(s0)
80405fb8:	00022600 	sll	a0,v0,0x18
80405fbc:	304300ff 	andi	v1,v0,0xff
80405fc0:	1060fff1 	beqz	v1,80405f88 <parsehwaddr+0xf8>
80405fc4:	00042603 	sra	a0,a0,0x18
80405fc8:	2402003a 	li	v0,58
80405fcc:	14620003 	bne	v1,v0,80405fdc <parsehwaddr+0x14c>
80405fd0:	00000000 	nop
80405fd4:	081017fc 	j	80405ff0 <parsehwaddr+0x160>
80405fd8:	00008821 	move	s1,zero
80405fdc:	0c101725 	jal	80405c94 <parsexdigit>
80405fe0:	00000000 	nop
80405fe4:	0440ffe8 	bltz	v0,80405f88 <parsehwaddr+0xf8>
80405fe8:	00402821 	move	a1,v0
80405fec:	26100001 	addiu	s0,s0,1
80405ff0:	00111100 	sll	v0,s1,0x4
80405ff4:	00451025 	or	v0,v0,a1
80405ff8:	a2420000 	sb	v0,0(s2)
80405ffc:	92020000 	lbu	v0,0(s0)
80406000:	26030001 	addiu	v1,s0,1
80406004:	2673ffff 	addiu	s3,s3,-1
80406008:	3842003a 	xori	v0,v0,0x3a
8040600c:	0062800a 	movz	s0,v1,v0
80406010:	92040000 	lbu	a0,0(s0)
80406014:	10800003 	beqz	a0,80406024 <parsehwaddr+0x194>
80406018:	26520001 	addiu	s2,s2,1
8040601c:	1e60ffdf 	bgtz	s3,80405f9c <parsehwaddr+0x10c>
80406020:	00042600 	sll	a0,a0,0x18
80406024:	00002021 	move	a0,zero
80406028:	8fbf0020 	lw	ra,32(sp)
8040602c:	8fb3001c 	lw	s3,28(sp)
80406030:	8fb20018 	lw	s2,24(sp)
80406034:	8fb10014 	lw	s1,20(sp)
80406038:	8fb00010 	lw	s0,16(sp)
8040603c:	00801021 	move	v0,a0
80406040:	03e00008 	jr	ra
80406044:	27bd0028 	addiu	sp,sp,40

80406048 <parseMacAddr>:
80406048:	27bdffb0 	addiu	sp,sp,-80
8040604c:	afbf0048 	sw	ra,72(sp)
80406050:	0c1017a4 	jal	80405e90 <parsehwaddr>
80406054:	27a50010 	addiu	a1,sp,16
80406058:	8fbf0048 	lw	ra,72(sp)
8040605c:	03e00008 	jr	ra
80406060:	27bd0050 	addiu	sp,sp,80

80406064 <parseBoardIdStr>:
80406064:	27bdffe8 	addiu	sp,sp,-24
80406068:	afb00010 	sw	s0,16(sp)
8040606c:	afbf0014 	sw	ra,20(sp)
80406070:	0c1034f6 	jal	8040d3d8 <lib_atoi>
80406074:	00000000 	nop
80406078:	04400006 	bltz	v0,80406094 <parseBoardIdStr+0x30>
8040607c:	00408021 	move	s0,v0
80406080:	0c101291 	jal	80404a44 <getNumberBoardIdNames>
80406084:	00000000 	nop
80406088:	0202102a 	slt	v0,s0,v0
8040608c:	14400002 	bnez	v0,80406098 <parseBoardIdStr+0x34>
80406090:	00001821 	move	v1,zero
80406094:	24030001 	li	v1,1
80406098:	8fbf0014 	lw	ra,20(sp)
8040609c:	8fb00010 	lw	s0,16(sp)
804060a0:	00601021 	move	v0,v1
804060a4:	03e00008 	jr	ra
804060a8:	27bd0018 	addiu	sp,sp,24

804060ac <parseMacAddrCount>:
804060ac:	27bdffe8 	addiu	sp,sp,-24
804060b0:	afbf0010 	sw	ra,16(sp)
804060b4:	0c1034f6 	jal	8040d3d8 <lib_atoi>
804060b8:	00000000 	nop
804060bc:	2442ffff 	addiu	v0,v0,-1
804060c0:	8fbf0010 	lw	ra,16(sp)
804060c4:	2c420020 	sltiu	v0,v0,32
804060c8:	38420001 	xori	v0,v0,0x1
804060cc:	03e00008 	jr	ra
804060d0:	27bd0018 	addiu	sp,sp,24

804060d4 <macNumToStr>:
804060d4:	27bdffd8 	addiu	sp,sp,-40
804060d8:	afbf0020 	sw	ra,32(sp)
804060dc:	00804021 	move	t0,a0
804060e0:	2402ffff 	li	v0,-1
804060e4:	10800011 	beqz	a0,8040612c <macNumToStr+0x58>
804060e8:	00a01821 	move	v1,a1
804060ec:	00a02021 	move	a0,a1
804060f0:	3c058042 	lui	a1,0x8042
804060f4:	1060000d 	beqz	v1,8040612c <macNumToStr+0x58>
804060f8:	24a5b148 	addiu	a1,a1,-20152
804060fc:	91060000 	lbu	a2,0(t0)
80406100:	91070001 	lbu	a3,1(t0)
80406104:	91090005 	lbu	t1,5(t0)
80406108:	91020002 	lbu	v0,2(t0)
8040610c:	91030003 	lbu	v1,3(t0)
80406110:	91080004 	lbu	t0,4(t0)
80406114:	afa20010 	sw	v0,16(sp)
80406118:	afa30014 	sw	v1,20(sp)
8040611c:	afa80018 	sw	t0,24(sp)
80406120:	0c103311 	jal	8040cc44 <xsprintf>
80406124:	afa9001c 	sw	t1,28(sp)
80406128:	00001021 	move	v0,zero
8040612c:	8fbf0020 	lw	ra,32(sp)
80406130:	03e00008 	jr	ra
80406134:	27bd0028 	addiu	sp,sp,40

80406138 <enet_init>:
80406138:	27bdff60 	addiu	sp,sp,-160
8040613c:	3c038042 	lui	v1,0x8042
80406140:	afbf0098 	sw	ra,152(sp)
80406144:	afb30094 	sw	s3,148(sp)
80406148:	afb20090 	sw	s2,144(sp)
8040614c:	afb1008c 	sw	s1,140(sp)
80406150:	afb00088 	sw	s0,136(sp)
80406154:	2462ac00 	addiu	v0,v1,-21504
80406158:	90420004 	lbu	v0,4(v0)
8040615c:	8c63ac00 	lw	v1,-21504(v1)
80406160:	2404000a 	li	a0,10
80406164:	a3a20014 	sb	v0,20(sp)
80406168:	0c104fa8 	jal	80413ea0 <net_getparam>
8040616c:	afa30010 	sw	v1,16(sp)
80406170:	10400009 	beqz	v0,80406198 <enet_init+0x60>
80406174:	00402021 	move	a0,v0
80406178:	0c1033c8 	jal	8040cf20 <lib_strcmp>
8040617c:	27a50010 	addiu	a1,sp,16
80406180:	10400010 	beqz	v0,804061c4 <enet_init+0x8c>
80406184:	00000000 	nop
80406188:	0c104fe4 	jal	80413f90 <net_uninit>
8040618c:	00000000 	nop
80406190:	08101872 	j	804061c8 <enet_init+0x90>
80406194:	27b00030 	addiu	s0,sp,48
80406198:	0c105013 	jal	8041404c <net_init>
8040619c:	27a40010 	addiu	a0,sp,16
804061a0:	04410009 	bgez	v0,804061c8 <enet_init+0x90>
804061a4:	27b00030 	addiu	s0,sp,48
804061a8:	3c058042 	lui	a1,0x8042
804061ac:	00402021 	move	a0,v0
804061b0:	24a5b16c 	addiu	a1,a1,-20116
804061b4:	0c1043c9 	jal	80410f24 <ui_showerror>
804061b8:	27a60010 	addiu	a2,sp,16
804061bc:	081018b0 	j	804062c0 <enet_init+0x188>
804061c0:	8fbf0098 	lw	ra,152(sp)
804061c4:	27b00030 	addiu	s0,sp,48
804061c8:	3c058042 	lui	a1,0x8042
804061cc:	24060006 	li	a2,6
804061d0:	02002021 	move	a0,s0
804061d4:	0c10345e 	jal	8040d178 <lib_memcpy>
804061d8:	24a52bd0 	addiu	a1,a1,11216
804061dc:	02002821 	move	a1,s0
804061e0:	24040004 	li	a0,4
804061e4:	0c104fb4 	jal	80413ed0 <net_setparam>
804061e8:	3c108042 	lui	s0,0x8042
804061ec:	0c1033bf 	jal	8040cefc <lib_strlen>
804061f0:	260429f8 	addiu	a0,s0,10744
804061f4:	27b20018 	addiu	s2,sp,24
804061f8:	27a40038 	addiu	a0,sp,56
804061fc:	3c138042 	lui	s3,0x8042
80406200:	1c400003 	bgtz	v0,80406210 <enet_init+0xd8>
80406204:	260529f8 	addiu	a1,s0,10744
80406208:	3c058042 	lui	a1,0x8042
8040620c:	24a5b198 	addiu	a1,a1,-20072
80406210:	0c10338e 	jal	8040ce38 <lib_strcpy>
80406214:	27b10038 	addiu	s1,sp,56
80406218:	02202021 	move	a0,s1
8040621c:	0c1016d5 	jal	80405b54 <lib_parseipaddr>
80406220:	02402821 	move	a1,s2
80406224:	02402821 	move	a1,s2
80406228:	0c104fb4 	jal	80413ed0 <net_setparam>
8040622c:	00002021 	move	a0,zero
80406230:	0c1033bf 	jal	8040cefc <lib_strlen>
80406234:	26642a0a 	addiu	a0,s3,10762
80406238:	1c400003 	bgtz	v0,80406248 <enet_init+0x110>
8040623c:	26652a0a 	addiu	a1,s3,10762
80406240:	3c058042 	lui	a1,0x8042
80406244:	24a5b1a4 	addiu	a1,a1,-20060
80406248:	27b00020 	addiu	s0,sp,32
8040624c:	0c10338e 	jal	8040ce38 <lib_strcpy>
80406250:	02202021 	move	a0,s1
80406254:	02002821 	move	a1,s0
80406258:	0c1016d5 	jal	80405b54 <lib_parseipaddr>
8040625c:	02202021 	move	a0,s1
80406260:	02002821 	move	a1,s0
80406264:	24040001 	li	a0,1
80406268:	0c104fb4 	jal	80413ed0 <net_setparam>
8040626c:	3c108042 	lui	s0,0x8042
80406270:	0c1033bf 	jal	8040cefc <lib_strlen>
80406274:	26042a2e 	addiu	a0,s0,10798
80406278:	1840000e 	blez	v0,804062b4 <enet_init+0x17c>
8040627c:	3c058042 	lui	a1,0x8042
80406280:	24a5b1b4 	addiu	a1,a1,-20044
80406284:	0c10338e 	jal	8040ce38 <lib_strcpy>
80406288:	02202021 	move	a0,s1
8040628c:	26052a2e 	addiu	a1,s0,10798
80406290:	02202021 	move	a0,s1
80406294:	0c10338e 	jal	8040ce38 <lib_strcpy>
80406298:	27b00028 	addiu	s0,sp,40
8040629c:	02202021 	move	a0,s1
804062a0:	0c1016d5 	jal	80405b54 <lib_parseipaddr>
804062a4:	02002821 	move	a1,s0
804062a8:	02002821 	move	a1,s0
804062ac:	0c104fb4 	jal	80413ed0 <net_setparam>
804062b0:	24040002 	li	a0,2
804062b4:	0c10505e 	jal	80414178 <net_setnetvars>
804062b8:	00000000 	nop
804062bc:	8fbf0098 	lw	ra,152(sp)
804062c0:	8fb30094 	lw	s3,148(sp)
804062c4:	8fb20090 	lw	s2,144(sp)
804062c8:	8fb1008c 	lw	s1,140(sp)
804062cc:	8fb00088 	lw	s0,136(sp)
804062d0:	03e00008 	jr	ra
804062d4:	27bd00a0 	addiu	sp,sp,160

804062d8 <getCrc32>:
804062d8:	10a0000f 	beqz	a1,80406318 <getCrc32+0x40>
804062dc:	24a7ffff 	addiu	a3,a1,-1
804062e0:	3c028042 	lui	v0,0x8042
804062e4:	2448c8fc 	addiu	t0,v0,-14084
804062e8:	2405ffff 	li	a1,-1
804062ec:	90820000 	lbu	v0,0(a0)
804062f0:	00061a02 	srl	v1,a2,0x8
804062f4:	24e7ffff 	addiu	a3,a3,-1
804062f8:	00c21026 	xor	v0,a2,v0
804062fc:	304200ff 	andi	v0,v0,0xff
80406300:	00021080 	sll	v0,v0,0x2
80406304:	00481021 	addu	v0,v0,t0
80406308:	8c420000 	lw	v0,0(v0)
8040630c:	24840001 	addiu	a0,a0,1
80406310:	14e5fff6 	bne	a3,a1,804062ec <getCrc32+0x14>
80406314:	00623026 	xor	a2,v1,v0
80406318:	03e00008 	jr	ra
8040631c:	00c01021 	move	v0,a2

80406320 <checkChipId>:
80406320:	27bdffe0 	addiu	sp,sp,-32
80406324:	afb20018 	sw	s2,24(sp)
80406328:	afb10014 	sw	s1,20(sp)
8040632c:	afb00010 	sw	s0,16(sp)
80406330:	afbf001c 	sw	ra,28(sp)
80406334:	3c02fffe 	lui	v0,0xfffe
80406338:	8c420000 	lw	v0,0(v0)
8040633c:	00808821 	move	s1,a0
80406340:	00a02021 	move	a0,a1
80406344:	3c058042 	lui	a1,0x8042
80406348:	24a5b1bc 	addiu	a1,a1,-20036
8040634c:	24060008 	li	a2,8
80406350:	0c10344d 	jal	8040d134 <lib_memcmp>
80406354:	00028402 	srl	s0,v0,0x10
80406358:	00009021 	move	s2,zero
8040635c:	10400026 	beqz	v0,804063f8 <checkChipId+0xd8>
80406360:	00001821 	move	v1,zero
80406364:	0c1034f6 	jal	8040d3d8 <lib_atoi>
80406368:	02202021 	move	a0,s1
8040636c:	00408821 	move	s1,v0
80406370:	24026348 	li	v0,25416
80406374:	12020010 	beq	s0,v0,804063b8 <checkChipId+0x98>
80406378:	240218cc 	li	v0,6348
8040637c:	2e026349 	sltiu	v0,s0,25417
80406380:	10400006 	beqz	v0,8040639c <checkChipId+0x7c>
80406384:	24026358 	li	v0,25432
80406388:	24026338 	li	v0,25400
8040638c:	12020007 	beq	s0,v0,804063ac <checkChipId+0x8c>
80406390:	3c048042 	lui	a0,0x8042
80406394:	081018f2 	j	804063c8 <checkChipId+0xa8>
80406398:	2484b1c8 	addiu	a0,a0,-20024
8040639c:	12020005 	beq	s0,v0,804063b4 <checkChipId+0x94>
804063a0:	3c048042 	lui	a0,0x8042
804063a4:	081018f2 	j	804063c8 <checkChipId+0xa8>
804063a8:	2484b1c8 	addiu	a0,a0,-20024
804063ac:	081018ee 	j	804063b8 <checkChipId+0x98>
804063b0:	240218c2 	li	v0,6338
804063b4:	240218d6 	li	v0,6358
804063b8:	12220007 	beq	s1,v0,804063d8 <checkChipId+0xb8>
804063bc:	2402ffff 	li	v0,-1
804063c0:	081018f6 	j	804063d8 <checkChipId+0xb8>
804063c4:	2412ffff 	li	s2,-1
804063c8:	0c10331a 	jal	8040cc68 <xprintf>
804063cc:	02002821 	move	a1,s0
804063d0:	2412ffff 	li	s2,-1
804063d4:	2402ffff 	li	v0,-1
804063d8:	16420007 	bne	s2,v0,804063f8 <checkChipId+0xd8>
804063dc:	02401821 	move	v1,s2
804063e0:	3c048042 	lui	a0,0x8042
804063e4:	2484b1e8 	addiu	a0,a0,-19992
804063e8:	02202821 	move	a1,s1
804063ec:	0c10331a 	jal	8040cc68 <xprintf>
804063f0:	02003021 	move	a2,s0
804063f4:	02401821 	move	v1,s2
804063f8:	8fbf001c 	lw	ra,28(sp)
804063fc:	8fb20018 	lw	s2,24(sp)
80406400:	8fb10014 	lw	s1,20(sp)
80406404:	8fb00010 	lw	s0,16(sp)
80406408:	00601021 	move	v0,v1
8040640c:	03e00008 	jr	ra
80406410:	27bd0020 	addiu	sp,sp,32

80406414 <verifyTag>:
80406414:	27bdffb8 	addiu	sp,sp,-72
80406418:	afb20038 	sw	s2,56(sp)
8040641c:	00809021 	move	s2,a0
80406420:	27a40010 	addiu	a0,sp,16
80406424:	afbf0040 	sw	ra,64(sp)
80406428:	afb3003c 	sw	s3,60(sp)
8040642c:	afb10034 	sw	s1,52(sp)
80406430:	00a09821 	move	s3,a1
80406434:	0c100c46 	jal	80403118 <kerSysFlashAddrInfoGet>
80406438:	afb00030 	sw	s0,48(sp)
8040643c:	0c1034f6 	jal	8040d3d8 <lib_atoi>
80406440:	02402021 	move	a0,s2
80406444:	3c048042 	lui	a0,0x8042
80406448:	2484b224 	addiu	a0,a0,-19932
8040644c:	0c1034f6 	jal	8040d3d8 <lib_atoi>
80406450:	00408021 	move	s0,v0
80406454:	3c048042 	lui	a0,0x8042
80406458:	2484b228 	addiu	a0,a0,-19928
8040645c:	0c1034f6 	jal	8040d3d8 <lib_atoi>
80406460:	00408821 	move	s1,v0
80406464:	00401821 	move	v1,v0
80406468:	0211102a 	slt	v0,s0,s1
8040646c:	14400003 	bnez	v0,8040647c <verifyTag+0x68>
80406470:	0070102a 	slt	v0,v1,s0
80406474:	10400009 	beqz	v0,8040649c <verifyTag+0x88>
80406478:	26440026 	addiu	a0,s2,38
8040647c:	12600016 	beqz	s3,804064d8 <verifyTag+0xc4>
80406480:	3c048042 	lui	a0,0x8042
80406484:	2484b22c 	addiu	a0,a0,-19924
80406488:	02002821 	move	a1,s0
8040648c:	0c10331a 	jal	8040cc68 <xprintf>
80406490:	02203021 	move	a2,s1
80406494:	08101937 	j	804064dc <verifyTag+0xc8>
80406498:	2404ffff 	li	a0,-1
8040649c:	0c1018c8 	jal	80406320 <checkChipId>
804064a0:	26450018 	addiu	a1,s2,24
804064a4:	1440000d 	bnez	v0,804064dc <verifyTag+0xc8>
804064a8:	2404ffff 	li	a0,-1
804064ac:	02402021 	move	a0,s2
804064b0:	240500ec 	li	a1,236
804064b4:	0c1018b6 	jal	804062d8 <getCrc32>
804064b8:	2406ffff 	li	a2,-1
804064bc:	8e4300ec 	lw	v1,236(s2)
804064c0:	10430006 	beq	v0,v1,804064dc <verifyTag+0xc8>
804064c4:	00002021 	move	a0,zero
804064c8:	12600003 	beqz	s3,804064d8 <verifyTag+0xc4>
804064cc:	3c048042 	lui	a0,0x8042
804064d0:	0c10331a 	jal	8040cc68 <xprintf>
804064d4:	2484b27c 	addiu	a0,a0,-19844
804064d8:	2404ffff 	li	a0,-1
804064dc:	8fbf0040 	lw	ra,64(sp)
804064e0:	8fb3003c 	lw	s3,60(sp)
804064e4:	8fb20038 	lw	s2,56(sp)
804064e8:	8fb10034 	lw	s1,52(sp)
804064ec:	8fb00030 	lw	s0,48(sp)
804064f0:	00801021 	move	v0,a0
804064f4:	03e00008 	jr	ra
804064f8:	27bd0048 	addiu	sp,sp,72

804064fc <getTagFromPartition>:
804064fc:	27bdffe0 	addiu	sp,sp,-32
80406500:	afb10014 	sw	s1,20(sp)
80406504:	00808821 	move	s1,a0
80406508:	afb20018 	sw	s2,24(sp)
8040650c:	afb00010 	sw	s0,16(sp)
80406510:	afbf001c 	sw	ra,28(sp)
80406514:	0c100fc4 	jal	80403f10 <flash_get_memptr>
80406518:	00002021 	move	a0,zero
8040651c:	3c040001 	lui	a0,0x1
80406520:	00408021 	move	s0,v0
80406524:	00442021 	addu	a0,v0,a0
80406528:	24020001 	li	v0,1
8040652c:	16220007 	bne	s1,v0,8040654c <getTagFromPartition+0x50>
80406530:	00009021 	move	s2,zero
80406534:	0c100fcc 	jal	80403f30 <flash_get_blk>
80406538:	00000000 	nop
8040653c:	00408021 	move	s0,v0
80406540:	3c028042 	lui	v0,0x8042
80406544:	08101960 	j	80406580 <getTagFromPartition+0x84>
80406548:	2451e608 	addiu	s1,v0,-6648
8040654c:	24020002 	li	v0,2
80406550:	1622001e 	bne	s1,v0,804065cc <getTagFromPartition+0xd0>
80406554:	02401021 	move	v0,s2
80406558:	0c100f41 	jal	80403d04 <flash_get_total_size>
8040655c:	00000000 	nop
80406560:	000227c2 	srl	a0,v0,0x1f
80406564:	00822021 	addu	a0,a0,v0
80406568:	00042043 	sra	a0,a0,0x1
8040656c:	0c100fcc 	jal	80403f30 <flash_get_blk>
80406570:	02042021 	addu	a0,s0,a0
80406574:	00408021 	move	s0,v0
80406578:	3c028042 	lui	v0,0x8042
8040657c:	2451e708 	addiu	s1,v0,-6392
80406580:	02202021 	move	a0,s1
80406584:	00002821 	move	a1,zero
80406588:	1200000f 	beqz	s0,804065c8 <getTagFromPartition+0xcc>
8040658c:	24060100 	li	a2,256
80406590:	0c103468 	jal	8040d1a0 <lib_memset>
80406594:	02209021 	move	s2,s1
80406598:	3204ffff 	andi	a0,s0,0xffff
8040659c:	00002821 	move	a1,zero
804065a0:	24070100 	li	a3,256
804065a4:	0c100fa4 	jal	80403e90 <flash_read_buf>
804065a8:	02203021 	move	a2,s1
804065ac:	02202021 	move	a0,s1
804065b0:	240500ec 	li	a1,236
804065b4:	0c1018b6 	jal	804062d8 <getCrc32>
804065b8:	2406ffff 	li	a2,-1
804065bc:	8e2300ec 	lw	v1,236(s1)
804065c0:	00431026 	xor	v0,v0,v1
804065c4:	0002900b 	movn	s2,zero,v0
804065c8:	02401021 	move	v0,s2
804065cc:	8fbf001c 	lw	ra,28(sp)
804065d0:	8fb20018 	lw	s2,24(sp)
804065d4:	8fb10014 	lw	s1,20(sp)
804065d8:	8fb00010 	lw	s0,16(sp)
804065dc:	03e00008 	jr	ra
804065e0:	27bd0020 	addiu	sp,sp,32

804065e4 <getPartitionFromTag>:
804065e4:	27bdffd8 	addiu	sp,sp,-40
804065e8:	afb3001c 	sw	s3,28(sp)
804065ec:	afb20018 	sw	s2,24(sp)
804065f0:	afbf0024 	sw	ra,36(sp)
804065f4:	afb40020 	sw	s4,32(sp)
804065f8:	afb10014 	sw	s1,20(sp)
804065fc:	afb00010 	sw	s0,16(sp)
80406600:	00809021 	move	s2,a0
80406604:	1080001d 	beqz	a0,8040667c <getPartitionFromTag+0x98>
80406608:	00009821 	move	s3,zero
8040660c:	0c10193f 	jal	804064fc <getTagFromPartition>
80406610:	24040001 	li	a0,1
80406614:	24040002 	li	a0,2
80406618:	0c10193f 	jal	804064fc <getTagFromPartition>
8040661c:	00408821 	move	s1,v0
80406620:	2644008a 	addiu	a0,s2,138
80406624:	0c1034f6 	jal	8040d3d8 <lib_atoi>
80406628:	00408021 	move	s0,v0
8040662c:	00409021 	move	s2,v0
80406630:	12200004 	beqz	s1,80406644 <getPartitionFromTag+0x60>
80406634:	2414ffff 	li	s4,-1
80406638:	0c1034f6 	jal	8040d3d8 <lib_atoi>
8040663c:	2624008a 	addiu	a0,s1,138
80406640:	0040a021 	move	s4,v0
80406644:	12000003 	beqz	s0,80406654 <getPartitionFromTag+0x70>
80406648:	2402ffff 	li	v0,-1
8040664c:	0c1034f6 	jal	8040d3d8 <lib_atoi>
80406650:	2604008a 	addiu	a0,s0,138
80406654:	12200005 	beqz	s1,8040666c <getPartitionFromTag+0x88>
80406658:	00000000 	nop
8040665c:	16540003 	bne	s2,s4,8040666c <getPartitionFromTag+0x88>
80406660:	00000000 	nop
80406664:	0810199f 	j	8040667c <getPartitionFromTag+0x98>
80406668:	24130001 	li	s3,1
8040666c:	12000003 	beqz	s0,8040667c <getPartitionFromTag+0x98>
80406670:	02421826 	xor	v1,s2,v0
80406674:	24020002 	li	v0,2
80406678:	0043980a 	movz	s3,v0,v1
8040667c:	02601021 	move	v0,s3
80406680:	8fbf0024 	lw	ra,36(sp)
80406684:	8fb40020 	lw	s4,32(sp)
80406688:	8fb3001c 	lw	s3,28(sp)
8040668c:	8fb20018 	lw	s2,24(sp)
80406690:	8fb10014 	lw	s1,20(sp)
80406694:	8fb00010 	lw	s0,16(sp)
80406698:	03e00008 	jr	ra
8040669c:	27bd0028 	addiu	sp,sp,40

804066a0 <convertBootInfo>:
804066a0:	27bdffd8 	addiu	sp,sp,-40
804066a4:	afb00010 	sw	s0,16(sp)
804066a8:	3c108042 	lui	s0,0x8042
804066ac:	afb20018 	sw	s2,24(sp)
804066b0:	261229f8 	addiu	s2,s0,10744
804066b4:	240600b8 	li	a2,184
804066b8:	02402021 	move	a0,s2
804066bc:	00002821 	move	a1,zero
804066c0:	afbf0020 	sw	ra,32(sp)
804066c4:	afb3001c 	sw	s3,28(sp)
804066c8:	0c103468 	jal	8040d1a0 <lib_memset>
804066cc:	afb10014 	sw	s1,20(sp)
804066d0:	3c058042 	lui	a1,0x8042
804066d4:	24a5c67e 	addiu	a1,a1,-14722
804066d8:	0c10338e 	jal	8040ce38 <lib_strcpy>
804066dc:	02402021 	move	a0,s2
804066e0:	02402021 	move	a0,s2
804066e4:	0c103424 	jal	8040d090 <lib_strchr>
804066e8:	2405003a 	li	a1,58
804066ec:	3c058042 	lui	a1,0x8042
804066f0:	3c118042 	lui	s1,0x8042
804066f4:	3c138042 	lui	s3,0x8042
804066f8:	24440001 	addiu	a0,v0,1
804066fc:	10400003 	beqz	v0,8040670c <convertBootInfo+0x6c>
80406700:	24a52a0a 	addiu	a1,a1,10762
80406704:	0c101737 	jal	80405cdc <convertMaskStr>
80406708:	a0400000 	sb	zero,0(v0)
8040670c:	3c058042 	lui	a1,0x8042
80406710:	26242a1c 	addiu	a0,s1,10780
80406714:	0c10338e 	jal	8040ce38 <lib_strcpy>
80406718:	24a5c6c6 	addiu	a1,a1,-14650
8040671c:	26242a1c 	addiu	a0,s1,10780
80406720:	0c103424 	jal	8040d090 <lib_strchr>
80406724:	2405003a 	li	a1,58
80406728:	3c058042 	lui	a1,0x8042
8040672c:	24a5c70e 	addiu	a1,a1,-14578
80406730:	10400002 	beqz	v0,8040673c <convertBootInfo+0x9c>
80406734:	26642a2e 	addiu	a0,s3,10798
80406738:	a0400000 	sb	zero,0(v0)
8040673c:	0c10338e 	jal	8040ce38 <lib_strcpy>
80406740:	00000000 	nop
80406744:	26642a2e 	addiu	a0,s3,10798
80406748:	0c103424 	jal	8040d090 <lib_strchr>
8040674c:	2405003a 	li	a1,58
80406750:	00401821 	move	v1,v0
80406754:	3c048042 	lui	a0,0x8042
80406758:	3c028042 	lui	v0,0x8042
8040675c:	3c058042 	lui	a1,0x8042
80406760:	2450c674 	addiu	s0,v0,-14732
80406764:	24842a41 	addiu	a0,a0,10817
80406768:	10600002 	beqz	v1,80406774 <convertBootInfo+0xd4>
8040676c:	24a5c79e 	addiu	a1,a1,-14434
80406770:	a0600000 	sb	zero,0(v1)
80406774:	920200e2 	lbu	v0,226(s0)
80406778:	0c10338e 	jal	8040ce38 <lib_strcpy>
8040677c:	a2420048 	sb	v0,72(s2)
80406780:	3c048042 	lui	a0,0x8042
80406784:	3c058042 	lui	a1,0x8042
80406788:	24842a73 	addiu	a0,a0,10867
8040678c:	0c10338e 	jal	8040ce38 <lib_strcpy>
80406790:	24a5c7e6 	addiu	a1,a1,-14362
80406794:	820201ba 	lb	v0,442(s0)
80406798:	92030202 	lbu	v1,514(s0)
8040679c:	8fbf0020 	lw	ra,32(sp)
804067a0:	2442ffd0 	addiu	v0,v0,-48
804067a4:	a24300b4 	sb	v1,180(s2)
804067a8:	ae4200b0 	sw	v0,176(s2)
804067ac:	8fb3001c 	lw	s3,28(sp)
804067b0:	8fb20018 	lw	s2,24(sp)
804067b4:	8fb10014 	lw	s1,20(sp)
804067b8:	8fb00010 	lw	s0,16(sp)
804067bc:	03e00008 	jr	ra
804067c0:	27bd0028 	addiu	sp,sp,40

804067c4 <processPrompt>:
804067c4:	27bdff98 	addiu	sp,sp,-104
804067c8:	afb5005c 	sw	s5,92(sp)
804067cc:	0080a821 	move	s5,a0
804067d0:	3c048042 	lui	a0,0x8042
804067d4:	2484b2a0 	addiu	a0,a0,-19808
804067d8:	afbf0060 	sw	ra,96(sp)
804067dc:	afb40058 	sw	s4,88(sp)
804067e0:	afb30054 	sw	s3,84(sp)
804067e4:	afb20050 	sw	s2,80(sp)
804067e8:	00a09821 	move	s3,a1
804067ec:	afb1004c 	sw	s1,76(sp)
804067f0:	0c10331a 	jal	8040cc68 <xprintf>
804067f4:	afb00048 	sw	s0,72(sp)
804067f8:	3c048042 	lui	a0,0x8042
804067fc:	0c10331a 	jal	8040cc68 <xprintf>
80406800:	2484b2c8 	addiu	a0,a0,-19768
80406804:	3c048042 	lui	a0,0x8042
80406808:	0c10331a 	jal	8040cc68 <xprintf>
8040680c:	2484b2f0 	addiu	a0,a0,-19728
80406810:	3c048042 	lui	a0,0x8042
80406814:	0c10331a 	jal	8040cc68 <xprintf>
80406818:	2484b31c 	addiu	a0,a0,-19684
8040681c:	27a40010 	addiu	a0,sp,16
80406820:	00002821 	move	a1,zero
80406824:	24060032 	li	a2,50
80406828:	00009021 	move	s2,zero
8040682c:	0c103468 	jal	8040d1a0 <lib_memset>
80406830:	0000a021 	move	s4,zero
80406834:	1a600078 	blez	s3,80406a18 <processPrompt+0x254>
80406838:	26b1000a 	addiu	s1,s5,10
8040683c:	02a08021 	move	s0,s5
80406840:	8e020044 	lw	v0,68(s0)
80406844:	14400006 	bnez	v0,80406860 <processPrompt+0x9c>
80406848:	93a30010 	lbu	v1,16(sp)
8040684c:	2402002d 	li	v0,45
80406850:	14620050 	bne	v1,v0,80406994 <processPrompt+0x1d0>
80406854:	00000000 	nop
80406858:	1e400028 	bgtz	s2,804068fc <processPrompt+0x138>
8040685c:	00000000 	nop
80406860:	0c1033bf 	jal	8040cefc <lib_strlen>
80406864:	02202021 	move	a0,s1
80406868:	18400004 	blez	v0,8040687c <processPrompt+0xb8>
8040686c:	8e050000 	lw	a1,0(s0)
80406870:	3c048042 	lui	a0,0x8042
80406874:	08101a21 	j	80406884 <processPrompt+0xc0>
80406878:	2484b340 	addiu	a0,a0,-19648
8040687c:	3c048042 	lui	a0,0x8042
80406880:	2484b34c 	addiu	a0,a0,-19636
80406884:	0c10331a 	jal	8040cc68 <xprintf>
80406888:	02203021 	move	a2,s1
8040688c:	27a40010 	addiu	a0,sp,16
80406890:	00002821 	move	a1,zero
80406894:	0c103468 	jal	8040d1a0 <lib_memset>
80406898:	24060032 	li	a2,50
8040689c:	8e06003c 	lw	a2,60(s0)
804068a0:	3c048042 	lui	a0,0x8042
804068a4:	24849608 	addiu	a0,a0,-27128
804068a8:	27a50010 	addiu	a1,sp,16
804068ac:	0c103b08 	jal	8040ec20 <console_readline>
804068b0:	24c60001 	addiu	a2,a2,1
804068b4:	93a30010 	lbu	v1,16(sp)
804068b8:	2402002e 	li	v0,46
804068bc:	10620021 	beq	v1,v0,80406944 <processPrompt+0x180>
804068c0:	2862002f 	slti	v0,v1,47
804068c4:	10400007 	beqz	v0,804068e4 <processPrompt+0x120>
804068c8:	24020078 	li	v0,120
804068cc:	1060002a 	beqz	v1,80406978 <processPrompt+0x1b4>
804068d0:	2402002d 	li	v0,45
804068d4:	10620007 	beq	v1,v0,804068f4 <processPrompt+0x130>
804068d8:	00000000 	nop
804068dc:	08101a69 	j	804069a4 <processPrompt+0x1e0>
804068e0:	8e020040 	lw	v0,64(s0)
804068e4:	10620009 	beq	v1,v0,8040690c <processPrompt+0x148>
804068e8:	00000000 	nop
804068ec:	08101a69 	j	804069a4 <processPrompt+0x1e0>
804068f0:	8e020040 	lw	v0,64(s0)
804068f4:	1a400046 	blez	s2,80406a10 <processPrompt+0x24c>
804068f8:	0253102a 	slt	v0,s2,s3
804068fc:	2652ffff 	addiu	s2,s2,-1
80406900:	2610ffb8 	addiu	s0,s0,-72
80406904:	08101a83 	j	80406a0c <processPrompt+0x248>
80406908:	2631ffb8 	addiu	s1,s1,-72
8040690c:	8e020040 	lw	v0,64(s0)
80406910:	10400005 	beqz	v0,80406928 <processPrompt+0x164>
80406914:	00000000 	nop
80406918:	0040f809 	jalr	v0
8040691c:	2604000a 	addiu	a0,s0,10
80406920:	14400026 	bnez	v0,804069bc <processPrompt+0x1f8>
80406924:	00000000 	nop
80406928:	001310c0 	sll	v0,s3,0x3
8040692c:	00531021 	addu	v0,v0,s3
80406930:	000210c0 	sll	v0,v0,0x3
80406934:	00558021 	addu	s0,v0,s5
80406938:	02609021 	move	s2,s3
8040693c:	08101a83 	j	80406a0c <processPrompt+0x248>
80406940:	2611000a 	addiu	s1,s0,10
80406944:	8e020040 	lw	v0,64(s0)
80406948:	10400005 	beqz	v0,80406960 <processPrompt+0x19c>
8040694c:	3c048042 	lui	a0,0x8042
80406950:	0040f809 	jalr	v0
80406954:	24849608 	addiu	a0,a0,-27128
80406958:	14400018 	bnez	v0,804069bc <processPrompt+0x1f8>
8040695c:	00000000 	nop
80406960:	02202021 	move	a0,s1
80406964:	00002821 	move	a1,zero
80406968:	0c103468 	jal	8040d1a0 <lib_memset>
8040696c:	24060032 	li	a2,50
80406970:	08101a80 	j	80406a00 <processPrompt+0x23c>
80406974:	26520001 	addiu	s2,s2,1
80406978:	8e020040 	lw	v0,64(s0)
8040697c:	10400005 	beqz	v0,80406994 <processPrompt+0x1d0>
80406980:	00000000 	nop
80406984:	0040f809 	jalr	v0
80406988:	2604000a 	addiu	a0,s0,10
8040698c:	1440000b 	bnez	v0,804069bc <processPrompt+0x1f8>
80406990:	00000000 	nop
80406994:	26520001 	addiu	s2,s2,1
80406998:	26100048 	addiu	s0,s0,72
8040699c:	08101a83 	j	80406a0c <processPrompt+0x248>
804069a0:	26310048 	addiu	s1,s1,72
804069a4:	1040000c 	beqz	v0,804069d8 <processPrompt+0x214>
804069a8:	00002821 	move	a1,zero
804069ac:	0040f809 	jalr	v0
804069b0:	27a40010 	addiu	a0,sp,16
804069b4:	10400007 	beqz	v0,804069d4 <processPrompt+0x210>
804069b8:	00000000 	nop
804069bc:	8e050004 	lw	a1,4(s0)
804069c0:	3c048042 	lui	a0,0x8042
804069c4:	0c10331a 	jal	8040cc68 <xprintf>
804069c8:	2484b354 	addiu	a0,a0,-19628
804069cc:	08101a84 	j	80406a10 <processPrompt+0x24c>
804069d0:	0253102a 	slt	v0,s2,s3
804069d4:	00002821 	move	a1,zero
804069d8:	24060032 	li	a2,50
804069dc:	0c103468 	jal	8040d1a0 <lib_memset>
804069e0:	02202021 	move	a0,s1
804069e4:	0c1033bf 	jal	8040cefc <lib_strlen>
804069e8:	27a40010 	addiu	a0,sp,16
804069ec:	00403021 	move	a2,v0
804069f0:	02202021 	move	a0,s1
804069f4:	0c10345e 	jal	8040d178 <lib_memcpy>
804069f8:	27a50010 	addiu	a1,sp,16
804069fc:	26520001 	addiu	s2,s2,1
80406a00:	26100048 	addiu	s0,s0,72
80406a04:	26310048 	addiu	s1,s1,72
80406a08:	24140001 	li	s4,1
80406a0c:	0253102a 	slt	v0,s2,s3
80406a10:	1440ff8b 	bnez	v0,80406840 <processPrompt+0x7c>
80406a14:	00000000 	nop
80406a18:	02801021 	move	v0,s4
80406a1c:	8fbf0060 	lw	ra,96(sp)
80406a20:	8fb5005c 	lw	s5,92(sp)
80406a24:	8fb40058 	lw	s4,88(sp)
80406a28:	8fb30054 	lw	s3,84(sp)
80406a2c:	8fb20050 	lw	s2,80(sp)
80406a30:	8fb1004c 	lw	s1,76(sp)
80406a34:	8fb00048 	lw	s0,72(sp)
80406a38:	03e00008 	jr	ra
80406a3c:	27bd0068 	addiu	sp,sp,104

80406a40 <writeNvramData>:
80406a40:	27bdffe8 	addiu	sp,sp,-24
80406a44:	afb00010 	sw	s0,16(sp)
80406a48:	3c108042 	lui	s0,0x8042
80406a4c:	26102ab0 	addiu	s0,s0,10928
80406a50:	02002021 	move	a0,s0
80406a54:	2405012c 	li	a1,300
80406a58:	ae000128 	sw	zero,296(s0)
80406a5c:	afbf0014 	sw	ra,20(sp)
80406a60:	0c1018b6 	jal	804062d8 <getCrc32>
80406a64:	2406ffff 	li	a2,-1
80406a68:	ae020128 	sw	v0,296(s0)
80406a6c:	02002021 	move	a0,s0
80406a70:	8fbf0014 	lw	ra,20(sp)
80406a74:	8fb00010 	lw	s0,16(sp)
80406a78:	2405012c 	li	a1,300
80406a7c:	00003021 	move	a2,zero
80406a80:	08100cc3 	j	8040330c <kerSysNvRamSet>
80406a84:	27bd0018 	addiu	sp,sp,24

80406a88 <readNvramData>:
80406a88:	27bdffe0 	addiu	sp,sp,-32
80406a8c:	3c048042 	lui	a0,0x8042
80406a90:	afb10014 	sw	s1,20(sp)
80406a94:	24912ab0 	addiu	s1,a0,10928
80406a98:	02202021 	move	a0,s1
80406a9c:	2405012c 	li	a1,300
80406aa0:	00003021 	move	a2,zero
80406aa4:	afbf0018 	sw	ra,24(sp)
80406aa8:	0c100d5d 	jal	80403574 <kerSysNvRamGet>
80406aac:	afb00010 	sw	s0,16(sp)
80406ab0:	8e300128 	lw	s0,296(s1)
80406ab4:	02202021 	move	a0,s1
80406ab8:	2405012c 	li	a1,300
80406abc:	2406ffff 	li	a2,-1
80406ac0:	0c1018b6 	jal	804062d8 <getCrc32>
80406ac4:	ae200128 	sw	zero,296(s1)
80406ac8:	3c048042 	lui	a0,0x8042
80406acc:	24842bd0 	addiu	a0,a0,11216
80406ad0:	240500ff 	li	a1,255
80406ad4:	24060006 	li	a2,6
80406ad8:	12020006 	beq	s0,v0,80406af4 <readNvramData+0x6c>
80406adc:	00001821 	move	v1,zero
80406ae0:	0c103468 	jal	8040d1a0 <lib_memset>
80406ae4:	00000000 	nop
80406ae8:	2402ffff 	li	v0,-1
80406aec:	ae22011c 	sw	v0,284(s1)
80406af0:	2403ffff 	li	v1,-1
80406af4:	8fbf0018 	lw	ra,24(sp)
80406af8:	8fb10014 	lw	s1,20(sp)
80406afc:	8fb00010 	lw	s0,16(sp)
80406b00:	00601021 	move	v0,v1
80406b04:	03e00008 	jr	ra
80406b08:	27bd0020 	addiu	sp,sp,32

80406b0c <writeWholeImage>:
80406b0c:	27bdfe90 	addiu	sp,sp,-368
80406b10:	afb20160 	sw	s2,352(sp)
80406b14:	afb00158 	sw	s0,344(sp)
80406b18:	afbf0168 	sw	ra,360(sp)
80406b1c:	00a08021 	move	s0,a1
80406b20:	afb30164 	sw	s3,356(sp)
80406b24:	afb1015c 	sw	s1,348(sp)
80406b28:	0c100f41 	jal	80403d04 <flash_get_total_size>
80406b2c:	00809021 	move	s2,a0
80406b30:	24420014 	addiu	v0,v0,20
80406b34:	0050102a 	slt	v0,v0,s0
80406b38:	10400004 	beqz	v0,80406b4c <writeWholeImage+0x40>
80406b3c:	2610ffec 	addiu	s0,s0,-20
80406b40:	3c048042 	lui	a0,0x8042
80406b44:	08101ae6 	j	80406b98 <writeWholeImage+0x8c>
80406b48:	2484b368 	addiu	a0,a0,-19608
80406b4c:	02402021 	move	a0,s2
80406b50:	02002821 	move	a1,s0
80406b54:	2406ffff 	li	a2,-1
80406b58:	2402ffff 	li	v0,-1
80406b5c:	0c1018b6 	jal	804062d8 <getCrc32>
80406b60:	afa20148 	sw	v0,328(sp)
80406b64:	27a40010 	addiu	a0,sp,16
80406b68:	02502821 	addu	a1,s2,s0
80406b6c:	24060004 	li	a2,4
80406b70:	0c10345e 	jal	8040d178 <lib_memcpy>
80406b74:	afa20148 	sw	v0,328(sp)
80406b78:	27a40148 	addiu	a0,sp,328
80406b7c:	27a50010 	addiu	a1,sp,16
80406b80:	0c10344d 	jal	8040d134 <lib_memcmp>
80406b84:	24060004 	li	a2,4
80406b88:	10400007 	beqz	v0,80406ba8 <writeWholeImage+0x9c>
80406b8c:	27b30018 	addiu	s3,sp,24
80406b90:	3c048042 	lui	a0,0x8042
80406b94:	2484b37c 	addiu	a0,a0,-19588
80406b98:	0c10331a 	jal	8040cc68 <xprintf>
80406b9c:	00000000 	nop
80406ba0:	08101b24 	j	80406c90 <writeWholeImage+0x184>
80406ba4:	2402ffff 	li	v0,-1
80406ba8:	3c118042 	lui	s1,0x8042
80406bac:	02602021 	move	a0,s3
80406bb0:	26252ab0 	addiu	a1,s1,10928
80406bb4:	0c10345e 	jal	8040d178 <lib_memcpy>
80406bb8:	2406012c 	li	a2,300
80406bbc:	3c02fffe 	lui	v0,0xfffe
80406bc0:	34422000 	ori	v0,v0,0x2000
80406bc4:	8c440000 	lw	a0,0(v0)
80406bc8:	2402ff00 	li	v0,-256
80406bcc:	02003021 	move	a2,s0
80406bd0:	00822024 	and	a0,a0,v0
80406bd4:	3c02a000 	lui	v0,0xa000
80406bd8:	00822025 	or	a0,a0,v0
80406bdc:	02402821 	move	a1,s2
80406be0:	0c100e90 	jal	80403a40 <kerSysBcmImageSet>
80406be4:	24070001 	li	a3,1
80406be8:	10400007 	beqz	v0,80406c08 <writeWholeImage+0xfc>
80406bec:	00408021 	move	s0,v0
80406bf0:	3c048042 	lui	a0,0x8042
80406bf4:	2484b398 	addiu	a0,a0,-19560
80406bf8:	0c10331a 	jal	8040cc68 <xprintf>
80406bfc:	00402821 	move	a1,v0
80406c00:	08101b24 	j	80406c90 <writeWholeImage+0x184>
80406c04:	02001021 	move	v0,s0
80406c08:	0c101aa2 	jal	80406a88 <readNvramData>
80406c0c:	00000000 	nop
80406c10:	1040001f 	beqz	v0,80406c90 <writeWholeImage+0x184>
80406c14:	00001021 	move	v0,zero
80406c18:	8e232ab0 	lw	v1,10928(s1)
80406c1c:	3c020f1e 	lui	v0,0xf1e
80406c20:	34422d3c 	ori	v0,v0,0x2d3c
80406c24:	1462001a 	bne	v1,v0,80406c90 <writeWholeImage+0x184>
80406c28:	00001021 	move	v0,zero
80406c2c:	02602821 	move	a1,s3
80406c30:	2406012c 	li	a2,300
80406c34:	0c10345e 	jal	8040d178 <lib_memcpy>
80406c38:	26242ab0 	addiu	a0,s1,10928
80406c3c:	0c101a90 	jal	80406a40 <writeNvramData>
80406c40:	00000000 	nop
80406c44:	0c102748 	jal	80409d20 <BpGetSdramSize>
80406c48:	27a4014c 	addiu	a0,sp,332
80406c4c:	0c100e43 	jal	8040390c <kerSysMemoryTypeGet>
80406c50:	00000000 	nop
80406c54:	8fa4014c 	lw	a0,332(sp)
80406c58:	10820003 	beq	a0,v0,80406c68 <writeWholeImage+0x15c>
80406c5c:	00000000 	nop
80406c60:	0c100d87 	jal	8040361c <kerSysMemoryTypeSet>
80406c64:	00000000 	nop
80406c68:	0c10292d 	jal	8040a4b4 <BpGetCMTThread>
80406c6c:	27a40150 	addiu	a0,sp,336
80406c70:	0c100e87 	jal	80403a1c <kerSysThreadNumGet>
80406c74:	00000000 	nop
80406c78:	8fa40150 	lw	a0,336(sp)
80406c7c:	10820004 	beq	a0,v0,80406c90 <writeWholeImage+0x184>
80406c80:	00001021 	move	v0,zero
80406c84:	0c100e4c 	jal	80403930 <kerSysThreadNumSet>
80406c88:	00000000 	nop
80406c8c:	00001021 	move	v0,zero
80406c90:	8fbf0168 	lw	ra,360(sp)
80406c94:	8fb30164 	lw	s3,356(sp)
80406c98:	8fb20160 	lw	s2,352(sp)
80406c9c:	8fb1015c 	lw	s1,348(sp)
80406ca0:	8fb00158 	lw	s0,344(sp)
80406ca4:	03e00008 	jr	ra
80406ca8:	27bd0170 	addiu	sp,sp,368

80406cac <getBootLine>:
80406cac:	27bdffd0 	addiu	sp,sp,-48
80406cb0:	3c028042 	lui	v0,0x8042
80406cb4:	afb50024 	sw	s5,36(sp)
80406cb8:	afb40020 	sw	s4,32(sp)
80406cbc:	24452ab0 	addiu	a1,v0,10928
80406cc0:	afbf0028 	sw	ra,40(sp)
80406cc4:	afb3001c 	sw	s3,28(sp)
80406cc8:	afb20018 	sw	s2,24(sp)
80406ccc:	afb10014 	sw	s1,20(sp)
80406cd0:	afb00010 	sw	s0,16(sp)
80406cd4:	8ca30004 	lw	v1,4(a1)
80406cd8:	2402ff00 	li	v0,-256
80406cdc:	0080a821 	move	s5,a0
80406ce0:	00621824 	and	v1,v1,v0
80406ce4:	3c026263 	lui	v0,0x6263
80406ce8:	34426d00 	ori	v0,v0,0x6d00
80406cec:	10620005 	beq	v1,v0,80406d04 <getBootLine+0x58>
80406cf0:	0000a021 	move	s4,zero
80406cf4:	80a30004 	lb	v1,4(a1)
80406cf8:	2402ffff 	li	v0,-1
80406cfc:	14620003 	bne	v1,v0,80406d0c <getBootLine+0x60>
80406d00:	00000000 	nop
80406d04:	0c101267 	jal	8040499c <setDefaultBootline>
80406d08:	00000000 	nop
80406d0c:	0c101aa2 	jal	80406a88 <readNvramData>
80406d10:	00009021 	move	s2,zero
80406d14:	3c028042 	lui	v0,0x8042
80406d18:	1aa00027 	blez	s5,80406db8 <getBootLine+0x10c>
80406d1c:	24502ab4 	addiu	s0,v0,10932
80406d20:	00009821 	move	s3,zero
80406d24:	02002021 	move	a0,s0
80406d28:	2405003d 	li	a1,61
80406d2c:	1200001d 	beqz	s0,80406da4 <getBootLine+0xf8>
80406d30:	24060100 	li	a2,256
80406d34:	0c103431 	jal	8040d0c4 <lib_strnchr>
80406d38:	00000000 	nop
80406d3c:	00408021 	move	s0,v0
80406d40:	00402021 	move	a0,v0
80406d44:	24050020 	li	a1,32
80406d48:	10400016 	beqz	v0,80406da4 <getBootLine+0xf8>
80406d4c:	24060100 	li	a2,256
80406d50:	0c103431 	jal	8040d0c4 <lib_strnchr>
80406d54:	00000000 	nop
80406d58:	0040a021 	move	s4,v0
80406d5c:	3c028042 	lui	v0,0x8042
80406d60:	2442c67e 	addiu	v0,v0,-14722
80406d64:	02628821 	addu	s1,s3,v0
80406d68:	02202021 	move	a0,s1
80406d6c:	00002821 	move	a1,zero
80406d70:	16800005 	bnez	s4,80406d88 <getBootLine+0xdc>
80406d74:	24060032 	li	a2,50
80406d78:	0c101267 	jal	8040499c <setDefaultBootline>
80406d7c:	00000000 	nop
80406d80:	08101b6e 	j	80406db8 <getBootLine+0x10c>
80406d84:	00000000 	nop
80406d88:	0c103468 	jal	8040d1a0 <lib_memset>
80406d8c:	00000000 	nop
80406d90:	02903023 	subu	a2,s4,s0
80406d94:	26050001 	addiu	a1,s0,1
80406d98:	02202021 	move	a0,s1
80406d9c:	0c10345e 	jal	8040d178 <lib_memcpy>
80406da0:	24c6ffff 	addiu	a2,a2,-1
80406da4:	26520001 	addiu	s2,s2,1
80406da8:	0255102a 	slt	v0,s2,s5
80406dac:	26730048 	addiu	s3,s3,72
80406db0:	1440ffdc 	bnez	v0,80406d24 <getBootLine+0x78>
80406db4:	02808021 	move	s0,s4
80406db8:	1655ffd4 	bne	s2,s5,80406d0c <getBootLine+0x60>
80406dbc:	8fbf0028 	lw	ra,40(sp)
80406dc0:	8fb50024 	lw	s5,36(sp)
80406dc4:	8fb40020 	lw	s4,32(sp)
80406dc8:	8fb3001c 	lw	s3,28(sp)
80406dcc:	8fb20018 	lw	s2,24(sp)
80406dd0:	8fb10014 	lw	s1,20(sp)
80406dd4:	8fb00010 	lw	s0,16(sp)
80406dd8:	03e00008 	jr	ra
80406ddc:	27bd0030 	addiu	sp,sp,48

80406de0 <getBootImageTag>:
80406de0:	27bdffd8 	addiu	sp,sp,-40
80406de4:	24040001 	li	a0,1
80406de8:	afbf0020 	sw	ra,32(sp)
80406dec:	afb3001c 	sw	s3,28(sp)
80406df0:	afb20018 	sw	s2,24(sp)
80406df4:	afb10014 	sw	s1,20(sp)
80406df8:	0c10193f 	jal	804064fc <getTagFromPartition>
80406dfc:	afb00010 	sw	s0,16(sp)
80406e00:	00409821 	move	s3,v0
80406e04:	0c10193f 	jal	804064fc <getTagFromPartition>
80406e08:	24040002 	li	a0,2
80406e0c:	02602821 	move	a1,s3
80406e10:	00409021 	move	s2,v0
80406e14:	12600017 	beqz	s3,80406e74 <getBootImageTag+0x94>
80406e18:	0042280b 	movn	a1,v0,v0
80406e1c:	10400015 	beqz	v0,80406e74 <getBootImageTag+0x94>
80406e20:	2664008a 	addiu	a0,s3,138
80406e24:	0c1034f6 	jal	8040d3d8 <lib_atoi>
80406e28:	00000000 	nop
80406e2c:	2644008a 	addiu	a0,s2,138
80406e30:	0c1034f6 	jal	8040d3d8 <lib_atoi>
80406e34:	00408821 	move	s1,v0
80406e38:	8f848048 	lw	a0,-32696(gp)
80406e3c:	0c101b2b 	jal	80406cac <getBootLine>
80406e40:	00408021 	move	s0,v0
80406e44:	0c1019a8 	jal	804066a0 <convertBootInfo>
80406e48:	00000000 	nop
80406e4c:	3c028042 	lui	v0,0x8042
80406e50:	80432aac 	lb	v1,10924(v0)
80406e54:	02402821 	move	a1,s2
80406e58:	0230102a 	slt	v0,s1,s0
80406e5c:	0262280a 	movz	a1,s3,v0
80406e60:	24020030 	li	v0,48
80406e64:	10620003 	beq	v1,v0,80406e74 <getBootImageTag+0x94>
80406e68:	0211802a 	slt	s0,s0,s1
80406e6c:	02402821 	move	a1,s2
80406e70:	0270280a 	movz	a1,s3,s0
80406e74:	8fbf0020 	lw	ra,32(sp)
80406e78:	8fb3001c 	lw	s3,28(sp)
80406e7c:	8fb20018 	lw	s2,24(sp)
80406e80:	8fb10014 	lw	s1,20(sp)
80406e84:	8fb00010 	lw	s0,16(sp)
80406e88:	00a01021 	move	v0,a1
80406e8c:	03e00008 	jr	ra
80406e90:	27bd0028 	addiu	sp,sp,40

80406e94 <flashImage>:
80406e94:	27bdfe60 	addiu	sp,sp,-416
80406e98:	24050001 	li	a1,1
80406e9c:	afb60190 	sw	s6,400(sp)
80406ea0:	afbf019c 	sw	ra,412(sp)
80406ea4:	afbe0198 	sw	s8,408(sp)
80406ea8:	afb70194 	sw	s7,404(sp)
80406eac:	afb5018c 	sw	s5,396(sp)
80406eb0:	afb40188 	sw	s4,392(sp)
80406eb4:	afb30184 	sw	s3,388(sp)
80406eb8:	afb20180 	sw	s2,384(sp)
80406ebc:	afb1017c 	sw	s1,380(sp)
80406ec0:	afb00178 	sw	s0,376(sp)
80406ec4:	0c101905 	jal	80406414 <verifyTag>
80406ec8:	0080b021 	move	s6,a0
80406ecc:	2403ffff 	li	v1,-1
80406ed0:	10430117 	beq	v0,v1,80407330 <flashImage+0x49c>
80406ed4:	2405ffff 	li	a1,-1
80406ed8:	0c100c46 	jal	80403118 <kerSysFlashAddrInfoGet>
80406edc:	27a40010 	addiu	a0,sp,16
80406ee0:	0c1034f6 	jal	8040d3d8 <lib_atoi>
80406ee4:	26c4003e 	addiu	a0,s6,62
80406ee8:	26d00100 	addiu	s0,s6,256
80406eec:	00402821 	move	a1,v0
80406ef0:	02002021 	move	a0,s0
80406ef4:	0c1018b6 	jal	804062d8 <getCrc32>
80406ef8:	2406ffff 	li	a2,-1
80406efc:	8ec300d8 	lw	v1,216(s6)
80406f00:	10430005 	beq	v0,v1,80406f18 <flashImage+0x84>
80406f04:	3c048042 	lui	a0,0x8042
80406f08:	0c10331a 	jal	8040cc68 <xprintf>
80406f0c:	2484b3c0 	addiu	a0,a0,-19520
80406f10:	08101ccc 	j	80407330 <flashImage+0x49c>
80406f14:	2405ffff 	li	a1,-1
80406f18:	0c1034f6 	jal	8040d3d8 <lib_atoi>
80406f1c:	26c40048 	addiu	a0,s6,72
80406f20:	afa2016c 	sw	v0,364(sp)
80406f24:	1040004b 	beqz	v0,80407054 <flashImage+0x1c0>
80406f28:	afa00168 	sw	zero,360(sp)
80406f2c:	0c1034f6 	jal	8040d3d8 <lib_atoi>
80406f30:	26c40054 	addiu	a0,s6,84
80406f34:	1c400007 	bgtz	v0,80406f54 <flashImage+0xc0>
80406f38:	afa20168 	sw	v0,360(sp)
80406f3c:	3c048042 	lui	a0,0x8042
80406f40:	2484b3e4 	addiu	a0,a0,-19484
80406f44:	0c10331a 	jal	8040cc68 <xprintf>
80406f48:	00402821 	move	a1,v0
80406f4c:	08101ccc 	j	80407330 <flashImage+0x49c>
80406f50:	2405ffff 	li	a1,-1
80406f54:	27b20030 	addiu	s2,sp,48
80406f58:	3c118042 	lui	s1,0x8042
80406f5c:	26252ab0 	addiu	a1,s1,10928
80406f60:	2406012c 	li	a2,300
80406f64:	0c10345e 	jal	8040d178 <lib_memcpy>
80406f68:	02402021 	move	a0,s2
80406f6c:	0c102748 	jal	80409d20 <BpGetSdramSize>
80406f70:	26c40110 	addiu	a0,s6,272
80406f74:	0c10292d 	jal	8040a4b4 <BpGetCMTThread>
80406f78:	26c40114 	addiu	a0,s6,276
80406f7c:	3c048042 	lui	a0,0x8042
80406f80:	0c10331a 	jal	8040cc68 <xprintf>
80406f84:	2484b3fc 	addiu	a0,a0,-19460
80406f88:	3c02fffe 	lui	v0,0xfffe
80406f8c:	34422000 	ori	v0,v0,0x2000
80406f90:	8c440000 	lw	a0,0(v0)
80406f94:	2402ff00 	li	v0,-256
80406f98:	8fa60168 	lw	a2,360(sp)
80406f9c:	00822024 	and	a0,a0,v0
80406fa0:	3c02a000 	lui	v0,0xa000
80406fa4:	00822025 	or	a0,a0,v0
80406fa8:	8fa2016c 	lw	v0,364(sp)
80406fac:	02002821 	move	a1,s0
80406fb0:	00003821 	move	a3,zero
80406fb4:	00442021 	addu	a0,v0,a0
80406fb8:	3c024040 	lui	v0,0x4040
80406fbc:	0c100e90 	jal	80403a40 <kerSysBcmImageSet>
80406fc0:	00822021 	addu	a0,a0,v0
80406fc4:	10400004 	beqz	v0,80406fd8 <flashImage+0x144>
80406fc8:	00408021 	move	s0,v0
80406fcc:	3c048042 	lui	a0,0x8042
80406fd0:	08101cad 	j	804072b4 <flashImage+0x420>
80406fd4:	2484b40c 	addiu	a0,a0,-19444
80406fd8:	0c101aa2 	jal	80406a88 <readNvramData>
80406fdc:	00000000 	nop
80406fe0:	1040001c 	beqz	v0,80407054 <flashImage+0x1c0>
80406fe4:	8e232ab0 	lw	v1,10928(s1)
80406fe8:	3c020f1e 	lui	v0,0xf1e
80406fec:	34422d3c 	ori	v0,v0,0x2d3c
80406ff0:	14620018 	bne	v1,v0,80407054 <flashImage+0x1c0>
80406ff4:	02402821 	move	a1,s2
80406ff8:	2406012c 	li	a2,300
80406ffc:	0c10345e 	jal	8040d178 <lib_memcpy>
80407000:	26242ab0 	addiu	a0,s1,10928
80407004:	0c101a90 	jal	80406a40 <writeNvramData>
80407008:	00000000 	nop
8040700c:	0c102748 	jal	80409d20 <BpGetSdramSize>
80407010:	27a40160 	addiu	a0,sp,352
80407014:	0c100e43 	jal	8040390c <kerSysMemoryTypeGet>
80407018:	00000000 	nop
8040701c:	8fa40160 	lw	a0,352(sp)
80407020:	10820003 	beq	a0,v0,80407030 <flashImage+0x19c>
80407024:	00000000 	nop
80407028:	0c100d87 	jal	8040361c <kerSysMemoryTypeSet>
8040702c:	00000000 	nop
80407030:	0c10292d 	jal	8040a4b4 <BpGetCMTThread>
80407034:	27a40164 	addiu	a0,sp,356
80407038:	0c100e87 	jal	80403a1c <kerSysThreadNumGet>
8040703c:	00000000 	nop
80407040:	8fa40164 	lw	a0,356(sp)
80407044:	10820003 	beq	a0,v0,80407054 <flashImage+0x1c0>
80407048:	00000000 	nop
8040704c:	0c100e4c 	jal	80403930 <kerSysThreadNumSet>
80407050:	00000000 	nop
80407054:	0c1034f6 	jal	8040d3d8 <lib_atoi>
80407058:	26c4005e 	addiu	a0,s6,94
8040705c:	26c40074 	addiu	a0,s6,116
80407060:	0c1034f6 	jal	8040d3d8 <lib_atoi>
80407064:	00409021 	move	s2,v0
80407068:	1240000b 	beqz	s2,80407098 <flashImage+0x204>
8040706c:	0040a021 	move	s4,v0
80407070:	3c02fffe 	lui	v0,0xfffe
80407074:	34422000 	ori	v0,v0,0x2000
80407078:	8c420000 	lw	v0,0(v0)
8040707c:	2403ff00 	li	v1,-256
80407080:	00431024 	and	v0,v0,v1
80407084:	3c03a000 	lui	v1,0xa000
80407088:	00431025 	or	v0,v0,v1
8040708c:	02421021 	addu	v0,s2,v0
80407090:	3c034040 	lui	v1,0x4040
80407094:	00439021 	addu	s2,v0,v1
80407098:	1280000a 	beqz	s4,804070c4 <flashImage+0x230>
8040709c:	3c02fffe 	lui	v0,0xfffe
804070a0:	34422000 	ori	v0,v0,0x2000
804070a4:	8c420000 	lw	v0,0(v0)
804070a8:	2403ff00 	li	v1,-256
804070ac:	00431024 	and	v0,v0,v1
804070b0:	3c03a000 	lui	v1,0xa000
804070b4:	00431025 	or	v0,v0,v1
804070b8:	02821021 	addu	v0,s4,v0
804070bc:	3c034040 	lui	v1,0x4040
804070c0:	0043a021 	addu	s4,v0,v1
804070c4:	12400097 	beqz	s2,80407324 <flashImage+0x490>
804070c8:	3c048042 	lui	a0,0x8042
804070cc:	12800095 	beqz	s4,80407324 <flashImage+0x490>
804070d0:	00000000 	nop
804070d4:	0c100fc4 	jal	80403f10 <flash_get_memptr>
804070d8:	00002021 	move	a0,zero
804070dc:	0c100f41 	jal	80403d04 <flash_get_total_size>
804070e0:	afa20170 	sw	v0,368(sp)
804070e4:	8fa40170 	lw	a0,368(sp)
804070e8:	02c09821 	move	s3,s6
804070ec:	02441823 	subu	v1,s2,a0
804070f0:	00431823 	subu	v1,v0,v1
804070f4:	00021042 	srl	v0,v0,0x1
804070f8:	afa20174 	sw	v0,372(sp)
804070fc:	3c02ffff 	lui	v0,0xffff
80407100:	0062a821 	addu	s5,v1,v0
80407104:	8fa30174 	lw	v1,372(sp)
80407108:	26c4006a 	addiu	a0,s6,106
8040710c:	3c020001 	lui	v0,0x1
80407110:	0c1034f6 	jal	8040d3d8 <lib_atoi>
80407114:	0062f023 	subu	s8,v1,v0
80407118:	26c40080 	addiu	a0,s6,128
8040711c:	0c1034f6 	jal	8040d3d8 <lib_atoi>
80407120:	00408021 	move	s0,v0
80407124:	0c101b78 	jal	80406de0 <getBootImageTag>
80407128:	0202b821 	addu	s7,s0,v0
8040712c:	00408821 	move	s1,v0
80407130:	10400007 	beqz	v0,80407150 <flashImage+0x2bc>
80407134:	00008021 	move	s0,zero
80407138:	0c1034f6 	jal	8040d3d8 <lib_atoi>
8040713c:	2444006a 	addiu	a0,v0,106
80407140:	26240080 	addiu	a0,s1,128
80407144:	0c1034f6 	jal	8040d3d8 <lib_atoi>
80407148:	00408021 	move	s0,v0
8040714c:	02028021 	addu	s0,s0,v0
80407150:	02b7102b 	sltu	v0,s5,s7
80407154:	10400007 	beqz	v0,80407174 <flashImage+0x2e0>
80407158:	3c048042 	lui	a0,0x8042
8040715c:	2484b44c 	addiu	a0,a0,-19380
80407160:	02e02821 	move	a1,s7
80407164:	0c10331a 	jal	8040cc68 <xprintf>
80407168:	02a03021 	move	a2,s5
8040716c:	08101ccc 	j	80407330 <flashImage+0x49c>
80407170:	2405ffff 	li	a1,-1
80407174:	8fa4016c 	lw	a0,364(sp)
80407178:	10800008 	beqz	a0,8040719c <flashImage+0x308>
8040717c:	03d0102b 	sltu	v0,s8,s0
80407180:	8fa20168 	lw	v0,360(sp)
80407184:	02c02821 	move	a1,s6
80407188:	24060100 	li	a2,256
8040718c:	02629821 	addu	s3,s3,v0
80407190:	0c10345e 	jal	8040d178 <lib_memcpy>
80407194:	02602021 	move	a0,s3
80407198:	03d0102b 	sltu	v0,s8,s0
8040719c:	14400018 	bnez	v0,80407200 <flashImage+0x36c>
804071a0:	03d7102b 	sltu	v0,s8,s7
804071a4:	14400016 	bnez	v0,80407200 <flashImage+0x36c>
804071a8:	00000000 	nop
804071ac:	0c101979 	jal	804065e4 <getPartitionFromTag>
804071b0:	02202021 	move	a0,s1
804071b4:	24030001 	li	v1,1
804071b8:	14430011 	bne	v0,v1,80407200 <flashImage+0x36c>
804071bc:	8fa30174 	lw	v1,372(sp)
804071c0:	02923023 	subu	a2,s4,s2
804071c4:	3c11bfc0 	lui	s1,0xbfc0
804071c8:	24700100 	addiu	s0,v1,256
804071cc:	3c128042 	lui	s2,0x8042
804071d0:	02063021 	addu	a2,s0,a2
804071d4:	2645b490 	addiu	a1,s2,-19312
804071d8:	00d13021 	addu	a2,a2,s1
804071dc:	0c103311 	jal	8040cc44 <xsprintf>
804071e0:	26640074 	addiu	a0,s3,116
804071e4:	8fa40170 	lw	a0,368(sp)
804071e8:	02113021 	addu	a2,s0,s1
804071ec:	2645b490 	addiu	a1,s2,-19312
804071f0:	00908021 	addu	s0,a0,s0
804071f4:	0c103311 	jal	8040cc44 <xsprintf>
804071f8:	2664005e 	addiu	a0,s3,94
804071fc:	02009021 	move	s2,s0
80407200:	0c10193f 	jal	804064fc <getTagFromPartition>
80407204:	24040001 	li	a0,1
80407208:	2674008a 	addiu	s4,s3,138
8040720c:	10400004 	beqz	v0,80407220 <flashImage+0x38c>
80407210:	00008821 	move	s1,zero
80407214:	0c1034f6 	jal	8040d3d8 <lib_atoi>
80407218:	2444008a 	addiu	a0,v0,138
8040721c:	00408821 	move	s1,v0
80407220:	0c10193f 	jal	804064fc <getTagFromPartition>
80407224:	24040002 	li	a0,2
80407228:	1040000b 	beqz	v0,80407258 <flashImage+0x3c4>
8040722c:	3c058042 	lui	a1,0x8042
80407230:	2450008a 	addiu	s0,v0,138
80407234:	0c1034f6 	jal	8040d3d8 <lib_atoi>
80407238:	02002021 	move	a0,s0
8040723c:	0222102a 	slt	v0,s1,v0
80407240:	10400004 	beqz	v0,80407254 <flashImage+0x3c0>
80407244:	00000000 	nop
80407248:	0c1034f6 	jal	8040d3d8 <lib_atoi>
8040724c:	02002021 	move	a0,s0
80407250:	00408821 	move	s1,v0
80407254:	3c058042 	lui	a1,0x8042
80407258:	02802021 	move	a0,s4
8040725c:	24a5a65c 	addiu	a1,a1,-22948
80407260:	0c103311 	jal	8040cc44 <xsprintf>
80407264:	26260001 	addiu	a2,s1,1
80407268:	2406ffff 	li	a2,-1
8040726c:	02602021 	move	a0,s3
80407270:	0c1018b6 	jal	804062d8 <getCrc32>
80407274:	240500ec 	li	a1,236
80407278:	2650ff00 	addiu	s0,s2,-256
8040727c:	3c048042 	lui	a0,0x8042
80407280:	02002821 	move	a1,s0
80407284:	2484b494 	addiu	a0,a0,-19308
80407288:	0c10331a 	jal	8040cc68 <xprintf>
8040728c:	ae6200ec 	sw	v0,236(s3)
80407290:	02002021 	move	a0,s0
80407294:	02602821 	move	a1,s3
80407298:	26e60100 	addiu	a2,s7,256
8040729c:	0c100e90 	jal	80403a40 <kerSysBcmImageSet>
804072a0:	00003821 	move	a3,zero
804072a4:	1040000b 	beqz	v0,804072d4 <flashImage+0x440>
804072a8:	00408021 	move	s0,v0
804072ac:	3c048042 	lui	a0,0x8042
804072b0:	2484b4c8 	addiu	a0,a0,-19256
804072b4:	0c10331a 	jal	8040cc68 <xprintf>
804072b8:	02002821 	move	a1,s0
804072bc:	08101ccc 	j	80407330 <flashImage+0x49c>
804072c0:	02002821 	move	a1,s0
804072c4:	0c101a90 	jal	80406a40 <writeNvramData>
804072c8:	a0850002 	sb	a1,2(a0)
804072cc:	08101cc9 	j	80407324 <flashImage+0x490>
804072d0:	3c048042 	lui	a0,0x8042
804072d4:	3c028042 	lui	v0,0x8042
804072d8:	24442ab4 	addiu	a0,v0,10932
804072dc:	90830002 	lbu	v1,2(a0)
804072e0:	1060000f 	beqz	v1,80407320 <flashImage+0x48c>
804072e4:	24070070 	li	a3,112
804072e8:	2406003d 	li	a2,61
804072ec:	80820000 	lb	v0,0(a0)
804072f0:	14470007 	bne	v0,a3,80407310 <flashImage+0x47c>
804072f4:	00031e00 	sll	v1,v1,0x18
804072f8:	80820001 	lb	v0,1(a0)
804072fc:	00031e03 	sra	v1,v1,0x18
80407300:	14460003 	bne	v0,a2,80407310 <flashImage+0x47c>
80407304:	24050030 	li	a1,48
80407308:	1465ffee 	bne	v1,a1,804072c4 <flashImage+0x430>
8040730c:	00000000 	nop
80407310:	24840001 	addiu	a0,a0,1
80407314:	90830002 	lbu	v1,2(a0)
80407318:	1460fff4 	bnez	v1,804072ec <flashImage+0x458>
8040731c:	00000000 	nop
80407320:	3c048042 	lui	a0,0x8042
80407324:	0c10331a 	jal	8040cc68 <xprintf>
80407328:	2484b42c 	addiu	a0,a0,-19412
8040732c:	00002821 	move	a1,zero
80407330:	8fbf019c 	lw	ra,412(sp)
80407334:	8fbe0198 	lw	s8,408(sp)
80407338:	8fb70194 	lw	s7,404(sp)
8040733c:	8fb60190 	lw	s6,400(sp)
80407340:	8fb5018c 	lw	s5,396(sp)
80407344:	8fb40188 	lw	s4,392(sp)
80407348:	8fb30184 	lw	s3,388(sp)
8040734c:	8fb20180 	lw	s2,384(sp)
80407350:	8fb1017c 	lw	s1,380(sp)
80407354:	8fb00178 	lw	s0,376(sp)
80407358:	00a01021 	move	v0,a1
8040735c:	03e00008 	jr	ra
80407360:	27bd01a0 	addiu	sp,sp,416

80407364 <inet_addr>:
80407364:	27bdffe0 	addiu	sp,sp,-32
80407368:	afb20018 	sw	s2,24(sp)
8040736c:	afb10014 	sw	s1,20(sp)
80407370:	afb00010 	sw	s0,16(sp)
80407374:	afbf001c 	sw	ra,28(sp)
80407378:	90820000 	lbu	v0,0(a0)
8040737c:	00808021 	move	s0,a0
80407380:	00008821 	move	s1,zero
80407384:	24120003 	li	s2,3
80407388:	1040001a 	beqz	v0,804073f4 <inet_addr+0x90>
8040738c:	00021e00 	sll	v1,v0,0x18
80407390:	00031e03 	sra	v1,v1,0x18
80407394:	10600009 	beqz	v1,804073bc <inet_addr+0x58>
80407398:	2402002e 	li	v0,46
8040739c:	10620007 	beq	v1,v0,804073bc <inet_addr+0x58>
804073a0:	2403002e 	li	v1,46
804073a4:	26100001 	addiu	s0,s0,1
804073a8:	82020000 	lb	v0,0(s0)
804073ac:	10400003 	beqz	v0,804073bc <inet_addr+0x58>
804073b0:	00000000 	nop
804073b4:	1443fffb 	bne	v0,v1,804073a4 <inet_addr+0x40>
804073b8:	00000000 	nop
804073bc:	82030000 	lb	v1,0(s0)
804073c0:	2402002e 	li	v0,46
804073c4:	14620006 	bne	v1,v0,804073e0 <inet_addr+0x7c>
804073c8:	00000000 	nop
804073cc:	0c1034f6 	jal	8040d3d8 <lib_atoi>
804073d0:	26100001 	addiu	s0,s0,1
804073d4:	001218c0 	sll	v1,s2,0x3
804073d8:	00621004 	sllv	v0,v0,v1
804073dc:	02228825 	or	s1,s1,v0
804073e0:	2652ffff 	addiu	s2,s2,-1
804073e4:	1a400003 	blez	s2,804073f4 <inet_addr+0x90>
804073e8:	02002021 	move	a0,s0
804073ec:	08101ce2 	j	80407388 <inet_addr+0x24>
804073f0:	92020000 	lbu	v0,0(s0)
804073f4:	82020000 	lb	v0,0(s0)
804073f8:	10400005 	beqz	v0,80407410 <inet_addr+0xac>
804073fc:	00000000 	nop
80407400:	0c1034f6 	jal	8040d3d8 <lib_atoi>
80407404:	02002021 	move	a0,s0
80407408:	08101d05 	j	80407414 <inet_addr+0xb0>
8040740c:	02228825 	or	s1,s1,v0
80407410:	2411ffff 	li	s1,-1
80407414:	02201021 	move	v0,s1
80407418:	8fbf001c 	lw	ra,28(sp)
8040741c:	8fb20018 	lw	s2,24(sp)
80407420:	8fb10014 	lw	s1,20(sp)
80407424:	8fb00010 	lw	s0,16(sp)
80407428:	03e00008 	jr	ra
8040742c:	27bd0020 	addiu	sp,sp,32

80407430 <bootLineChanged>:
80407430:	8f848048 	lw	a0,-32696(gp)
80407434:	27bdffe8 	addiu	sp,sp,-24
80407438:	afbf0014 	sw	ra,20(sp)
8040743c:	0c101b2b 	jal	80406cac <getBootLine>
80407440:	afb00010 	sw	s0,16(sp)
80407444:	0c1019a8 	jal	804066a0 <convertBootInfo>
80407448:	00000000 	nop
8040744c:	3c048042 	lui	a0,0x8042
80407450:	0c101cd9 	jal	80407364 <inet_addr>
80407454:	248429f8 	addiu	a0,a0,10744
80407458:	3c048042 	lui	a0,0x8042
8040745c:	2484b198 	addiu	a0,a0,-20072
80407460:	0c101cd9 	jal	80407364 <inet_addr>
80407464:	00408021 	move	s0,v0
80407468:	02028026 	xor	s0,s0,v0
8040746c:	0010102b 	sltu	v0,zero,s0
80407470:	8fbf0014 	lw	ra,20(sp)
80407474:	8fb00010 	lw	s0,16(sp)
80407478:	03e00008 	jr	ra
8040747c:	27bd0018 	addiu	sp,sp,24

80407480 <runFromFlash>:
80407480:	8f848048 	lw	a0,-32696(gp)
80407484:	27bdffe8 	addiu	sp,sp,-24
80407488:	afbf0010 	sw	ra,16(sp)
8040748c:	0c101b2b 	jal	80406cac <getBootLine>
80407490:	00000000 	nop
80407494:	0c1019a8 	jal	804066a0 <convertBootInfo>
80407498:	00000000 	nop
8040749c:	3c028042 	lui	v0,0x8042
804074a0:	80422a40 	lb	v0,10816(v0)
804074a4:	8fbf0010 	lw	ra,16(sp)
804074a8:	27bd0018 	addiu	sp,sp,24
804074ac:	38420066 	xori	v0,v0,0x66
804074b0:	03e00008 	jr	ra
804074b4:	2c420001 	sltiu	v0,v0,1

804074b8 <printSysInfo>:
804074b8:	27bdffe0 	addiu	sp,sp,-32
804074bc:	afbf0018 	sw	ra,24(sp)
804074c0:	afb10014 	sw	s1,20(sp)
804074c4:	0c101aa2 	jal	80406a88 <readNvramData>
804074c8:	afb00010 	sw	s0,16(sp)
804074cc:	10400007 	beqz	v0,804074ec <printSysInfo+0x34>
804074d0:	00000000 	nop
804074d4:	3c048042 	lui	a0,0x8042
804074d8:	2484b4f8 	addiu	a0,a0,-19208
804074dc:	0c10331a 	jal	8040cc68 <xprintf>
804074e0:	00000000 	nop
804074e4:	0c1011a5 	jal	80404694 <setBoardParam>
804074e8:	00000000 	nop
804074ec:	3c048042 	lui	a0,0x8042
804074f0:	0c1026db 	jal	80409b6c <BpSetBoardId>
804074f4:	24842bb4 	addiu	a0,a0,11188
804074f8:	3c048042 	lui	a0,0x8042
804074fc:	1440fff7 	bnez	v0,804074dc <printSysInfo+0x24>
80407500:	2484b4f8 	addiu	a0,a0,-19208
80407504:	0c10193f 	jal	804064fc <getTagFromPartition>
80407508:	24040001 	li	a0,1
8040750c:	10400006 	beqz	v0,80407528 <printSysInfo+0x70>
80407510:	3c028042 	lui	v0,0x8042
80407514:	0c10193f 	jal	804064fc <getTagFromPartition>
80407518:	24040002 	li	a0,2
8040751c:	14400004 	bnez	v0,80407530 <printSysInfo+0x78>
80407520:	8f848048 	lw	a0,-32696(gp)
80407524:	3c028042 	lui	v0,0x8042
80407528:	ac40c8b0 	sw	zero,-14160(v0)
8040752c:	8f848048 	lw	a0,-32696(gp)
80407530:	0c101b2b 	jal	80406cac <getBootLine>
80407534:	00008821 	move	s1,zero
80407538:	8f828048 	lw	v0,-32696(gp)
8040753c:	18400013 	blez	v0,8040758c <printSysInfo+0xd4>
80407540:	00008021 	move	s0,zero
80407544:	3c028042 	lui	v0,0x8042
80407548:	2442c674 	addiu	v0,v0,-14732
8040754c:	02022821 	addu	a1,s0,v0
80407550:	8ca20044 	lw	v0,68(a1)
80407554:	3c068042 	lui	a2,0x8042
80407558:	24c6c67e 	addiu	a2,a2,-14722
8040755c:	3c048042 	lui	a0,0x8042
80407560:	02063021 	addu	a2,s0,a2
80407564:	26310001 	addiu	s1,s1,1
80407568:	26100048 	addiu	s0,s0,72
8040756c:	10400003 	beqz	v0,8040757c <printSysInfo+0xc4>
80407570:	2484a6cc 	addiu	a0,a0,-22836
80407574:	0c10331a 	jal	8040cc68 <xprintf>
80407578:	8ca50000 	lw	a1,0(a1)
8040757c:	8f828048 	lw	v0,-32696(gp)
80407580:	0222102a 	slt	v0,s1,v0
80407584:	1440fff0 	bnez	v0,80407548 <printSysInfo+0x90>
80407588:	3c028042 	lui	v0,0x8042
8040758c:	0c1011ec 	jal	804047b0 <displayBoardParam>
80407590:	00000000 	nop
80407594:	0c1019a8 	jal	804066a0 <convertBootInfo>
80407598:	00000000 	nop
8040759c:	8fbf0018 	lw	ra,24(sp)
804075a0:	8fb10014 	lw	s1,20(sp)
804075a4:	8fb00010 	lw	s0,16(sp)
804075a8:	00001021 	move	v0,zero
804075ac:	03e00008 	jr	ra
804075b0:	27bd0020 	addiu	sp,sp,32

804075b4 <changeBootLine>:
804075b4:	8f848048 	lw	a0,-32696(gp)
804075b8:	27bdffb8 	addiu	sp,sp,-72
804075bc:	afb60040 	sw	s6,64(sp)
804075c0:	3c168042 	lui	s6,0x8042
804075c4:	afbf0044 	sw	ra,68(sp)
804075c8:	afb5003c 	sw	s5,60(sp)
804075cc:	afb40038 	sw	s4,56(sp)
804075d0:	afb30034 	sw	s3,52(sp)
804075d4:	afb20030 	sw	s2,48(sp)
804075d8:	afb1002c 	sw	s1,44(sp)
804075dc:	0c101b2b 	jal	80406cac <getBootLine>
804075e0:	afb00028 	sw	s0,40(sp)
804075e4:	27a40010 	addiu	a0,sp,16
804075e8:	0c10338e 	jal	8040ce38 <lib_strcpy>
804075ec:	26c529f8 	addiu	a1,s6,10744
804075f0:	8f858048 	lw	a1,-32696(gp)
804075f4:	3c158042 	lui	s5,0x8042
804075f8:	0c1019f1 	jal	804067c4 <processPrompt>
804075fc:	26a4c674 	addiu	a0,s5,-14732
80407600:	1040002f 	beqz	v0,804076c0 <changeBootLine+0x10c>
80407604:	3c028042 	lui	v0,0x8042
80407608:	24522ab4 	addiu	s2,v0,10932
8040760c:	02402021 	move	a0,s2
80407610:	00002821 	move	a1,zero
80407614:	0c103468 	jal	8040d1a0 <lib_memset>
80407618:	24060100 	li	a2,256
8040761c:	8f828048 	lw	v0,-32696(gp)
80407620:	18400025 	blez	v0,804076b8 <changeBootLine+0x104>
80407624:	0000a021 	move	s4,zero
80407628:	00009821 	move	s3,zero
8040762c:	3c058042 	lui	a1,0x8042
80407630:	3c108042 	lui	s0,0x8042
80407634:	24a5c67c 	addiu	a1,a1,-14724
80407638:	2610c67e 	addiu	s0,s0,-14722
8040763c:	02652821 	addu	a1,s3,a1
80407640:	02402021 	move	a0,s2
80407644:	24060002 	li	a2,2
80407648:	0c10345e 	jal	8040d178 <lib_memcpy>
8040764c:	02708021 	addu	s0,s3,s0
80407650:	0c1033bf 	jal	8040cefc <lib_strlen>
80407654:	02002021 	move	a0,s0
80407658:	26520002 	addiu	s2,s2,2
8040765c:	02402021 	move	a0,s2
80407660:	02002821 	move	a1,s0
80407664:	00403021 	move	a2,v0
80407668:	0c10345e 	jal	8040d178 <lib_memcpy>
8040766c:	00408821 	move	s1,v0
80407670:	26a2c674 	addiu	v0,s5,-14732
80407674:	02621021 	addu	v0,s3,v0
80407678:	8043000a 	lb	v1,10(v0)
8040767c:	3c058042 	lui	a1,0x8042
80407680:	02519021 	addu	s2,s2,s1
80407684:	24020020 	li	v0,32
80407688:	26940001 	addiu	s4,s4,1
8040768c:	26730048 	addiu	s3,s3,72
80407690:	24a5c0f4 	addiu	a1,a1,-16140
80407694:	24060001 	li	a2,1
80407698:	10620003 	beq	v1,v0,804076a8 <changeBootLine+0xf4>
8040769c:	02402021 	move	a0,s2
804076a0:	0c10345e 	jal	8040d178 <lib_memcpy>
804076a4:	26520001 	addiu	s2,s2,1
804076a8:	8f828048 	lw	v0,-32696(gp)
804076ac:	0282102a 	slt	v0,s4,v0
804076b0:	1440ffdf 	bnez	v0,80407630 <changeBootLine+0x7c>
804076b4:	3c058042 	lui	a1,0x8042
804076b8:	0c101a90 	jal	80406a40 <writeNvramData>
804076bc:	00000000 	nop
804076c0:	0c101aa2 	jal	80406a88 <readNvramData>
804076c4:	00000000 	nop
804076c8:	0c1019a8 	jal	804066a0 <convertBootInfo>
804076cc:	00000000 	nop
804076d0:	26c529f8 	addiu	a1,s6,10744
804076d4:	0c1033c8 	jal	8040cf20 <lib_strcmp>
804076d8:	27a40010 	addiu	a0,sp,16
804076dc:	10400004 	beqz	v0,804076f0 <changeBootLine+0x13c>
804076e0:	8fbf0044 	lw	ra,68(sp)
804076e4:	0c10184e 	jal	80406138 <enet_init>
804076e8:	00000000 	nop
804076ec:	8fbf0044 	lw	ra,68(sp)
804076f0:	8fb60040 	lw	s6,64(sp)
804076f4:	8fb5003c 	lw	s5,60(sp)
804076f8:	8fb40038 	lw	s4,56(sp)
804076fc:	8fb30034 	lw	s3,52(sp)
80407700:	8fb20030 	lw	s2,48(sp)
80407704:	8fb1002c 	lw	s1,44(sp)
80407708:	8fb00028 	lw	s0,40(sp)
8040770c:	00001021 	move	v0,zero
80407710:	03e00008 	jr	ra
80407714:	27bd0048 	addiu	sp,sp,72

80407718 <bcm63xx_cfe_rawload>:
80407718:	27bdfdc8 	addiu	sp,sp,-568
8040771c:	afb40228 	sw	s4,552(sp)
80407720:	afbf0234 	sw	ra,564(sp)
80407724:	afb60230 	sw	s6,560(sp)
80407728:	afb5022c 	sw	s5,556(sp)
8040772c:	afb30224 	sw	s3,548(sp)
80407730:	afb20220 	sw	s2,544(sp)
80407734:	afb1021c 	sw	s1,540(sp)
80407738:	afb00218 	sw	s0,536(sp)
8040773c:	8c900014 	lw	s0,20(a0)
80407740:	00101082 	srl	v0,s0,0x2
80407744:	30420001 	andi	v0,v0,0x1
80407748:	10400005 	beqz	v0,80407760 <bcm63xx_cfe_rawload+0x48>
8040774c:	0080a021 	move	s4,a0
80407750:	8c960018 	lw	s6,24(a0)
80407754:	8c91001c 	lw	s1,28(a0)
80407758:	08101de7 	j	8040779c <bcm63xx_cfe_rawload+0x84>
8040775c:	00009021 	move	s2,zero
80407760:	8c840008 	lw	a0,8(a0)
80407764:	3c162000 	lui	s6,0x2000
80407768:	3c110004 	lui	s1,0x4
8040776c:	00009021 	move	s2,zero
80407770:	10800005 	beqz	a0,80407788 <bcm63xx_cfe_rawload+0x70>
80407774:	00001021 	move	v0,zero
80407778:	0c1039b9 	jal	8040e6e4 <cfe_getdevinfo>
8040777c:	00000000 	nop
80407780:	04400006 	bltz	v0,8040779c <bcm63xx_cfe_rawload+0x84>
80407784:	00000000 	nop
80407788:	3042000f 	andi	v0,v0,0xf
8040778c:	2442fffe 	addiu	v0,v0,-2
80407790:	2c420002 	sltiu	v0,v0,2
80407794:	24030001 	li	v1,1
80407798:	0062900b 	movn	s2,v1,v0
8040779c:	0c103d91 	jal	8040f644 <cfe_findfilesys>
804077a0:	8e840004 	lw	a0,4(s4)
804077a4:	1040007e 	beqz	v0,804079a0 <bcm63xx_cfe_rawload+0x288>
804077a8:	2405ffe2 	li	a1,-30
804077ac:	8c420004 	lw	v0,4(v0)
804077b0:	8e840004 	lw	a0,4(s4)
804077b4:	8e860008 	lw	a2,8(s4)
804077b8:	02028025 	or	s0,s0,v0
804077bc:	001010c2 	srl	v0,s0,0x3
804077c0:	30420001 	andi	v0,v0,0x1
804077c4:	27a50210 	addiu	a1,sp,528
804077c8:	0c103daa 	jal	8040f6a8 <fs_init>
804077cc:	0002900b 	movn	s2,zero,v0
804077d0:	14400073 	bnez	v0,804079a0 <bcm63xx_cfe_rawload+0x288>
804077d4:	00402821 	move	a1,v0
804077d8:	1640000b 	bnez	s2,80407808 <bcm63xx_cfe_rawload+0xf0>
804077dc:	8fa40210 	lw	a0,528(sp)
804077e0:	8e820014 	lw	v0,20(s4)
804077e4:	00021142 	srl	v0,v0,0x5
804077e8:	30420001 	andi	v0,v0,0x1
804077ec:	10400006 	beqz	v0,80407808 <bcm63xx_cfe_rawload+0xf0>
804077f0:	3c058042 	lui	a1,0x8042
804077f4:	0c103dd5 	jal	8040f754 <fs_hook>
804077f8:	24a5b65c 	addiu	a1,a1,-18852
804077fc:	14400068 	bnez	v0,804079a0 <bcm63xx_cfe_rawload+0x288>
80407800:	00402821 	move	a1,v0
80407804:	8fa40210 	lw	a0,528(sp)
80407808:	8e860000 	lw	a2,0(s4)
8040780c:	27a50214 	addiu	a1,sp,532
80407810:	0c103e01 	jal	8040f804 <fs_open>
80407814:	24070001 	li	a3,1
80407818:	14400028 	bnez	v0,804078bc <bcm63xx_cfe_rawload+0x1a4>
8040781c:	00408021 	move	s0,v0
80407820:	1240002a 	beqz	s2,804078cc <bcm63xx_cfe_rawload+0x1b4>
80407824:	3c026666 	lui	v0,0x6666
80407828:	8fb20210 	lw	s2,528(sp)
8040782c:	8fb10214 	lw	s1,532(sp)
80407830:	00003021 	move	a2,zero
80407834:	02402021 	move	a0,s2
80407838:	02202821 	move	a1,s1
8040783c:	0c103e1d 	jal	8040f874 <fs_seek>
80407840:	00003821 	move	a3,zero
80407844:	27b30010 	addiu	s3,sp,16
80407848:	00008021 	move	s0,zero
8040784c:	02402021 	move	a0,s2
80407850:	02202821 	move	a1,s1
80407854:	02603021 	move	a2,s3
80407858:	0c103e11 	jal	8040f844 <fs_read>
8040785c:	24070200 	li	a3,512
80407860:	26100001 	addiu	s0,s0,1
80407864:	24030200 	li	v1,512
80407868:	14430007 	bne	v0,v1,80407888 <bcm63xx_cfe_rawload+0x170>
8040786c:	2a040010 	slti	a0,s0,16
80407870:	1480fff7 	bnez	a0,80407850 <bcm63xx_cfe_rawload+0x138>
80407874:	02402021 	move	a0,s2
80407878:	16a00004 	bnez	s5,8040788c <bcm63xx_cfe_rawload+0x174>
8040787c:	2402ffdf 	li	v0,-33
80407880:	08101e23 	j	8040788c <bcm63xx_cfe_rawload+0x174>
80407884:	00001021 	move	v0,zero
80407888:	2402fffc 	li	v0,-4
8040788c:	00408021 	move	s0,v0
80407890:	8fa40210 	lw	a0,528(sp)
80407894:	14400007 	bnez	v0,804078b4 <bcm63xx_cfe_rawload+0x19c>
80407898:	8fa50214 	lw	a1,532(sp)
8040789c:	8fa601fc 	lw	a2,508(sp)
804078a0:	8fb10204 	lw	s1,516(sp)
804078a4:	0c103e1d 	jal	8040f874 <fs_seek>
804078a8:	00003821 	move	a3,zero
804078ac:	08101e33 	j	804078cc <bcm63xx_cfe_rawload+0x1b4>
804078b0:	3c026666 	lui	v0,0x6666
804078b4:	0c103e07 	jal	8040f81c <fs_close>
804078b8:	00000000 	nop
804078bc:	0c103df0 	jal	8040f7c0 <fs_uninit>
804078c0:	8fa40210 	lw	a0,528(sp)
804078c4:	08101e68 	j	804079a0 <bcm63xx_cfe_rawload+0x288>
804078c8:	02002821 	move	a1,s0
804078cc:	34426667 	ori	v0,v0,0x6667
804078d0:	02220018 	mult	s1,v0
804078d4:	00111fc3 	sra	v1,s1,0x1f
804078d8:	02209021 	move	s2,s1
804078dc:	02c09821 	move	s3,s6
804078e0:	0000a821 	move	s5,zero
804078e4:	00001010 	mfhi	v0
804078e8:	00021083 	sra	v0,v0,0x2
804078ec:	00438823 	subu	s1,v0,v1
804078f0:	2a231000 	slti	v1,s1,4096
804078f4:	24021000 	li	v0,4096
804078f8:	0043880b 	movn	s1,v0,v1
804078fc:	26230001 	addiu	v1,s1,1
80407900:	2402f000 	li	v0,-4096
80407904:	00628824 	and	s1,v1,v0
80407908:	1a400015 	blez	s2,80407960 <bcm63xx_cfe_rawload+0x248>
8040790c:	8fa50214 	lw	a1,532(sp)
80407910:	8fa40210 	lw	a0,528(sp)
80407914:	0251102a 	slt	v0,s2,s1
80407918:	02403821 	move	a3,s2
8040791c:	02603021 	move	a2,s3
80407920:	0c103e11 	jal	8040f844 <fs_read>
80407924:	0222380a 	movz	a3,s1,v0
80407928:	00408021 	move	s0,v0
8040792c:	8e820014 	lw	v0,20(s4)
80407930:	3c048042 	lui	a0,0x8042
80407934:	02509023 	subu	s2,s2,s0
80407938:	30420001 	andi	v0,v0,0x1
8040793c:	02709821 	addu	s3,s3,s0
80407940:	10400003 	beqz	v0,80407950 <bcm63xx_cfe_rawload+0x238>
80407944:	2484bc48 	addiu	a0,a0,-17336
80407948:	0c10331a 	jal	8040cc68 <xprintf>
8040794c:	00000000 	nop
80407950:	1a000004 	blez	s0,80407964 <bcm63xx_cfe_rawload+0x24c>
80407954:	8fa40210 	lw	a0,528(sp)
80407958:	08101e42 	j	80407908 <bcm63xx_cfe_rawload+0x1f0>
8040795c:	02b0a821 	addu	s5,s5,s0
80407960:	8fa40210 	lw	a0,528(sp)
80407964:	0c103e07 	jal	8040f81c <fs_close>
80407968:	8fa50214 	lw	a1,532(sp)
8040796c:	0c103df0 	jal	8040f7c0 <fs_uninit>
80407970:	8fa40210 	lw	a0,528(sp)
80407974:	8e820014 	lw	v0,20(s4)
80407978:	30420001 	andi	v0,v0,0x1
8040797c:	10400005 	beqz	v0,80407994 <bcm63xx_cfe_rawload+0x27c>
80407980:	ae960020 	sw	s6,32(s4)
80407984:	3c048042 	lui	a0,0x8042
80407988:	2484b528 	addiu	a0,a0,-19160
8040798c:	0c10331a 	jal	8040cc68 <xprintf>
80407990:	02a02821 	move	a1,s5
80407994:	2a020000 	slti	v0,s0,0
80407998:	02a02821 	move	a1,s5
8040799c:	0202280b 	movn	a1,s0,v0
804079a0:	8fbf0234 	lw	ra,564(sp)
804079a4:	8fb60230 	lw	s6,560(sp)
804079a8:	8fb5022c 	lw	s5,556(sp)
804079ac:	8fb40228 	lw	s4,552(sp)
804079b0:	8fb30224 	lw	s3,548(sp)
804079b4:	8fb20220 	lw	s2,544(sp)
804079b8:	8fb1021c 	lw	s1,540(sp)
804079bc:	8fb00218 	lw	s0,536(sp)
804079c0:	00a01021 	move	v0,a1
804079c4:	03e00008 	jr	ra
804079c8:	27bd0238 	addiu	sp,sp,568

804079cc <bcm63xx_cfe_elfload>:
804079cc:	27bdff80 	addiu	sp,sp,-128
804079d0:	afb00058 	sw	s0,88(sp)
804079d4:	afbf007c 	sw	ra,124(sp)
804079d8:	afbe0078 	sw	s8,120(sp)
804079dc:	afb70074 	sw	s7,116(sp)
804079e0:	afb60070 	sw	s6,112(sp)
804079e4:	afb5006c 	sw	s5,108(sp)
804079e8:	afb40068 	sw	s4,104(sp)
804079ec:	afb30064 	sw	s3,100(sp)
804079f0:	afb20060 	sw	s2,96(sp)
804079f4:	afb1005c 	sw	s1,92(sp)
804079f8:	00808021 	move	s0,a0
804079fc:	8e060008 	lw	a2,8(s0)
80407a00:	8c840004 	lw	a0,4(a0)
80407a04:	0c103daa 	jal	8040f6a8 <fs_init>
80407a08:	27a50048 	addiu	a1,sp,72
80407a0c:	144000fd 	bnez	v0,80407e04 <bcm63xx_cfe_elfload+0x438>
80407a10:	00403021 	move	a2,v0
80407a14:	8e020014 	lw	v0,20(s0)
80407a18:	00021142 	srl	v0,v0,0x5
80407a1c:	30420001 	andi	v0,v0,0x1
80407a20:	10400007 	beqz	v0,80407a40 <bcm63xx_cfe_elfload+0x74>
80407a24:	8fa40048 	lw	a0,72(sp)
80407a28:	3c058042 	lui	a1,0x8042
80407a2c:	0c103dd5 	jal	8040f754 <fs_hook>
80407a30:	24a5b65c 	addiu	a1,a1,-18852
80407a34:	144000f3 	bnez	v0,80407e04 <bcm63xx_cfe_elfload+0x438>
80407a38:	00403021 	move	a2,v0
80407a3c:	8fa40048 	lw	a0,72(sp)
80407a40:	8e060000 	lw	a2,0(s0)
80407a44:	27a5004c 	addiu	a1,sp,76
80407a48:	0c103e01 	jal	8040f804 <fs_open>
80407a4c:	24070001 	li	a3,1
80407a50:	10400005 	beqz	v0,80407a68 <bcm63xx_cfe_elfload+0x9c>
80407a54:	8fb40048 	lw	s4,72(sp)
80407a58:	0c103df0 	jal	8040f7c0 <fs_uninit>
80407a5c:	02802021 	move	a0,s4
80407a60:	08101f81 	j	80407e04 <bcm63xx_cfe_elfload+0x438>
80407a64:	2406ffee 	li	a2,-18
80407a68:	8fb5004c 	lw	s5,76(sp)
80407a6c:	8e020014 	lw	v0,20(s0)
80407a70:	27be0010 	addiu	s8,sp,16
80407a74:	ae000020 	sw	zero,32(s0)
80407a78:	02802021 	move	a0,s4
80407a7c:	02a02821 	move	a1,s5
80407a80:	03c03021 	move	a2,s8
80407a84:	24070034 	li	a3,52
80407a88:	26100020 	addiu	s0,s0,32
80407a8c:	0c103e11 	jal	8040f844 <fs_read>
80407a90:	afa20054 	sw	v0,84(sp)
80407a94:	24030034 	li	v1,52
80407a98:	afb00050 	sw	s0,80(sp)
80407a9c:	0000b821 	move	s7,zero
80407aa0:	144300d2 	bne	v0,v1,80407dec <bcm63xx_cfe_elfload+0x420>
80407aa4:	2410fffc 	li	s0,-4
80407aa8:	8fa30010 	lw	v1,16(sp)
80407aac:	3c027f45 	lui	v0,0x7f45
80407ab0:	34424c46 	ori	v0,v0,0x4c46
80407ab4:	146200cd 	bne	v1,v0,80407dec <bcm63xx_cfe_elfload+0x420>
80407ab8:	2410fff5 	li	s0,-11
80407abc:	93a40014 	lbu	a0,20(sp)
80407ac0:	24020001 	li	v0,1
80407ac4:	148200c9 	bne	a0,v0,80407dec <bcm63xx_cfe_elfload+0x420>
80407ac8:	2410fff4 	li	s0,-12
80407acc:	93a30015 	lbu	v1,21(sp)
80407ad0:	24020002 	li	v0,2
80407ad4:	146200c5 	bne	v1,v0,80407dec <bcm63xx_cfe_elfload+0x420>
80407ad8:	2410fff3 	li	s0,-13
80407adc:	93a20016 	lbu	v0,22(sp)
80407ae0:	144400c2 	bne	v0,a0,80407dec <bcm63xx_cfe_elfload+0x420>
80407ae4:	2410fff2 	li	s0,-14
80407ae8:	97a30022 	lhu	v1,34(sp)
80407aec:	24020008 	li	v0,8
80407af0:	146200be 	bne	v1,v0,80407dec <bcm63xx_cfe_elfload+0x420>
80407af4:	2410fff1 	li	s0,-15
80407af8:	8fa2002c 	lw	v0,44(sp)
80407afc:	1040006e 	beqz	v0,80407cb8 <bcm63xx_cfe_elfload+0x2ec>
80407b00:	97a5003c 	lhu	a1,60(sp)
80407b04:	10a0006c 	beqz	a1,80407cb8 <bcm63xx_cfe_elfload+0x2ec>
80407b08:	97a3003a 	lhu	v1,58(sp)
80407b0c:	24020020 	li	v0,32
80407b10:	146200b6 	bne	v1,v0,80407dec <bcm63xx_cfe_elfload+0x420>
80407b14:	2410fff0 	li	s0,-16
80407b18:	00058940 	sll	s1,a1,0x5
80407b1c:	3c168042 	lui	s6,0x8042
80407b20:	26c42bec 	addiu	a0,s6,11244
80407b24:	02202821 	move	a1,s1
80407b28:	0c103064 	jal	8040c190 <kmalloc>
80407b2c:	00003021 	move	a2,zero
80407b30:	00409821 	move	s3,v0
80407b34:	104000ad 	beqz	v0,80407dec <bcm63xx_cfe_elfload+0x420>
80407b38:	2410fffb 	li	s0,-5
80407b3c:	8fa6002c 	lw	a2,44(sp)
80407b40:	02802021 	move	a0,s4
80407b44:	02a02821 	move	a1,s5
80407b48:	0c103e1d 	jal	8040f874 <fs_seek>
80407b4c:	00003821 	move	a3,zero
80407b50:	8fa3002c 	lw	v1,44(sp)
80407b54:	14430008 	bne	v0,v1,80407b78 <bcm63xx_cfe_elfload+0x1ac>
80407b58:	26c42bec 	addiu	a0,s6,11244
80407b5c:	02802021 	move	a0,s4
80407b60:	02a02821 	move	a1,s5
80407b64:	02603021 	move	a2,s3
80407b68:	0c103e11 	jal	8040f844 <fs_read>
80407b6c:	02203821 	move	a3,s1
80407b70:	10510005 	beq	v0,s1,80407b88 <bcm63xx_cfe_elfload+0x1bc>
80407b74:	26c42bec 	addiu	a0,s6,11244
80407b78:	0c103031 	jal	8040c0c4 <kfree>
80407b7c:	02602821 	move	a1,s3
80407b80:	08101f7b 	j	80407dec <bcm63xx_cfe_elfload+0x420>
80407b84:	2410fffc 	li	s0,-4
80407b88:	8fc20020 	lw	v0,32(s8)
80407b8c:	8e630004 	lw	v1,4(s3)
80407b90:	0043102b 	sltu	v0,v0,v1
80407b94:	1040001e 	beqz	v0,80407c10 <bcm63xx_cfe_elfload+0x244>
80407b98:	00003021 	move	a2,zero
80407b9c:	97c30030 	lhu	v1,48(s8)
80407ba0:	26c42bec 	addiu	a0,s6,11244
80407ba4:	00031080 	sll	v0,v1,0x2
80407ba8:	00431021 	addu	v0,v0,v1
80407bac:	000288c0 	sll	s1,v0,0x3
80407bb0:	0c103064 	jal	8040c190 <kmalloc>
80407bb4:	02202821 	move	a1,s1
80407bb8:	00408021 	move	s0,v0
80407bbc:	10400013 	beqz	v0,80407c0c <bcm63xx_cfe_elfload+0x240>
80407bc0:	00002821 	move	a1,zero
80407bc4:	8fc60020 	lw	a2,32(s8)
80407bc8:	02802021 	move	a0,s4
80407bcc:	02a02821 	move	a1,s5
80407bd0:	0c103e1d 	jal	8040f874 <fs_seek>
80407bd4:	00003821 	move	a3,zero
80407bd8:	8fc30020 	lw	v1,32(s8)
80407bdc:	14430007 	bne	v0,v1,80407bfc <bcm63xx_cfe_elfload+0x230>
80407be0:	02802021 	move	a0,s4
80407be4:	02a02821 	move	a1,s5
80407be8:	02003021 	move	a2,s0
80407bec:	0c103e11 	jal	8040f844 <fs_read>
80407bf0:	02203821 	move	a3,s1
80407bf4:	10510005 	beq	v0,s1,80407c0c <bcm63xx_cfe_elfload+0x240>
80407bf8:	02002821 	move	a1,s0
80407bfc:	02002821 	move	a1,s0
80407c00:	0c103031 	jal	8040c0c4 <kfree>
80407c04:	26c42bec 	addiu	a0,s6,11244
80407c08:	00002821 	move	a1,zero
80407c0c:	00a0b821 	move	s7,a1
80407c10:	97c2002c 	lhu	v0,44(s8)
80407c14:	2408ffff 	li	t0,-1
80407c18:	00009021 	move	s2,zero
80407c1c:	1040006c 	beqz	v0,80407dd0 <bcm63xx_cfe_elfload+0x404>
80407c20:	00002821 	move	a1,zero
80407c24:	00403821 	move	a3,v0
80407c28:	24090001 	li	t1,1
80407c2c:	00051140 	sll	v0,a1,0x5
80407c30:	00531821 	addu	v1,v0,s3
80407c34:	8c620000 	lw	v0,0(v1)
80407c38:	24a50001 	addiu	a1,a1,1
80407c3c:	14490007 	bne	v0,t1,80407c5c <bcm63xx_cfe_elfload+0x290>
80407c40:	00a7302a 	slt	a2,a1,a3
80407c44:	8c640004 	lw	a0,4(v1)
80407c48:	0088102b 	sltu	v0,a0,t0
80407c4c:	10400003 	beqz	v0,80407c5c <bcm63xx_cfe_elfload+0x290>
80407c50:	00000000 	nop
80407c54:	00609021 	move	s2,v1
80407c58:	00804021 	move	t0,a0
80407c5c:	14c0fff4 	bnez	a2,80407c30 <bcm63xx_cfe_elfload+0x264>
80407c60:	00051140 	sll	v0,a1,0x5
80407c64:	1240005b 	beqz	s2,80407dd4 <bcm63xx_cfe_elfload+0x408>
80407c68:	26c42bec 	addiu	a0,s6,11244
80407c6c:	8e420010 	lw	v0,16(s2)
80407c70:	10400034 	beqz	v0,80407d44 <bcm63xx_cfe_elfload+0x378>
80407c74:	02802021 	move	a0,s4
80407c78:	8e460004 	lw	a2,4(s2)
80407c7c:	02a02821 	move	a1,s5
80407c80:	0c103e1d 	jal	8040f874 <fs_seek>
80407c84:	00003821 	move	a3,zero
80407c88:	8e430004 	lw	v1,4(s2)
80407c8c:	1043000c 	beq	v0,v1,80407cc0 <bcm63xx_cfe_elfload+0x2f4>
80407c90:	8fa30054 	lw	v1,84(sp)
80407c94:	12e00004 	beqz	s7,80407ca8 <bcm63xx_cfe_elfload+0x2dc>
80407c98:	00000000 	nop
80407c9c:	26c42bec 	addiu	a0,s6,11244
80407ca0:	0c103031 	jal	8040c0c4 <kfree>
80407ca4:	02e02821 	move	a1,s7
80407ca8:	3c048042 	lui	a0,0x8042
80407cac:	24842bec 	addiu	a0,a0,11244
80407cb0:	0c103031 	jal	8040c0c4 <kfree>
80407cb4:	02602821 	move	a1,s3
80407cb8:	08101f7b 	j	80407dec <bcm63xx_cfe_elfload+0x420>
80407cbc:	2410fff0 	li	s0,-16
80407cc0:	8e510008 	lw	s1,8(s2)
80407cc4:	30620001 	andi	v0,v1,0x1
80407cc8:	10400006 	beqz	v0,80407ce4 <bcm63xx_cfe_elfload+0x318>
80407ccc:	8e500010 	lw	s0,16(s2)
80407cd0:	3c048042 	lui	a0,0x8042
80407cd4:	2484b53c 	addiu	a0,a0,-19140
80407cd8:	02202821 	move	a1,s1
80407cdc:	0c10331a 	jal	8040cc68 <xprintf>
80407ce0:	02003021 	move	a2,s0
80407ce4:	02203021 	move	a2,s1
80407ce8:	02802021 	move	a0,s4
80407cec:	02a02821 	move	a1,s5
80407cf0:	0c103e11 	jal	8040f844 <fs_read>
80407cf4:	02003821 	move	a3,s0
80407cf8:	04400004 	bltz	v0,80407d0c <bcm63xx_cfe_elfload+0x340>
80407cfc:	2411fffc 	li	s1,-4
80407d00:	00501026 	xor	v0,v0,s0
80407d04:	2411fff0 	li	s1,-16
80407d08:	0202880a 	movz	s1,s0,v0
80407d0c:	8e420010 	lw	v0,16(s2)
80407d10:	1222000c 	beq	s1,v0,80407d44 <bcm63xx_cfe_elfload+0x378>
80407d14:	00000000 	nop
80407d18:	12e00004 	beqz	s7,80407d2c <bcm63xx_cfe_elfload+0x360>
80407d1c:	00000000 	nop
80407d20:	26c42bec 	addiu	a0,s6,11244
80407d24:	0c103031 	jal	8040c0c4 <kfree>
80407d28:	02e02821 	move	a1,s7
80407d2c:	3c048042 	lui	a0,0x8042
80407d30:	24842bec 	addiu	a0,a0,11244
80407d34:	0c103031 	jal	8040c0c4 <kfree>
80407d38:	02602821 	move	a1,s3
80407d3c:	08101f7b 	j	80407dec <bcm63xx_cfe_elfload+0x420>
80407d40:	02208021 	move	s0,s1
80407d44:	8e440010 	lw	a0,16(s2)
80407d48:	8e460014 	lw	a2,20(s2)
80407d4c:	0086102b 	sltu	v0,a0,a2
80407d50:	1040001d 	beqz	v0,80407dc8 <bcm63xx_cfe_elfload+0x3fc>
80407d54:	8fa50054 	lw	a1,84(sp)
80407d58:	8e420008 	lw	v0,8(s2)
80407d5c:	00c48023 	subu	s0,a2,a0
80407d60:	30a30001 	andi	v1,a1,0x1
80407d64:	10600006 	beqz	v1,80407d80 <bcm63xx_cfe_elfload+0x3b4>
80407d68:	00448821 	addu	s1,v0,a0
80407d6c:	3c048042 	lui	a0,0x8042
80407d70:	2484b53c 	addiu	a0,a0,-19140
80407d74:	02202821 	move	a1,s1
80407d78:	0c10331a 	jal	8040cc68 <xprintf>
80407d7c:	02003021 	move	a2,s0
80407d80:	1a000004 	blez	s0,80407d94 <bcm63xx_cfe_elfload+0x3c8>
80407d84:	02202021 	move	a0,s1
80407d88:	00002821 	move	a1,zero
80407d8c:	0c103468 	jal	8040d1a0 <lib_memset>
80407d90:	02003021 	move	a2,s0
80407d94:	0601000c 	bgez	s0,80407dc8 <bcm63xx_cfe_elfload+0x3fc>
80407d98:	00000000 	nop
80407d9c:	12e00004 	beqz	s7,80407db0 <bcm63xx_cfe_elfload+0x3e4>
80407da0:	00000000 	nop
80407da4:	26c42bec 	addiu	a0,s6,11244
80407da8:	0c103031 	jal	8040c0c4 <kfree>
80407dac:	02e02821 	move	a1,s7
80407db0:	3c048042 	lui	a0,0x8042
80407db4:	24842bec 	addiu	a0,a0,11244
80407db8:	0c103031 	jal	8040c0c4 <kfree>
80407dbc:	02602821 	move	a1,s3
80407dc0:	08101f7c 	j	80407df0 <bcm63xx_cfe_elfload+0x424>
80407dc4:	8fa40048 	lw	a0,72(sp)
80407dc8:	08101f04 	j	80407c10 <bcm63xx_cfe_elfload+0x244>
80407dcc:	ae400000 	sw	zero,0(s2)
80407dd0:	26c42bec 	addiu	a0,s6,11244
80407dd4:	0c103031 	jal	8040c0c4 <kfree>
80407dd8:	02602821 	move	a1,s3
80407ddc:	8fc20018 	lw	v0,24(s8)
80407de0:	8fa30050 	lw	v1,80(sp)
80407de4:	00008021 	move	s0,zero
80407de8:	ac620000 	sw	v0,0(v1)
80407dec:	8fa40048 	lw	a0,72(sp)
80407df0:	0c103e07 	jal	8040f81c <fs_close>
80407df4:	8fa5004c 	lw	a1,76(sp)
80407df8:	0c103df0 	jal	8040f7c0 <fs_uninit>
80407dfc:	8fa40048 	lw	a0,72(sp)
80407e00:	02003021 	move	a2,s0
80407e04:	8fbf007c 	lw	ra,124(sp)
80407e08:	8fbe0078 	lw	s8,120(sp)
80407e0c:	8fb70074 	lw	s7,116(sp)
80407e10:	8fb60070 	lw	s6,112(sp)
80407e14:	8fb5006c 	lw	s5,108(sp)
80407e18:	8fb40068 	lw	s4,104(sp)
80407e1c:	8fb30064 	lw	s3,100(sp)
80407e20:	8fb20060 	lw	s2,96(sp)
80407e24:	8fb1005c 	lw	s1,92(sp)
80407e28:	8fb00058 	lw	s0,88(sp)
80407e2c:	00c01021 	move	v0,a2
80407e30:	03e00008 	jr	ra
80407e34:	27bd0080 	addiu	sp,sp,128

80407e38 <cfe_ledstr>:
80407e38:	03e00008 	jr	ra
80407e3c:	00000000 	nop

80407e40 <cfe_command_restart>:
80407e40:	03e00008 	jr	ra
80407e44:	00000000 	nop

80407e48 <cfe_restart>:
80407e48:	08100551 	j	80401544 <_exc_restart>
80407e4c:	00000000 	nop

80407e50 <cfe_start>:
80407e50:	08100486 	j	80401218 <cfe_launch>
80407e54:	00000000 	nop

80407e58 <AlertLed_On>:
80407e58:	3c04fffe 	lui	a0,0xfffe
80407e5c:	34830404 	ori	v1,a0,0x404
80407e60:	8c620000 	lw	v0,0(v1)
80407e64:	3484040c 	ori	a0,a0,0x40c
80407e68:	34420020 	ori	v0,v0,0x20
80407e6c:	ac620000 	sw	v0,0(v1)
80407e70:	8c820000 	lw	v0,0(a0)
80407e74:	2403ffdf 	li	v1,-33
80407e78:	00431024 	and	v0,v0,v1
80407e7c:	ac820000 	sw	v0,0(a0)
80407e80:	03e00008 	jr	ra
80407e84:	00000000 	nop

80407e88 <AlertLed_Off>:
80407e88:	3c03fffe 	lui	v1,0xfffe
80407e8c:	34640404 	ori	a0,v1,0x404
80407e90:	8c820000 	lw	v0,0(a0)
80407e94:	3463040c 	ori	v1,v1,0x40c
80407e98:	34420020 	ori	v0,v0,0x20
80407e9c:	ac820000 	sw	v0,0(a0)
80407ea0:	8c620000 	lw	v0,0(v1)
80407ea4:	34420020 	ori	v0,v0,0x20
80407ea8:	ac620000 	sw	v0,0(v1)
80407eac:	03e00008 	jr	ra
80407eb0:	00000000 	nop

80407eb4 <cfe_command_loop>:
80407eb4:	3c048041 	lui	a0,0x8041
80407eb8:	27bdfeb8 	addiu	sp,sp,-328
80407ebc:	24849224 	addiu	a0,a0,-28124
80407ec0:	afbf0140 	sw	ra,320(sp)
80407ec4:	0c103c22 	jal	8040f088 <cfe_bg_add>
80407ec8:	00002821 	move	a1,zero
80407ecc:	3c048042 	lui	a0,0x8042
80407ed0:	0c102174 	jal	804085d0 <env_getenv>
80407ed4:	2484b554 	addiu	a0,a0,-19116
80407ed8:	27a50010 	addiu	a1,sp,16
80407edc:	14400003 	bnez	v0,80407eec <cfe_command_loop+0x38>
80407ee0:	2406012c 	li	a2,300
80407ee4:	3c028042 	lui	v0,0x8042
80407ee8:	2442b55c 	addiu	v0,v0,-19108
80407eec:	0c103b08 	jal	8040ec20 <console_readline>
80407ef0:	00402021 	move	a0,v0
80407ef4:	0c102245 	jal	80408914 <cfe_web_check>
80407ef8:	00000000 	nop
80407efc:	10400005 	beqz	v0,80407f14 <cfe_command_loop+0x60>
80407f00:	27a40010 	addiu	a0,sp,16
80407f04:	0c102248 	jal	80408920 <cfe_web_fg_process>
80407f08:	00000000 	nop
80407f0c:	08101fb4 	j	80407ed0 <cfe_command_loop+0x1c>
80407f10:	3c048042 	lui	a0,0x8042
80407f14:	0c1043f2 	jal	80410fc8 <ui_docommands>
80407f18:	00000000 	nop
80407f1c:	3c048042 	lui	a0,0x8042
80407f20:	2403fffd 	li	v1,-3
80407f24:	2484b564 	addiu	a0,a0,-19100
80407f28:	1043ffe8 	beq	v0,v1,80407ecc <cfe_command_loop+0x18>
80407f2c:	00402821 	move	a1,v0
80407f30:	0c10331a 	jal	8040cc68 <xprintf>
80407f34:	00000000 	nop
80407f38:	08101fb4 	j	80407ed0 <cfe_command_loop+0x1c>
80407f3c:	3c048042 	lui	a0,0x8042

80407f40 <cfe_main>:
80407f40:	27bdff80 	addiu	sp,sp,-128
80407f44:	afb10074 	sw	s1,116(sp)
80407f48:	3c11fffe 	lui	s1,0xfffe
80407f4c:	afbf007c 	sw	ra,124(sp)
80407f50:	afb20078 	sw	s2,120(sp)
80407f54:	0c101f96 	jal	80407e58 <AlertLed_On>
80407f58:	afb00070 	sw	s0,112(sp)
80407f5c:	0c103c1d 	jal	8040f074 <cfe_bg_init>
80407f60:	00000000 	nop
80407f64:	0c10370e 	jal	8040dc38 <cfe_attach_init>
80407f68:	00000000 	nop
80407f6c:	8e240034 	lw	a0,52(s1)
80407f70:	3c10000f 	lui	s0,0xf
80407f74:	36028000 	ori	v0,s0,0x8000
80407f78:	00821024 	and	v0,a0,v0
80407f7c:	00042c02 	srl	a1,a0,0x10
80407f80:	30a50070 	andi	a1,a1,0x70
80407f84:	000213c2 	srl	v0,v0,0xf
80407f88:	24420002 	addiu	v0,v0,2
80407f8c:	24a50010 	addiu	a1,a1,16
80407f90:	70a22802 	mul	a1,a1,v0
80407f94:	30870038 	andi	a3,a0,0x38
80407f98:	30820007 	andi	v0,a0,0x7
80407f9c:	24420004 	addiu	v0,v0,4
80407fa0:	000738c2 	srl	a3,a3,0x3
80407fa4:	30830e00 	andi	v1,a0,0xe00
80407fa8:	308601c0 	andi	a2,a0,0x1c0
80407fac:	00031a42 	srl	v1,v1,0x9
80407fb0:	30847000 	andi	a0,a0,0x7000
80407fb4:	24630004 	addiu	v1,v1,4
80407fb8:	00042302 	srl	a0,a0,0xc
80407fbc:	00063182 	srl	a2,a2,0x6
80407fc0:	24c60001 	addiu	a2,a2,1
80407fc4:	3c128042 	lui	s2,0x8042
80407fc8:	36312000 	ori	s1,s1,0x2000
80407fcc:	3610423f 	ori	s0,s0,0x423f
80407fd0:	70e24002 	mul	t0,a3,v0
80407fd4:	01023821 	addu	a3,t0,v0
80407fd8:	70831002 	mul	v0,a0,v1
80407fdc:	00432021 	addu	a0,v0,v1
80407fe0:	00a4001a 	div	zero,a1,a0
80407fe4:	14800002 	bnez	a0,80407ff0 <cfe_main+0xb0>
80407fe8:	00000000 	nop
80407fec:	000001cd 	break	0x7
80407ff0:	00002012 	mflo	a0
80407ff4:	00041940 	sll	v1,a0,0x5
80407ff8:	00641823 	subu	v1,v1,a0
80407ffc:	00a6001a 	div	zero,a1,a2
80408000:	14c00002 	bnez	a2,8040800c <cfe_main+0xcc>
80408004:	00000000 	nop
80408008:	000001cd 	break	0x7
8040800c:	00031180 	sll	v0,v1,0x6
80408010:	00431023 	subu	v0,v0,v1
80408014:	000210c0 	sll	v0,v0,0x3
80408018:	00441021 	addu	v0,v0,a0
8040801c:	00021180 	sll	v0,v0,0x6
80408020:	af8280c0 	sw	v0,-32576(gp)
80408024:	00003012 	mflo	a2
80408028:	00061940 	sll	v1,a2,0x5
8040802c:	00661823 	subu	v1,v1,a2
80408030:	00a7001a 	div	zero,a1,a3
80408034:	14e00002 	bnez	a3,80408040 <cfe_main+0x100>
80408038:	00000000 	nop
8040803c:	000001cd 	break	0x7
80408040:	00031180 	sll	v0,v1,0x6
80408044:	00431023 	subu	v0,v0,v1
80408048:	000210c0 	sll	v0,v0,0x3
8040804c:	00461021 	addu	v0,v0,a2
80408050:	00021180 	sll	v0,v0,0x6
80408054:	af828084 	sw	v0,-32636(gp)
80408058:	00002812 	mflo	a1
8040805c:	00051940 	sll	v1,a1,0x5
80408060:	00651823 	subu	v1,v1,a1
80408064:	00031180 	sll	v0,v1,0x6
80408068:	00431023 	subu	v0,v0,v1
8040806c:	000210c0 	sll	v0,v0,0x3
80408070:	00451021 	addu	v0,v0,a1
80408074:	00021180 	sll	v0,v0,0x6
80408078:	0c103bb9 	jal	8040eee4 <cfe_timer_init>
8040807c:	af8280c4 	sw	v0,-32572(gp)
80408080:	3c048041 	lui	a0,0x8041
80408084:	2484dc54 	addiu	a0,a0,-9132
80408088:	0c103c22 	jal	8040f088 <cfe_bg_add>
8040808c:	00002821 	move	a1,zero
80408090:	8f858014 	lw	a1,-32748(gp)
80408094:	3c048042 	lui	a0,0x8042
80408098:	3c060010 	lui	a2,0x10
8040809c:	0c103020 	jal	8040c080 <kmeminit>
804080a0:	24842bec 	addiu	a0,a0,11244
804080a4:	0c100fe6 	jal	80403f98 <board_console_init>
804080a8:	00000000 	nop
804080ac:	0c102d2d 	jal	8040b4b4 <cfe_setup_exceptions>
804080b0:	00000000 	nop
804080b4:	3c048042 	lui	a0,0x8042
804080b8:	0c10331a 	jal	8040cc68 <xprintf>
804080bc:	2484c21c 	addiu	a0,a0,-15844
804080c0:	24020006 	li	v0,6
804080c4:	afa20010 	sw	v0,16(sp)
804080c8:	24020004 	li	v0,4
804080cc:	afa20014 	sw	v0,20(sp)
804080d0:	8f828050 	lw	v0,-32688(gp)
804080d4:	3c048042 	lui	a0,0x8042
804080d8:	24070025 	li	a3,37
804080dc:	afa20018 	sw	v0,24(sp)
804080e0:	3c028042 	lui	v0,0x8042
804080e4:	2484b580 	addiu	a0,a0,-19072
804080e8:	24050001 	li	a1,1
804080ec:	00003021 	move	a2,zero
804080f0:	2442b5a8 	addiu	v0,v0,-19032
804080f4:	0c10331a 	jal	8040cc68 <xprintf>
804080f8:	afa2001c 	sw	v0,28(sp)
804080fc:	8f868088 	lw	a2,-32632(gp)
80408100:	8f85808c 	lw	a1,-32628(gp)
80408104:	3c048042 	lui	a0,0x8042
80408108:	0c10331a 	jal	8040cc68 <xprintf>
8040810c:	2484b5b4 	addiu	a0,a0,-19020
80408110:	3c048042 	lui	a0,0x8042
80408114:	0c10331a 	jal	8040cc68 <xprintf>
80408118:	2484b5cc 	addiu	a0,a0,-18996
8040811c:	0c10331a 	jal	8040cc68 <xprintf>
80408120:	2644a398 	addiu	a0,s2,-23656
80408124:	8e250000 	lw	a1,0(s1)
80408128:	2402ff00 	li	v0,-256
8040812c:	3c048042 	lui	a0,0x8042
80408130:	00a22824 	and	a1,a1,v0
80408134:	3c02a000 	lui	v0,0xa000
80408138:	00a22825 	or	a1,a1,v0
8040813c:	0c10331a 	jal	8040cc68 <xprintf>
80408140:	2484b5fc 	addiu	a0,a0,-18948
80408144:	3c048042 	lui	a0,0x8042
80408148:	0c10331a 	jal	8040cc68 <xprintf>
8040814c:	2484b610 	addiu	a0,a0,-18928
80408150:	0c103b0a 	jal	8040ec28 <cfe_arena_init>
80408154:	00000000 	nop
80408158:	3c048042 	lui	a0,0x8042
8040815c:	0c10331a 	jal	8040cc68 <xprintf>
80408160:	2484b628 	addiu	a0,a0,-18904
80408164:	0c1010ea 	jal	804043a8 <board_device_init>
80408168:	00000000 	nop
8040816c:	0c1004f4 	jal	804013d0 <_getsegtbl>
80408170:	00000000 	nop
80408174:	8f858020 	lw	a1,-32736(gp)
80408178:	3c048042 	lui	a0,0x8042
8040817c:	2484b640 	addiu	a0,a0,-18880
80408180:	0c10331a 	jal	8040cc68 <xprintf>
80408184:	00408821 	move	s1,v0
80408188:	8f828084 	lw	v0,-32636(gp)
8040818c:	0202802a 	slt	s0,s0,v0
80408190:	16000009 	bnez	s0,804081b8 <cfe_main+0x278>
80408194:	00021fc3 	sra	v1,v0,0x1f
80408198:	3c051062 	lui	a1,0x1062
8040819c:	34a54dd3 	ori	a1,a1,0x4dd3
804081a0:	00450018 	mult	v0,a1
804081a4:	3c048042 	lui	a0,0x8042
804081a8:	2484b650 	addiu	a0,a0,-18864
804081ac:	00002810 	mfhi	a1
804081b0:	08102075 	j	804081d4 <cfe_main+0x294>
804081b4:	00052983 	sra	a1,a1,0x6
804081b8:	3c05431b 	lui	a1,0x431b
804081bc:	34a5de83 	ori	a1,a1,0xde83
804081c0:	00450018 	mult	v0,a1
804081c4:	3c048042 	lui	a0,0x8042
804081c8:	2484b658 	addiu	a0,a0,-18856
804081cc:	00002810 	mfhi	a1
804081d0:	00052c83 	sra	a1,a1,0x12
804081d4:	0c10331a 	jal	8040cc68 <xprintf>
804081d8:	00a32823 	subu	a1,a1,v1
804081dc:	8f8380c0 	lw	v1,-32576(gp)
804081e0:	3c02431b 	lui	v0,0x431b
804081e4:	3442de83 	ori	v0,v0,0xde83
804081e8:	00620018 	mult	v1,v0
804081ec:	8f8580c4 	lw	a1,-32572(gp)
804081f0:	00031fc3 	sra	v1,v1,0x1f
804081f4:	3c048042 	lui	a0,0x8042
804081f8:	00053fc3 	sra	a3,a1,0x1f
804081fc:	2484b660 	addiu	a0,a0,-18848
80408200:	3c100080 	lui	s0,0x80
80408204:	00003010 	mfhi	a2
80408208:	00063483 	sra	a2,a2,0x12
8040820c:	00c33023 	subu	a2,a2,v1
80408210:	00a20018 	mult	a1,v0
80408214:	00002810 	mfhi	a1
80408218:	00052c83 	sra	a1,a1,0x12
8040821c:	0c10331a 	jal	8040cc68 <xprintf>
80408220:	00a72823 	subu	a1,a1,a3
80408224:	0c100e43 	jal	8040390c <kerSysMemoryTypeGet>
80408228:	00000000 	nop
8040822c:	2443ffff 	addiu	v1,v0,-1
80408230:	2c620005 	sltiu	v0,v1,5
80408234:	1040000e 	beqz	v0,80408270 <cfe_main+0x330>
80408238:	3c048042 	lui	a0,0x8042
8040823c:	00031080 	sll	v0,v1,0x2
80408240:	3c038042 	lui	v1,0x8042
80408244:	24639624 	addiu	v1,v1,-27100
80408248:	00431021 	addu	v0,v0,v1
8040824c:	8c420000 	lw	v0,0(v0)
80408250:	00400008 	jr	v0
80408254:	00000000 	nop
80408258:	0810209b 	j	8040826c <cfe_main+0x32c>
8040825c:	3c100100 	lui	s0,0x100
80408260:	0810209b 	j	8040826c <cfe_main+0x32c>
80408264:	3c100200 	lui	s0,0x200
80408268:	3c100400 	lui	s0,0x400
8040826c:	3c048042 	lui	a0,0x8042
80408270:	02002821 	move	a1,s0
80408274:	00103502 	srl	a2,s0,0x14
80408278:	2484b67c 	addiu	a0,a0,-18820
8040827c:	0c10331a 	jal	8040cc68 <xprintf>
80408280:	af90804c 	sw	s0,-32692(gp)
80408284:	0c10331a 	jal	8040cc68 <xprintf>
80408288:	2644a398 	addiu	a0,s2,-23656
8040828c:	8f858018 	lw	a1,-32744(gp)
80408290:	8f868010 	lw	a2,-32752(gp)
80408294:	3c048042 	lui	a0,0x8042
80408298:	2484b6a0 	addiu	a0,a0,-18784
8040829c:	0c10331a 	jal	8040cc68 <xprintf>
804082a0:	00c53823 	subu	a3,a2,a1
804082a4:	8e220004 	lw	v0,4(s1)
804082a8:	8f85801c 	lw	a1,-32740(gp)
804082ac:	8e260008 	lw	a2,8(s1)
804082b0:	3c048042 	lui	a0,0x8042
804082b4:	2484b6d4 	addiu	a0,a0,-18732
804082b8:	00c23823 	subu	a3,a2,v0
804082bc:	00c53021 	addu	a2,a2,a1
804082c0:	0c10331a 	jal	8040cc68 <xprintf>
804082c4:	00452821 	addu	a1,v0,a1
804082c8:	8e26000c 	lw	a2,12(s1)
804082cc:	8e220014 	lw	v0,20(s1)
804082d0:	8f85801c 	lw	a1,-32740(gp)
804082d4:	3c048042 	lui	a0,0x8042
804082d8:	00c23823 	subu	a3,a2,v0
804082dc:	2484b708 	addiu	a0,a0,-18680
804082e0:	00c53021 	addu	a2,a2,a1
804082e4:	0c10331a 	jal	8040cc68 <xprintf>
804082e8:	00452821 	addu	a1,v0,a1
804082ec:	8f858014 	lw	a1,-32748(gp)
804082f0:	3c100010 	lui	s0,0x10
804082f4:	3c048042 	lui	a0,0x8042
804082f8:	00b03021 	addu	a2,a1,s0
804082fc:	2484b73c 	addiu	a0,a0,-18628
80408300:	0c10331a 	jal	8040cc68 <xprintf>
80408304:	3c070010 	lui	a3,0x10
80408308:	8f858014 	lw	a1,-32748(gp)
8040830c:	36062000 	ori	a2,s0,0x2000
80408310:	3c048042 	lui	a0,0x8042
80408314:	00a63021 	addu	a2,a1,a2
80408318:	2484b770 	addiu	a0,a0,-18576
8040831c:	00b02821 	addu	a1,a1,s0
80408320:	0c10331a 	jal	8040cc68 <xprintf>
80408324:	24072000 	li	a3,8192
80408328:	8f868008 	lw	a2,-32760(gp)
8040832c:	8f858004 	lw	a1,-32764(gp)
80408330:	3c048042 	lui	a0,0x8042
80408334:	00c03821 	move	a3,a2
80408338:	2484b7a4 	addiu	a0,a0,-18524
8040833c:	0c10331a 	jal	8040cc68 <xprintf>
80408340:	00a63021 	addu	a2,a1,a2
80408344:	8f85812c 	lw	a1,-32468(gp)
80408348:	8f868130 	lw	a2,-32464(gp)
8040834c:	3c048042 	lui	a0,0x8042
80408350:	2484b7d8 	addiu	a0,a0,-18472
80408354:	0c10331a 	jal	8040cc68 <xprintf>
80408358:	00a63021 	addu	a2,a1,a2
8040835c:	8f858000 	lw	a1,-32768(gp)
80408360:	8f86801c 	lw	a2,-32740(gp)
80408364:	3c048042 	lui	a0,0x8042
80408368:	0c10331a 	jal	8040cc68 <xprintf>
8040836c:	2484b804 	addiu	a0,a0,-18428
80408370:	3c058042 	lui	a1,0x8042
80408374:	24a5b830 	addiu	a1,a1,-18384
80408378:	27a40020 	addiu	a0,sp,32
8040837c:	24060001 	li	a2,1
80408380:	00003821 	move	a3,zero
80408384:	24020025 	li	v0,37
80408388:	0c103311 	jal	8040cc44 <xsprintf>
8040838c:	afa20010 	sw	v0,16(sp)
80408390:	3c048042 	lui	a0,0x8042
80408394:	27a50020 	addiu	a1,sp,32
80408398:	2484b83c 	addiu	a0,a0,-18372
8040839c:	0c10217f 	jal	804085fc <env_setenv>
804083a0:	24060003 	li	a2,3
804083a4:	8f858050 	lw	a1,-32688(gp)
804083a8:	10a00005 	beqz	a1,804083c0 <cfe_main+0x480>
804083ac:	00000000 	nop
804083b0:	3c048042 	lui	a0,0x8042
804083b4:	2484b848 	addiu	a0,a0,-18360
804083b8:	0c10217f 	jal	804085fc <env_setenv>
804083bc:	24060003 	li	a2,3
804083c0:	3c048042 	lui	a0,0x8042
804083c4:	0c10331a 	jal	8040cc68 <xprintf>
804083c8:	2484a398 	addiu	a0,a0,-23656
804083cc:	0c1043e2 	jal	80410f88 <ui_init_cmddisp>
804083d0:	00000000 	nop
804083d4:	0c10109e 	jal	80404278 <board_final_init>
804083d8:	00000000 	nop
804083dc:	0c101fad 	jal	80407eb4 <cfe_command_loop>
804083e0:	00000000 	nop
804083e4:	8fbf007c 	lw	ra,124(sp)
804083e8:	8fb20078 	lw	s2,120(sp)
804083ec:	8fb10074 	lw	s1,116(sp)
804083f0:	8fb00070 	lw	s0,112(sp)
804083f4:	03e00008 	jr	ra
804083f8:	27bd0080 	addiu	sp,sp,128

804083fc <cfe_errortext>:
804083fc:	27bdffe8 	addiu	sp,sp,-24
80408400:	afb00010 	sw	s0,16(sp)
80408404:	3c058042 	lui	a1,0x8042
80408408:	3c108042 	lui	s0,0x8042
8040840c:	00803021 	move	a2,a0
80408410:	24a5b858 	addiu	a1,a1,-18344
80408414:	afbf0014 	sw	ra,20(sp)
80408418:	0c103311 	jal	8040cc44 <xsprintf>
8040841c:	2604e808 	addiu	a0,s0,-6136
80408420:	2602e808 	addiu	v0,s0,-6136
80408424:	8fbf0014 	lw	ra,20(sp)
80408428:	8fb00010 	lw	s0,16(sp)
8040842c:	03e00008 	jr	ra
80408430:	27bd0018 	addiu	sp,sp,24

80408434 <env_findenv>:
80408434:	27bdffe0 	addiu	sp,sp,-32
80408438:	afb00010 	sw	s0,16(sp)
8040843c:	8f908054 	lw	s0,-32684(gp)
80408440:	afb20018 	sw	s2,24(sp)
80408444:	afb10014 	sw	s1,20(sp)
80408448:	afbf001c 	sw	ra,28(sp)
8040844c:	27918054 	addiu	s1,gp,-32684
80408450:	00809021 	move	s2,a0
80408454:	12110008 	beq	s0,s1,80408478 <env_findenv+0x44>
80408458:	27828054 	addiu	v0,gp,-32684
8040845c:	8e04000c 	lw	a0,12(s0)
80408460:	0c1033c8 	jal	8040cf20 <lib_strcmp>
80408464:	02402821 	move	a1,s2
80408468:	10400003 	beqz	v0,80408478 <env_findenv+0x44>
8040846c:	27828054 	addiu	v0,gp,-32684
80408470:	08102115 	j	80408454 <env_findenv+0x20>
80408474:	8e100000 	lw	s0,0(s0)
80408478:	02021026 	xor	v0,s0,v0
8040847c:	0002800a 	movz	s0,zero,v0
80408480:	02001021 	move	v0,s0
80408484:	8fbf001c 	lw	ra,28(sp)
80408488:	8fb20018 	lw	s2,24(sp)
8040848c:	8fb10014 	lw	s1,20(sp)
80408490:	8fb00010 	lw	s0,16(sp)
80408494:	03e00008 	jr	ra
80408498:	27bd0020 	addiu	sp,sp,32

8040849c <env_enum>:
8040849c:	27bdffd8 	addiu	sp,sp,-40
804084a0:	afb20018 	sw	s2,24(sp)
804084a4:	afb00010 	sw	s0,16(sp)
804084a8:	8fb20038 	lw	s2,56(sp)
804084ac:	8f908054 	lw	s0,-32684(gp)
804084b0:	afb3001c 	sw	s3,28(sp)
804084b4:	afb10014 	sw	s1,20(sp)
804084b8:	afbf0020 	sw	ra,32(sp)
804084bc:	27828054 	addiu	v0,gp,-32684
804084c0:	00a04021 	move	t0,a1
804084c4:	00c08821 	move	s1,a2
804084c8:	00e09821 	move	s3,a3
804084cc:	12020005 	beq	s0,v0,804084e4 <env_enum+0x48>
804084d0:	00000000 	nop
804084d4:	10800003 	beqz	a0,804084e4 <env_enum+0x48>
804084d8:	2484ffff 	addiu	a0,a0,-1
804084dc:	08102133 	j	804084cc <env_enum+0x30>
804084e0:	8e100000 	lw	s0,0(s0)
804084e4:	27828054 	addiu	v0,gp,-32684
804084e8:	1202000c 	beq	s0,v0,8040851c <env_enum+0x80>
804084ec:	2403fff7 	li	v1,-9
804084f0:	8e05000c 	lw	a1,12(s0)
804084f4:	8e260000 	lw	a2,0(s1)
804084f8:	0c1033ae 	jal	8040ceb8 <lib_xstrncpy>
804084fc:	01002021 	move	a0,t0
80408500:	ae220000 	sw	v0,0(s1)
80408504:	8e050010 	lw	a1,16(s0)
80408508:	8e460000 	lw	a2,0(s2)
8040850c:	0c1033ae 	jal	8040ceb8 <lib_xstrncpy>
80408510:	02602021 	move	a0,s3
80408514:	ae420000 	sw	v0,0(s2)
80408518:	00001821 	move	v1,zero
8040851c:	8fbf0020 	lw	ra,32(sp)
80408520:	8fb3001c 	lw	s3,28(sp)
80408524:	8fb20018 	lw	s2,24(sp)
80408528:	8fb10014 	lw	s1,20(sp)
8040852c:	8fb00010 	lw	s0,16(sp)
80408530:	00601021 	move	v0,v1
80408534:	03e00008 	jr	ra
80408538:	27bd0028 	addiu	sp,sp,40

8040853c <env_envtype>:
8040853c:	27bdffe8 	addiu	sp,sp,-24
80408540:	afbf0010 	sw	ra,16(sp)
80408544:	0c10210d 	jal	80408434 <env_findenv>
80408548:	00000000 	nop
8040854c:	10400002 	beqz	v0,80408558 <env_envtype+0x1c>
80408550:	2403fff7 	li	v1,-9
80408554:	8c430008 	lw	v1,8(v0)
80408558:	8fbf0010 	lw	ra,16(sp)
8040855c:	00601021 	move	v0,v1
80408560:	03e00008 	jr	ra
80408564:	27bd0018 	addiu	sp,sp,24

80408568 <env_delenv>:
80408568:	27bdffe8 	addiu	sp,sp,-24
8040856c:	afb00010 	sw	s0,16(sp)
80408570:	afbf0014 	sw	ra,20(sp)
80408574:	0c10210d 	jal	80408434 <env_findenv>
80408578:	00000000 	nop
8040857c:	00408021 	move	s0,v0
80408580:	1040000e 	beqz	v0,804085bc <env_delenv+0x54>
80408584:	00001821 	move	v1,zero
80408588:	8c420008 	lw	v0,8(v0)
8040858c:	02002021 	move	a0,s0
80408590:	00021042 	srl	v0,v0,0x1
80408594:	30420001 	andi	v0,v0,0x1
80408598:	14400008 	bnez	v0,804085bc <env_delenv+0x54>
8040859c:	2403fff7 	li	v1,-9
804085a0:	0c103347 	jal	8040cd1c <q_dequeue>
804085a4:	00000000 	nop
804085a8:	3c048042 	lui	a0,0x8042
804085ac:	24842bec 	addiu	a0,a0,11244
804085b0:	0c103031 	jal	8040c0c4 <kfree>
804085b4:	02002821 	move	a1,s0
804085b8:	00001821 	move	v1,zero
804085bc:	8fbf0014 	lw	ra,20(sp)
804085c0:	8fb00010 	lw	s0,16(sp)
804085c4:	00601021 	move	v0,v1
804085c8:	03e00008 	jr	ra
804085cc:	27bd0018 	addiu	sp,sp,24

804085d0 <env_getenv>:
804085d0:	27bdffe8 	addiu	sp,sp,-24
804085d4:	afbf0010 	sw	ra,16(sp)
804085d8:	0c10210d 	jal	80408434 <env_findenv>
804085dc:	00000000 	nop
804085e0:	10400002 	beqz	v0,804085ec <env_getenv+0x1c>
804085e4:	00001821 	move	v1,zero
804085e8:	8c430010 	lw	v1,16(v0)
804085ec:	8fbf0010 	lw	ra,16(sp)
804085f0:	00601021 	move	v0,v1
804085f4:	03e00008 	jr	ra
804085f8:	27bd0018 	addiu	sp,sp,24

804085fc <env_setenv>:
804085fc:	27bdffd8 	addiu	sp,sp,-40
80408600:	afb40020 	sw	s4,32(sp)
80408604:	afb3001c 	sw	s3,28(sp)
80408608:	afb20018 	sw	s2,24(sp)
8040860c:	afb10014 	sw	s1,20(sp)
80408610:	00c09021 	move	s2,a2
80408614:	afbf0024 	sw	ra,36(sp)
80408618:	afb00010 	sw	s0,16(sp)
8040861c:	00a0a021 	move	s4,a1
80408620:	0c10210d 	jal	80408434 <env_findenv>
80408624:	00809821 	move	s3,a0
80408628:	00408821 	move	s1,v0
8040862c:	00121202 	srl	v0,s2,0x8
80408630:	1220000e 	beqz	s1,8040866c <env_setenv+0x70>
80408634:	30420001 	andi	v0,v0,0x1
80408638:	14400006 	bnez	v0,80408654 <env_setenv+0x58>
8040863c:	02202021 	move	a0,s1
80408640:	8e220008 	lw	v0,8(s1)
80408644:	00021042 	srl	v0,v0,0x1
80408648:	30420001 	andi	v0,v0,0x1
8040864c:	14400026 	bnez	v0,804086e8 <env_setenv+0xec>
80408650:	2407fff6 	li	a3,-10
80408654:	0c103347 	jal	8040cd1c <q_dequeue>
80408658:	00000000 	nop
8040865c:	3c048042 	lui	a0,0x8042
80408660:	02202821 	move	a1,s1
80408664:	0c103031 	jal	8040c0c4 <kfree>
80408668:	24842bec 	addiu	a0,a0,11244
8040866c:	0c1033bf 	jal	8040cefc <lib_strlen>
80408670:	02602021 	move	a0,s3
80408674:	02802021 	move	a0,s4
80408678:	0c1033bf 	jal	8040cefc <lib_strlen>
8040867c:	00408021 	move	s0,v0
80408680:	02021021 	addu	v0,s0,v0
80408684:	3c048042 	lui	a0,0x8042
80408688:	24842bec 	addiu	a0,a0,11244
8040868c:	24450016 	addiu	a1,v0,22
80408690:	0c103064 	jal	8040c190 <kmalloc>
80408694:	00003021 	move	a2,zero
80408698:	24430014 	addiu	v1,v0,20
8040869c:	00408821 	move	s1,v0
804086a0:	00708021 	addu	s0,v1,s0
804086a4:	26100001 	addiu	s0,s0,1
804086a8:	324200ff 	andi	v0,s2,0xff
804086ac:	00602021 	move	a0,v1
804086b0:	02602821 	move	a1,s3
804086b4:	1220000c 	beqz	s1,804086e8 <env_setenv+0xec>
804086b8:	2407fffb 	li	a3,-5
804086bc:	ae23000c 	sw	v1,12(s1)
804086c0:	ae300010 	sw	s0,16(s1)
804086c4:	0c10338e 	jal	8040ce38 <lib_strcpy>
804086c8:	ae220008 	sw	v0,8(s1)
804086cc:	8e240010 	lw	a0,16(s1)
804086d0:	0c10338e 	jal	8040ce38 <lib_strcpy>
804086d4:	02802821 	move	a1,s4
804086d8:	02202821 	move	a1,s1
804086dc:	0c103341 	jal	8040cd04 <q_enqueue>
804086e0:	27848054 	addiu	a0,gp,-32684
804086e4:	00003821 	move	a3,zero
804086e8:	8fbf0024 	lw	ra,36(sp)
804086ec:	8fb40020 	lw	s4,32(sp)
804086f0:	8fb3001c 	lw	s3,28(sp)
804086f4:	8fb20018 	lw	s2,24(sp)
804086f8:	8fb10014 	lw	s1,20(sp)
804086fc:	8fb00010 	lw	s0,16(sp)
80408700:	00e01021 	move	v0,a3
80408704:	03e00008 	jr	ra
80408708:	27bd0028 	addiu	sp,sp,40

8040870c <env_save>:
8040870c:	03e00008 	jr	ra
80408710:	00001021 	move	v0,zero

80408714 <icmp_rx_callback>:
80408714:	27bdffd0 	addiu	sp,sp,-48
80408718:	afb50024 	sw	s5,36(sp)
8040871c:	afb40020 	sw	s4,32(sp)
80408720:	afb3001c 	sw	s3,28(sp)
80408724:	afb10014 	sw	s1,20(sp)
80408728:	afb00010 	sw	s0,16(sp)
8040872c:	afbf0028 	sw	ra,40(sp)
80408730:	afb20018 	sw	s2,24(sp)
80408734:	8ca20020 	lw	v0,32(a1)
80408738:	00808021 	move	s0,a0
8040873c:	24910004 	addiu	s1,a0,4
80408740:	90430000 	lbu	v1,0(v0)
80408744:	90420001 	lbu	v0,1(v0)
80408748:	00a09821 	move	s3,a1
8040874c:	00031a00 	sll	v1,v1,0x8
80408750:	00621825 	or	v1,v1,v0
80408754:	02202021 	move	a0,s1
80408758:	00e0a821 	move	s5,a3
8040875c:	8e120000 	lw	s2,0(s0)
80408760:	1060002b 	beqz	v1,80408810 <icmp_rx_callback+0xfc>
80408764:	0000a021 	move	s4,zero
80408768:	24020800 	li	v0,2048
8040876c:	14620031 	bne	v1,v0,80408834 <icmp_rx_callback+0x120>
80408770:	02402021 	move	a0,s2
80408774:	0c104747 	jal	80411d1c <_ip_alloc>
80408778:	00000000 	nop
8040877c:	1040002d 	beqz	v0,80408834 <icmp_rx_callback+0x120>
80408780:	00408821 	move	s1,v0
80408784:	8c500020 	lw	s0,32(v0)
80408788:	8c440008 	lw	a0,8(v0)
8040878c:	8e650020 	lw	a1,32(s3)
80408790:	8e660008 	lw	a2,8(s3)
80408794:	0c10345e 	jal	8040d178 <lib_memcpy>
80408798:	02042021 	addu	a0,s0,a0
8040879c:	8e630008 	lw	v1,8(s3)
804087a0:	8e220008 	lw	v0,8(s1)
804087a4:	02002821 	move	a1,s0
804087a8:	00002021 	move	a0,zero
804087ac:	00431021 	addu	v0,v0,v1
804087b0:	ae220008 	sw	v0,8(s1)
804087b4:	a2000000 	sb	zero,0(s0)
804087b8:	a2000001 	sb	zero,1(s0)
804087bc:	a2000002 	sb	zero,2(s0)
804087c0:	a2000003 	sb	zero,3(s0)
804087c4:	0c104758 	jal	80411d60 <ip_chksum>
804087c8:	8e260008 	lw	a2,8(s1)
804087cc:	00021027 	nor	v0,zero,v0
804087d0:	3042ffff 	andi	v0,v0,0xffff
804087d4:	00021a02 	srl	v1,v0,0x8
804087d8:	02402021 	move	a0,s2
804087dc:	02202821 	move	a1,s1
804087e0:	a2020003 	sb	v0,3(s0)
804087e4:	a2030002 	sb	v1,2(s0)
804087e8:	02a03021 	move	a2,s5
804087ec:	0c104775 	jal	80411dd4 <_ip_send>
804087f0:	24070001 	li	a3,1
804087f4:	02402021 	move	a0,s2
804087f8:	0441000e 	bgez	v0,80408834 <icmp_rx_callback+0x120>
804087fc:	02202821 	move	a1,s1
80408800:	0c1048ee 	jal	804123b8 <_ip_free>
80408804:	00000000 	nop
80408808:	0810220e 	j	80408838 <icmp_rx_callback+0x124>
8040880c:	02801021 	move	v0,s4
80408810:	0c103377 	jal	8040cddc <q_count>
80408814:	00000000 	nop
80408818:	8e03000c 	lw	v1,12(s0)
8040881c:	02202021 	move	a0,s1
80408820:	0043102a 	slt	v0,v0,v1
80408824:	10400003 	beqz	v0,80408834 <icmp_rx_callback+0x120>
80408828:	02602821 	move	a1,s3
8040882c:	0c103341 	jal	8040cd04 <q_enqueue>
80408830:	24140001 	li	s4,1
80408834:	02801021 	move	v0,s4
80408838:	8fbf0028 	lw	ra,40(sp)
8040883c:	8fb50024 	lw	s5,36(sp)
80408840:	8fb40020 	lw	s4,32(sp)
80408844:	8fb3001c 	lw	s3,28(sp)
80408848:	8fb20018 	lw	s2,24(sp)
8040884c:	8fb10014 	lw	s1,20(sp)
80408850:	8fb00010 	lw	s0,16(sp)
80408854:	03e00008 	jr	ra
80408858:	27bd0030 	addiu	sp,sp,48

8040885c <_icmp_init>:
8040885c:	27bdffe0 	addiu	sp,sp,-32
80408860:	afb10014 	sw	s1,20(sp)
80408864:	00808821 	move	s1,a0
80408868:	3c048042 	lui	a0,0x8042
8040886c:	24842bec 	addiu	a0,a0,11244
80408870:	24050010 	li	a1,16
80408874:	afb00010 	sw	s0,16(sp)
80408878:	afbf0018 	sw	ra,24(sp)
8040887c:	0c103064 	jal	8040c190 <kmalloc>
80408880:	00003021 	move	a2,zero
80408884:	00408021 	move	s0,v0
80408888:	3c068041 	lui	a2,0x8041
8040888c:	24430004 	addiu	v1,v0,4
80408890:	00403821 	move	a3,v0
80408894:	02202021 	move	a0,s1
80408898:	24c68714 	addiu	a2,a2,-30956
8040889c:	24050001 	li	a1,1
804088a0:	12000007 	beqz	s0,804088c0 <_icmp_init+0x64>
804088a4:	00001021 	move	v0,zero
804088a8:	ae030004 	sw	v1,4(s0)
804088ac:	ae110000 	sw	s1,0(s0)
804088b0:	ae030008 	sw	v1,8(s0)
804088b4:	0c104967 	jal	8041259c <_ip_register>
804088b8:	ae00000c 	sw	zero,12(s0)
804088bc:	02001021 	move	v0,s0
804088c0:	8fbf0018 	lw	ra,24(sp)
804088c4:	8fb10014 	lw	s1,20(sp)
804088c8:	8fb00010 	lw	s0,16(sp)
804088cc:	03e00008 	jr	ra
804088d0:	27bd0020 	addiu	sp,sp,32

804088d4 <_icmp_uninit>:
804088d4:	27bdffe8 	addiu	sp,sp,-24
804088d8:	afbf0014 	sw	ra,20(sp)
804088dc:	afb00010 	sw	s0,16(sp)
804088e0:	00808021 	move	s0,a0
804088e4:	8c840000 	lw	a0,0(a0)
804088e8:	0c10497b 	jal	804125ec <_ip_deregister>
804088ec:	24050001 	li	a1,1
804088f0:	3c048042 	lui	a0,0x8042
804088f4:	02002821 	move	a1,s0
804088f8:	8fbf0014 	lw	ra,20(sp)
804088fc:	8fb00010 	lw	s0,16(sp)
80408900:	24842bec 	addiu	a0,a0,11244
80408904:	08103031 	j	8040c0c4 <kfree>
80408908:	27bd0018 	addiu	sp,sp,24

8040890c <_icmp_ping>:
8040890c:	03e00008 	jr	ra
80408910:	00001021 	move	v0,zero

80408914 <cfe_web_check>:
80408914:	8f8280d0 	lw	v0,-32560(gp)
80408918:	03e00008 	jr	ra
8040891c:	0002102b 	sltu	v0,zero,v0

80408920 <cfe_web_fg_process>:
80408920:	27bdffe8 	addiu	sp,sp,-24
80408924:	afbf0010 	sw	ra,16(sp)
80408928:	0c103be1 	jal	8040ef84 <cfe_sleep>
8040892c:	24040014 	li	a0,20
80408930:	8f8380d0 	lw	v1,-32560(gp)
80408934:	24020001 	li	v0,1
80408938:	14620005 	bne	v1,v0,80408950 <cfe_web_fg_process+0x30>
8040893c:	00000000 	nop
80408940:	0c101ba5 	jal	80406e94 <flashImage>
80408944:	8f8480d8 	lw	a0,-32552(gp)
80408948:	0810225b 	j	8040896c <cfe_web_fg_process+0x4c>
8040894c:	8f8280d0 	lw	v0,-32560(gp)
80408950:	24020002 	li	v0,2
80408954:	14620005 	bne	v1,v0,8040896c <cfe_web_fg_process+0x4c>
80408958:	8f8280d0 	lw	v0,-32560(gp)
8040895c:	8f8580d4 	lw	a1,-32556(gp)
80408960:	0c101ac3 	jal	80406b0c <writeWholeImage>
80408964:	8f8480d8 	lw	a0,-32552(gp)
80408968:	8f8280d0 	lw	v0,-32560(gp)
8040896c:	3c048042 	lui	a0,0x8042
80408970:	10400006 	beqz	v0,8040898c <cfe_web_fg_process+0x6c>
80408974:	2484aa28 	addiu	a0,a0,-21976
80408978:	0c10331a 	jal	8040cc68 <xprintf>
8040897c:	00000000 	nop
80408980:	8fbf0010 	lw	ra,16(sp)
80408984:	08101118 	j	80404460 <kerSysMipsSoftReset>
80408988:	27bd0018 	addiu	sp,sp,24
8040898c:	8fbf0010 	lw	ra,16(sp)
80408990:	03e00008 	jr	ra
80408994:	27bd0018 	addiu	sp,sp,24

80408998 <cfe_web_listen>:
80408998:	27bdffd0 	addiu	sp,sp,-48
8040899c:	afb30024 	sw	s3,36(sp)
804089a0:	afb20020 	sw	s2,32(sp)
804089a4:	afb1001c 	sw	s1,28(sp)
804089a8:	afbf0028 	sw	ra,40(sp)
804089ac:	afb00018 	sw	s0,24(sp)
804089b0:	8c900000 	lw	s0,0(a0)
804089b4:	3c028042 	lui	v0,0x8042
804089b8:	2452e820 	addiu	s2,v0,-6112
804089bc:	00101040 	sll	v0,s0,0x1
804089c0:	00501021 	addu	v0,v0,s0
804089c4:	000210c0 	sll	v0,v0,0x3
804089c8:	00501021 	addu	v0,v0,s0
804089cc:	00021100 	sll	v0,v0,0x4
804089d0:	00528821 	addu	s1,v0,s2
804089d4:	8e220000 	lw	v0,0(s1)
804089d8:	00809821 	move	s3,a0
804089dc:	00003021 	move	a2,zero
804089e0:	00003821 	move	a3,zero
804089e4:	27a50010 	addiu	a1,sp,16
804089e8:	04400015 	bltz	v0,80408a40 <cfe_web_listen+0xa8>
804089ec:	00402021 	move	a0,v0
804089f0:	0c104f65 	jal	80413d94 <tcp_status>
804089f4:	00000000 	nop
804089f8:	26040001 	addiu	a0,s0,1
804089fc:	26030004 	addiu	v1,s0,4
80408a00:	28820000 	slti	v0,a0,0
80408a04:	00802821 	move	a1,a0
80408a08:	0062280b 	movn	a1,v1,v0
80408a0c:	8fa30010 	lw	v1,16(sp)
80408a10:	24020002 	li	v0,2
80408a14:	1462000a 	bne	v1,v0,80408a40 <cfe_web_listen+0xa8>
80408a18:	00000000 	nop
80408a1c:	00058083 	sra	s0,a1,0x2
80408a20:	00101080 	sll	v0,s0,0x2
80408a24:	00828023 	subu	s0,a0,v0
80408a28:	00101040 	sll	v0,s0,0x1
80408a2c:	00501021 	addu	v0,v0,s0
80408a30:	000210c0 	sll	v0,v0,0x3
80408a34:	00501021 	addu	v0,v0,s0
80408a38:	00021100 	sll	v0,v0,0x4
80408a3c:	00528821 	addu	s1,v0,s2
80408a40:	8e320000 	lw	s2,0(s1)
80408a44:	2402ff9c 	li	v0,-100
80408a48:	1642001b 	bne	s2,v0,80408ab8 <cfe_web_listen+0x120>
80408a4c:	00000000 	nop
80408a50:	0c103c5c 	jal	8040f170 <background>
80408a54:	00000000 	nop
80408a58:	0c104e52 	jal	80413948 <tcp_socket>
80408a5c:	00000000 	nop
80408a60:	3c048042 	lui	a0,0x8042
80408a64:	2484b898 	addiu	a0,a0,-18280
80408a68:	00402821 	move	a1,v0
80408a6c:	0440000d 	bltz	v0,80408aa4 <cfe_web_listen+0x10c>
80408a70:	ae220000 	sw	v0,0(s1)
80408a74:	0c1039d2 	jal	8040e748 <console_log>
80408a78:	00000000 	nop
80408a7c:	8e240000 	lw	a0,0(s1)
80408a80:	0c104f5c 	jal	80413d70 <tcp_listen>
80408a84:	9785805e 	lhu	a1,-32674(gp)
80408a88:	3c048042 	lui	a0,0x8042
80408a8c:	1040000a 	beqz	v0,80408ab8 <cfe_web_listen+0x120>
80408a90:	2484b8c8 	addiu	a0,a0,-18232
80408a94:	0c1039d2 	jal	8040e748 <console_log>
80408a98:	8e250000 	lw	a1,0(s1)
80408a9c:	081022af 	j	80408abc <cfe_web_listen+0x124>
80408aa0:	ae700000 	sw	s0,0(s3)
80408aa4:	3c048042 	lui	a0,0x8042
80408aa8:	2484b8e8 	addiu	a0,a0,-18200
80408aac:	0c1039d2 	jal	8040e748 <console_log>
80408ab0:	00402821 	move	a1,v0
80408ab4:	ae320000 	sw	s2,0(s1)
80408ab8:	ae700000 	sw	s0,0(s3)
80408abc:	8fbf0028 	lw	ra,40(sp)
80408ac0:	8fb30024 	lw	s3,36(sp)
80408ac4:	8fb20020 	lw	s2,32(sp)
80408ac8:	8fb1001c 	lw	s1,28(sp)
80408acc:	8fb00018 	lw	s0,24(sp)
80408ad0:	03e00008 	jr	ra
80408ad4:	27bd0030 	addiu	sp,sp,48

80408ad8 <cfe_web_gets>:
80408ad8:	27bdffc0 	addiu	sp,sp,-64
80408adc:	afb70034 	sw	s7,52(sp)
80408ae0:	afb60030 	sw	s6,48(sp)
80408ae4:	afb5002c 	sw	s5,44(sp)
80408ae8:	afb40028 	sw	s4,40(sp)
80408aec:	afb30024 	sw	s3,36(sp)
80408af0:	afb20020 	sw	s2,32(sp)
80408af4:	afb1001c 	sw	s1,28(sp)
80408af8:	afbf0038 	sw	ra,56(sp)
80408afc:	afb00018 	sw	s0,24(sp)
80408b00:	8cd00000 	lw	s0,0(a2)
80408b04:	00c0b021 	move	s6,a2
80408b08:	00a0a021 	move	s4,a1
80408b0c:	0205102a 	slt	v0,s0,a1
80408b10:	0080a821 	move	s5,a0
80408b14:	00e0b821 	move	s7,a3
80408b18:	24130002 	li	s3,2
80408b1c:	00908821 	addu	s1,a0,s0
80408b20:	10400022 	beqz	v0,80408bac <cfe_web_gets+0xd4>
80408b24:	24120001 	li	s2,1
80408b28:	02e02021 	move	a0,s7
80408b2c:	27a50010 	addiu	a1,sp,16
80408b30:	0c104ee3 	jal	80413b8c <tcp_recv>
80408b34:	24060001 	li	a2,1
80408b38:	10400006 	beqz	v0,80408b54 <cfe_web_gets+0x7c>
80408b3c:	00401821 	move	v1,v0
80408b40:	24020001 	li	v0,1
80408b44:	10620005 	beq	v1,v0,80408b5c <cfe_web_gets+0x84>
80408b48:	93a40010 	lbu	a0,16(sp)
80408b4c:	081022e5 	j	80408b94 <cfe_web_gets+0xbc>
80408b50:	00009021 	move	s2,zero
80408b54:	081022e6 	j	80408b98 <cfe_web_gets+0xc0>
80408b58:	00009021 	move	s2,zero
80408b5c:	2402000a 	li	v0,10
80408b60:	308300ff 	andi	v1,a0,0xff
80408b64:	14620005 	bne	v1,v0,80408b7c <cfe_web_gets+0xa4>
80408b68:	2402000d 	li	v0,13
80408b6c:	00009021 	move	s2,zero
80408b70:	24130001 	li	s3,1
80408b74:	081022e6 	j	80408b98 <cfe_web_gets+0xc0>
80408b78:	a2200000 	sb	zero,0(s1)
80408b7c:	10620007 	beq	v1,v0,80408b9c <cfe_web_gets+0xc4>
80408b80:	0214102a 	slt	v0,s0,s4
80408b84:	a2240000 	sb	a0,0(s1)
80408b88:	26100001 	addiu	s0,s0,1
80408b8c:	081022e6 	j	80408b98 <cfe_web_gets+0xc0>
80408b90:	26310001 	addiu	s1,s1,1
80408b94:	24130003 	li	s3,3
80408b98:	0214102a 	slt	v0,s0,s4
80408b9c:	10400003 	beqz	v0,80408bac <cfe_web_gets+0xd4>
80408ba0:	00000000 	nop
80408ba4:	1640ffe1 	bnez	s2,80408b2c <cfe_web_gets+0x54>
80408ba8:	02e02021 	move	a0,s7
80408bac:	16140003 	bne	s0,s4,80408bbc <cfe_web_gets+0xe4>
80408bb0:	02b01021 	addu	v0,s5,s0
80408bb4:	a040ffff 	sb	zero,-1(v0)
80408bb8:	24130001 	li	s3,1
80408bbc:	aed00000 	sw	s0,0(s6)
80408bc0:	02601021 	move	v0,s3
80408bc4:	8fbf0038 	lw	ra,56(sp)
80408bc8:	8fb70034 	lw	s7,52(sp)
80408bcc:	8fb60030 	lw	s6,48(sp)
80408bd0:	8fb5002c 	lw	s5,44(sp)
80408bd4:	8fb40028 	lw	s4,40(sp)
80408bd8:	8fb30024 	lw	s3,36(sp)
80408bdc:	8fb20020 	lw	s2,32(sp)
80408be0:	8fb1001c 	lw	s1,28(sp)
80408be4:	8fb00018 	lw	s0,24(sp)
80408be8:	03e00008 	jr	ra
80408bec:	27bd0040 	addiu	sp,sp,64

80408bf0 <memmove>:
80408bf0:	00a4102b 	sltu	v0,a1,a0
80408bf4:	1440000e 	bnez	v0,80408c30 <memmove+0x40>
80408bf8:	24c7ffff 	addiu	a3,a2,-1
80408bfc:	2402ffff 	li	v0,-1
80408c00:	00e03021 	move	a2,a3
80408c04:	10e20016 	beq	a3,v0,80408c60 <memmove+0x70>
80408c08:	00801821 	move	v1,a0
80408c0c:	2407ffff 	li	a3,-1
80408c10:	90a20000 	lbu	v0,0(a1)
80408c14:	24c6ffff 	addiu	a2,a2,-1
80408c18:	24a50001 	addiu	a1,a1,1
80408c1c:	a0620000 	sb	v0,0(v1)
80408c20:	14c7fffb 	bne	a2,a3,80408c10 <memmove+0x20>
80408c24:	24630001 	addiu	v1,v1,1
80408c28:	03e00008 	jr	ra
80408c2c:	00801021 	move	v0,a0
80408c30:	2402ffff 	li	v0,-1
80408c34:	00a62821 	addu	a1,a1,a2
80408c38:	00861821 	addu	v1,a0,a2
80408c3c:	10e20008 	beq	a3,v0,80408c60 <memmove+0x70>
80408c40:	00e03021 	move	a2,a3
80408c44:	2407ffff 	li	a3,-1
80408c48:	24a5ffff 	addiu	a1,a1,-1
80408c4c:	90a20000 	lbu	v0,0(a1)
80408c50:	2463ffff 	addiu	v1,v1,-1
80408c54:	24c6ffff 	addiu	a2,a2,-1
80408c58:	14c7fffb 	bne	a2,a3,80408c48 <memmove+0x58>
80408c5c:	a0620000 	sb	v0,0(v1)
80408c60:	00801021 	move	v0,a0
80408c64:	03e00008 	jr	ra
80408c68:	00000000 	nop

80408c6c <send_headers>:
80408c6c:	27bdff50 	addiu	sp,sp,-176
80408c70:	8f83813c 	lw	v1,-32452(gp)
80408c74:	afb00098 	sw	s0,152(sp)
80408c78:	3c10cccc 	lui	s0,0xcccc
80408c7c:	3610cccd 	ori	s0,s0,0xcccd
80408c80:	00700019 	multu	v1,s0
80408c84:	8f828138 	lw	v0,-32456(gp)
80408c88:	afa60010 	sw	a2,16(sp)
80408c8c:	00a01021 	move	v0,a1
80408c90:	3c068042 	lui	a2,0x8042
80408c94:	3c058042 	lui	a1,0x8042
80408c98:	24a5b920 	addiu	a1,a1,-18144
80408c9c:	24c6b914 	addiu	a2,a2,-18156
80408ca0:	afb200a0 	sw	s2,160(sp)
80408ca4:	afb1009c 	sw	s1,156(sp)
80408ca8:	00809021 	move	s2,a0
80408cac:	00e08821 	move	s1,a3
80408cb0:	27a40018 	addiu	a0,sp,24
80408cb4:	00403821 	move	a3,v0
80408cb8:	afbf00ac 	sw	ra,172(sp)
80408cbc:	afb400a8 	sw	s4,168(sp)
80408cc0:	afb300a4 	sw	s3,164(sp)
80408cc4:	00008010 	mfhi	s0
80408cc8:	0c103311 	jal	8040cc44 <xsprintf>
80408ccc:	8fb300c0 	lw	s3,192(sp)
80408cd0:	0c1033bf 	jal	8040cefc <lib_strlen>
80408cd4:	27a40018 	addiu	a0,sp,24
80408cd8:	00403021 	move	a2,v0
80408cdc:	02402021 	move	a0,s2
80408ce0:	0c104e9f 	jal	80413a7c <tcp_send>
80408ce4:	27a50018 	addiu	a1,sp,24
80408ce8:	3c058042 	lui	a1,0x8042
80408cec:	3c068042 	lui	a2,0x8042
80408cf0:	24a5b92c 	addiu	a1,a1,-18132
80408cf4:	24c6b93c 	addiu	a2,a2,-18116
80408cf8:	0c103311 	jal	8040cc44 <xsprintf>
80408cfc:	27a40018 	addiu	a0,sp,24
80408d00:	0c1033bf 	jal	8040cefc <lib_strlen>
80408d04:	27a40018 	addiu	a0,sp,24
80408d08:	00403021 	move	a2,v0
80408d0c:	02402021 	move	a0,s2
80408d10:	0c104e9f 	jal	80413a7c <tcp_send>
80408d14:	27a50018 	addiu	a1,sp,24
80408d18:	3c0691a2 	lui	a2,0x91a2
80408d1c:	001080c2 	srl	s0,s0,0x3
80408d20:	34c6b3c5 	ori	a2,a2,0xb3c5
80408d24:	02060019 	multu	s0,a2
80408d28:	3c028888 	lui	v0,0x8888
80408d2c:	34428889 	ori	v0,v0,0x8889
80408d30:	3c058042 	lui	a1,0x8042
80408d34:	24a5b948 	addiu	a1,a1,-18104
80408d38:	27a40018 	addiu	a0,sp,24
80408d3c:	3c148042 	lui	s4,0x8042
80408d40:	00003010 	mfhi	a2
80408d44:	000632c2 	srl	a2,a2,0xb
80408d48:	000638c0 	sll	a3,a2,0x3
80408d4c:	02020019 	multu	s0,v0
80408d50:	00e63823 	subu	a3,a3,a2
80408d54:	00073940 	sll	a3,a3,0x5
80408d58:	00e63821 	addu	a3,a3,a2
80408d5c:	00073900 	sll	a3,a3,0x4
80408d60:	02073823 	subu	a3,s0,a3
80408d64:	00001810 	mfhi	v1
80408d68:	00031942 	srl	v1,v1,0x5
80408d6c:	00e20019 	multu	a3,v0
80408d70:	00031100 	sll	v0,v1,0x4
80408d74:	00431023 	subu	v0,v0,v1
80408d78:	00021080 	sll	v0,v0,0x2
80408d7c:	02028023 	subu	s0,s0,v0
80408d80:	afb00010 	sw	s0,16(sp)
80408d84:	00003810 	mfhi	a3
80408d88:	0c103311 	jal	8040cc44 <xsprintf>
80408d8c:	00073942 	srl	a3,a3,0x5
80408d90:	0c1033bf 	jal	8040cefc <lib_strlen>
80408d94:	27a40018 	addiu	a0,sp,24
80408d98:	00403021 	move	a2,v0
80408d9c:	02402021 	move	a0,s2
80408da0:	0c104e9f 	jal	80413a7c <tcp_send>
80408da4:	27a50018 	addiu	a1,sp,24
80408da8:	3c058042 	lui	a1,0x8042
80408dac:	24a5b934 	addiu	a1,a1,-18124
80408db0:	02203021 	move	a2,s1
80408db4:	12200009 	beqz	s1,80408ddc <send_headers+0x170>
80408db8:	27a40018 	addiu	a0,sp,24
80408dbc:	0c103311 	jal	8040cc44 <xsprintf>
80408dc0:	00000000 	nop
80408dc4:	0c1033bf 	jal	8040cefc <lib_strlen>
80408dc8:	27a40018 	addiu	a0,sp,24
80408dcc:	00403021 	move	a2,v0
80408dd0:	02402021 	move	a0,s2
80408dd4:	0c104e9f 	jal	80413a7c <tcp_send>
80408dd8:	27a50018 	addiu	a1,sp,24
80408ddc:	02603021 	move	a2,s3
80408de0:	1260000a 	beqz	s3,80408e0c <send_headers+0x1a0>
80408de4:	27a40018 	addiu	a0,sp,24
80408de8:	3c058042 	lui	a1,0x8042
80408dec:	0c103311 	jal	8040cc44 <xsprintf>
80408df0:	24a5b990 	addiu	a1,a1,-18032
80408df4:	0c1033bf 	jal	8040cefc <lib_strlen>
80408df8:	27a40018 	addiu	a0,sp,24
80408dfc:	00403021 	move	a2,v0
80408e00:	02402021 	move	a0,s2
80408e04:	0c104e9f 	jal	80413a7c <tcp_send>
80408e08:	27a50018 	addiu	a1,sp,24
80408e0c:	0c1033bf 	jal	8040cefc <lib_strlen>
80408e10:	2684b978 	addiu	a0,s4,-18056
80408e14:	00403021 	move	a2,v0
80408e18:	02402021 	move	a0,s2
80408e1c:	0c104e9f 	jal	80413a7c <tcp_send>
80408e20:	2685b978 	addiu	a1,s4,-18056
80408e24:	3c048042 	lui	a0,0x8042
80408e28:	04410003 	bgez	v0,80408e38 <send_headers+0x1cc>
80408e2c:	2484b9a4 	addiu	a0,a0,-18012
80408e30:	0c1039d2 	jal	8040e748 <console_log>
80408e34:	00000000 	nop
80408e38:	8fbf00ac 	lw	ra,172(sp)
80408e3c:	8fb400a8 	lw	s4,168(sp)
80408e40:	8fb300a4 	lw	s3,164(sp)
80408e44:	8fb200a0 	lw	s2,160(sp)
80408e48:	8fb1009c 	lw	s1,156(sp)
80408e4c:	8fb00098 	lw	s0,152(sp)
80408e50:	03e00008 	jr	ra
80408e54:	27bd00b0 	addiu	sp,sp,176

80408e58 <send_error>:
80408e58:	3c028042 	lui	v0,0x8042
80408e5c:	27bdff58 	addiu	sp,sp,-168
80408e60:	2442b868 	addiu	v0,v0,-18328
80408e64:	afbf00a4 	sw	ra,164(sp)
80408e68:	afb200a0 	sw	s2,160(sp)
80408e6c:	afb1009c 	sw	s1,156(sp)
80408e70:	00809021 	move	s2,a0
80408e74:	00c08821 	move	s1,a2
80408e78:	afb00098 	sw	s0,152(sp)
80408e7c:	afa20010 	sw	v0,16(sp)
80408e80:	0c10231b 	jal	80408c6c <send_headers>
80408e84:	00a08021 	move	s0,a1
80408e88:	3c058042 	lui	a1,0x8042
80408e8c:	02203821 	move	a3,s1
80408e90:	24a5b9d0 	addiu	a1,a1,-17968
80408e94:	02003021 	move	a2,s0
80408e98:	27a40018 	addiu	a0,sp,24
80408e9c:	afb00010 	sw	s0,16(sp)
80408ea0:	0c103311 	jal	8040cc44 <xsprintf>
80408ea4:	afb10014 	sw	s1,20(sp)
80408ea8:	0c1033bf 	jal	8040cefc <lib_strlen>
80408eac:	27a40018 	addiu	a0,sp,24
80408eb0:	00403021 	move	a2,v0
80408eb4:	02402021 	move	a0,s2
80408eb8:	0c104e9f 	jal	80413a7c <tcp_send>
80408ebc:	27a50018 	addiu	a1,sp,24
80408ec0:	8fa600b8 	lw	a2,184(sp)
80408ec4:	3c058042 	lui	a1,0x8042
80408ec8:	24a5c350 	addiu	a1,a1,-15536
80408ecc:	0c103311 	jal	8040cc44 <xsprintf>
80408ed0:	27a40018 	addiu	a0,sp,24
80408ed4:	0c1033bf 	jal	8040cefc <lib_strlen>
80408ed8:	27a40018 	addiu	a0,sp,24
80408edc:	00403021 	move	a2,v0
80408ee0:	02402021 	move	a0,s2
80408ee4:	0c104e9f 	jal	80413a7c <tcp_send>
80408ee8:	27a50018 	addiu	a1,sp,24
80408eec:	3c058042 	lui	a1,0x8042
80408ef0:	3c068042 	lui	a2,0x8042
80408ef4:	3c078042 	lui	a3,0x8042
80408ef8:	24a5ba20 	addiu	a1,a1,-17888
80408efc:	24c6ba5c 	addiu	a2,a2,-17828
80408f00:	24e7b93c 	addiu	a3,a3,-18116
80408f04:	0c103311 	jal	8040cc44 <xsprintf>
80408f08:	27a40018 	addiu	a0,sp,24
80408f0c:	0c1033bf 	jal	8040cefc <lib_strlen>
80408f10:	27a40018 	addiu	a0,sp,24
80408f14:	00403021 	move	a2,v0
80408f18:	02402021 	move	a0,s2
80408f1c:	0c104e9f 	jal	80413a7c <tcp_send>
80408f20:	27a50018 	addiu	a1,sp,24
80408f24:	3c048042 	lui	a0,0x8042
80408f28:	04410003 	bgez	v0,80408f38 <send_error+0xe0>
80408f2c:	2484ba88 	addiu	a0,a0,-17784
80408f30:	0c1039d2 	jal	8040e748 <console_log>
80408f34:	00000000 	nop
80408f38:	8fbf00a4 	lw	ra,164(sp)
80408f3c:	8fb200a0 	lw	s2,160(sp)
80408f40:	8fb1009c 	lw	s1,156(sp)
80408f44:	8fb00098 	lw	s0,152(sp)
80408f48:	03e00008 	jr	ra
80408f4c:	27bd00a8 	addiu	sp,sp,168

80408f50 <cfe_web_tcp_send>:
80408f50:	27bdffd8 	addiu	sp,sp,-40
80408f54:	afb40020 	sw	s4,32(sp)
80408f58:	afb3001c 	sw	s3,28(sp)
80408f5c:	afb20018 	sw	s2,24(sp)
80408f60:	afb10014 	sw	s1,20(sp)
80408f64:	afb00010 	sw	s0,16(sp)
80408f68:	afbf0024 	sw	ra,36(sp)
80408f6c:	00c09021 	move	s2,a2
80408f70:	0080a021 	move	s4,a0
80408f74:	00a09821 	move	s3,a1
80408f78:	00008821 	move	s1,zero
80408f7c:	18c00014 	blez	a2,80408fd0 <cfe_web_tcp_send+0x80>
80408f80:	00008021 	move	s0,zero
80408f84:	0c103c5c 	jal	8040f170 <background>
80408f88:	00000000 	nop
80408f8c:	0c102266 	jal	80408998 <cfe_web_listen>
80408f90:	278480cc 	addiu	a0,gp,-32564
80408f94:	02702821 	addu	a1,s3,s0
80408f98:	02503023 	subu	a2,s2,s0
80408f9c:	0c104e9f 	jal	80413a7c <tcp_send>
80408fa0:	02802021 	move	a0,s4
80408fa4:	00408821 	move	s1,v0
80408fa8:	02028021 	addu	s0,s0,v0
80408fac:	06210006 	bgez	s1,80408fc8 <cfe_web_tcp_send+0x78>
80408fb0:	0212102a 	slt	v0,s0,s2
80408fb4:	3c048042 	lui	a0,0x8042
80408fb8:	0c1039d2 	jal	8040e748 <console_log>
80408fbc:	2484babc 	addiu	a0,a0,-17732
80408fc0:	081023f5 	j	80408fd4 <cfe_web_tcp_send+0x84>
80408fc4:	02201021 	move	v0,s1
80408fc8:	1440ffee 	bnez	v0,80408f84 <cfe_web_tcp_send+0x34>
80408fcc:	00000000 	nop
80408fd0:	02201021 	move	v0,s1
80408fd4:	8fbf0024 	lw	ra,36(sp)
80408fd8:	8fb40020 	lw	s4,32(sp)
80408fdc:	8fb3001c 	lw	s3,28(sp)
80408fe0:	8fb20018 	lw	s2,24(sp)
80408fe4:	8fb10014 	lw	s1,20(sp)
80408fe8:	8fb00010 	lw	s0,16(sp)
80408fec:	03e00008 	jr	ra
80408ff0:	27bd0028 	addiu	sp,sp,40

80408ff4 <send_page>:
80408ff4:	27bdffc0 	addiu	sp,sp,-64
80408ff8:	afbe0038 	sw	s8,56(sp)
80408ffc:	afb60030 	sw	s6,48(sp)
80409000:	afb5002c 	sw	s5,44(sp)
80409004:	afb40028 	sw	s4,40(sp)
80409008:	afb20020 	sw	s2,32(sp)
8040900c:	afb00018 	sw	s0,24(sp)
80409010:	3c028042 	lui	v0,0x8042
80409014:	afbf003c 	sw	ra,60(sp)
80409018:	afb70034 	sw	s7,52(sp)
8040901c:	afb30024 	sw	s3,36(sp)
80409020:	afb1001c 	sw	s1,28(sp)
80409024:	8c43ccfc 	lw	v1,-13060(v0)
80409028:	0080a821 	move	s5,a0
8040902c:	00a08021 	move	s0,a1
80409030:	00c0a021 	move	s4,a2
80409034:	00e0b021 	move	s6,a3
80409038:	8fbe0050 	lw	s8,80(sp)
8040903c:	10600058 	beqz	v1,804091a0 <send_page+0x1ac>
80409040:	2452ccfc 	addiu	s2,v0,-13060
80409044:	8e440000 	lw	a0,0(s2)
80409048:	0c1033c8 	jal	8040cf20 <lib_strcmp>
8040904c:	02002821 	move	a1,s0
80409050:	14400050 	bnez	v0,80409194 <send_page+0x1a0>
80409054:	26520010 	addiu	s2,s2,16
80409058:	2652fff0 	addiu	s2,s2,-16
8040905c:	8e420008 	lw	v0,8(s2)
80409060:	8e510004 	lw	s1,4(s2)
80409064:	0000b821 	move	s7,zero
80409068:	12800009 	beqz	s4,80409090 <send_page+0x9c>
8040906c:	8c530000 	lw	s3,0(v0)
80409070:	8e42000c 	lw	v0,12(s2)
80409074:	3c068042 	lui	a2,0x8042
80409078:	24c6baec 	addiu	a2,a2,-17684
8040907c:	02a02021 	move	a0,s5
80409080:	240500c8 	li	a1,200
80409084:	00003821 	move	a3,zero
80409088:	0c10231b 	jal	80408c6c <send_headers>
8040908c:	afa20010 	sw	v0,16(sp)
80409090:	08102457 	j	8040915c <send_page+0x168>
80409094:	02c0a021 	move	s4,s6
80409098:	82160001 	lb	s6,1(s0)
8040909c:	24020025 	li	v0,37
804090a0:	16c20022 	bne	s6,v0,8040912c <send_page+0x138>
804090a4:	02a02021 	move	a0,s5
804090a8:	02202821 	move	a1,s1
804090ac:	0c1023d4 	jal	80408f50 <cfe_web_tcp_send>
804090b0:	02113023 	subu	a2,s0,s1
804090b4:	04400032 	bltz	v0,80409180 <send_page+0x18c>
804090b8:	02202821 	move	a1,s1
804090bc:	0c1033bf 	jal	8040cefc <lib_strlen>
804090c0:	8e840000 	lw	a0,0(s4)
804090c4:	8e850000 	lw	a1,0(s4)
804090c8:	02a02021 	move	a0,s5
804090cc:	0c1023d4 	jal	80408f50 <cfe_web_tcp_send>
804090d0:	00403021 	move	a2,v0
804090d4:	04400029 	bltz	v0,8040917c <send_page+0x188>
804090d8:	26f70001 	addiu	s7,s7,1
804090dc:	82020002 	lb	v0,2(s0)
804090e0:	26940004 	addiu	s4,s4,4
804090e4:	14560005 	bne	v0,s6,804090fc <send_page+0x108>
804090e8:	26110002 	addiu	s1,s0,2
804090ec:	82230001 	lb	v1,1(s1)
804090f0:	2402003e 	li	v0,62
804090f4:	1062000b 	beq	v1,v0,80409124 <send_page+0x130>
804090f8:	00000000 	nop
804090fc:	24040025 	li	a0,37
80409100:	2403003e 	li	v1,62
80409104:	26310001 	addiu	s1,s1,1
80409108:	82220000 	lb	v0,0(s1)
8040910c:	1444fffd 	bne	v0,a0,80409104 <send_page+0x110>
80409110:	00000000 	nop
80409114:	82220001 	lb	v0,1(s1)
80409118:	1443fffb 	bne	v0,v1,80409108 <send_page+0x114>
8040911c:	26310001 	addiu	s1,s1,1
80409120:	2631ffff 	addiu	s1,s1,-1
80409124:	08102452 	j	80409148 <send_page+0x154>
80409128:	26310002 	addiu	s1,s1,2
8040912c:	26100001 	addiu	s0,s0,1
80409130:	02202821 	move	a1,s1
80409134:	0c1023d4 	jal	80408f50 <cfe_web_tcp_send>
80409138:	02113023 	subu	a2,s0,s1
8040913c:	04400010 	bltz	v0,80409180 <send_page+0x18c>
80409140:	02202821 	move	a1,s1
80409144:	02008821 	move	s1,s0
80409148:	8e420008 	lw	v0,8(s2)
8040914c:	8e430004 	lw	v1,4(s2)
80409150:	8c420000 	lw	v0,0(v0)
80409154:	02231823 	subu	v1,s1,v1
80409158:	00439823 	subu	s3,v0,v1
8040915c:	02fe102a 	slt	v0,s7,s8
80409160:	10400006 	beqz	v0,8040917c <send_page+0x188>
80409164:	02202021 	move	a0,s1
80409168:	2405003c 	li	a1,60
8040916c:	0c103431 	jal	8040d0c4 <lib_strnchr>
80409170:	02603021 	move	a2,s3
80409174:	1440ffc8 	bnez	v0,80409098 <send_page+0xa4>
80409178:	00408021 	move	s0,v0
8040917c:	02202821 	move	a1,s1
80409180:	02603021 	move	a2,s3
80409184:	0c1023d4 	jal	80408f50 <cfe_web_tcp_send>
80409188:	02a02021 	move	a0,s5
8040918c:	08102469 	j	804091a4 <send_page+0x1b0>
80409190:	8e420000 	lw	v0,0(s2)
80409194:	8e420000 	lw	v0,0(s2)
80409198:	1440ffaa 	bnez	v0,80409044 <send_page+0x50>
8040919c:	00000000 	nop
804091a0:	8e420000 	lw	v0,0(s2)
804091a4:	14400014 	bnez	v0,804091f8 <send_page+0x204>
804091a8:	8fbf003c 	lw	ra,60(sp)
804091ac:	3c028042 	lui	v0,0x8042
804091b0:	3c068042 	lui	a2,0x8042
804091b4:	2442baf0 	addiu	v0,v0,-17680
804091b8:	02a02021 	move	a0,s5
804091bc:	afa20050 	sw	v0,80(sp)
804091c0:	8fbe0038 	lw	s8,56(sp)
804091c4:	8fb70034 	lw	s7,52(sp)
804091c8:	8fb60030 	lw	s6,48(sp)
804091cc:	8fb5002c 	lw	s5,44(sp)
804091d0:	8fb40028 	lw	s4,40(sp)
804091d4:	8fb30024 	lw	s3,36(sp)
804091d8:	8fb20020 	lw	s2,32(sp)
804091dc:	8fb1001c 	lw	s1,28(sp)
804091e0:	8fb00018 	lw	s0,24(sp)
804091e4:	24c6bb00 	addiu	a2,a2,-17664
804091e8:	24050194 	li	a1,404
804091ec:	00003821 	move	a3,zero
804091f0:	08102396 	j	80408e58 <send_error>
804091f4:	27bd0040 	addiu	sp,sp,64
804091f8:	8fbe0038 	lw	s8,56(sp)
804091fc:	8fb70034 	lw	s7,52(sp)
80409200:	8fb60030 	lw	s6,48(sp)
80409204:	8fb5002c 	lw	s5,44(sp)
80409208:	8fb40028 	lw	s4,40(sp)
8040920c:	8fb30024 	lw	s3,36(sp)
80409210:	8fb20020 	lw	s2,32(sp)
80409214:	8fb1001c 	lw	s1,28(sp)
80409218:	8fb00018 	lw	s0,24(sp)
8040921c:	03e00008 	jr	ra
80409220:	27bd0040 	addiu	sp,sp,64

80409224 <cfe_web_poll>:
80409224:	8f8280e4 	lw	v0,-32540(gp)
80409228:	27bdff98 	addiu	sp,sp,-104
8040922c:	afbf0064 	sw	ra,100(sp)
80409230:	afbe0060 	sw	s8,96(sp)
80409234:	afb7005c 	sw	s7,92(sp)
80409238:	afb60058 	sw	s6,88(sp)
8040923c:	afb50054 	sw	s5,84(sp)
80409240:	afb40050 	sw	s4,80(sp)
80409244:	afb3004c 	sw	s3,76(sp)
80409248:	afb20048 	sw	s2,72(sp)
8040924c:	afb10044 	sw	s1,68(sp)
80409250:	14400227 	bnez	v0,80409af0 <cfe_web_poll+0x8cc>
80409254:	afb00040 	sw	s0,64(sp)
80409258:	8f828060 	lw	v0,-32672(gp)
8040925c:	24030001 	li	v1,1
80409260:	14430011 	bne	v0,v1,804092a8 <cfe_web_poll+0x84>
80409264:	af8380e4 	sw	v1,-32540(gp)
80409268:	3c028042 	lui	v0,0x8042
8040926c:	24040003 	li	a0,3
80409270:	2457e820 	addiu	s7,v0,-6112
80409274:	af808060 	sw	zero,-32672(gp)
80409278:	2403ff9c 	li	v1,-100
8040927c:	24020001 	li	v0,1
80409280:	afa40038 	sw	a0,56(sp)
80409284:	8fa40038 	lw	a0,56(sp)
80409288:	aee30000 	sw	v1,0(s7)
8040928c:	aee20004 	sw	v0,4(s7)
80409290:	2484ffff 	addiu	a0,a0,-1
80409294:	aee00008 	sw	zero,8(s7)
80409298:	aee0000c 	sw	zero,12(s7)
8040929c:	afa40038 	sw	a0,56(sp)
804092a0:	0481fff8 	bgez	a0,80409284 <cfe_web_poll+0x60>
804092a4:	26f70190 	addiu	s7,s7,400
804092a8:	3c028042 	lui	v0,0x8042
804092ac:	2457e820 	addiu	s7,v0,-6112
804092b0:	afa00038 	sw	zero,56(sp)
804092b4:	26f50008 	addiu	s5,s7,8
804092b8:	0c102266 	jal	80408998 <cfe_web_listen>
804092bc:	278480cc 	addiu	a0,gp,-32564
804092c0:	8ea4fff8 	lw	a0,-8(s5)
804092c4:	04800202 	bltz	a0,80409ad0 <cfe_web_poll+0x8ac>
804092c8:	27a50020 	addiu	a1,sp,32
804092cc:	00003021 	move	a2,zero
804092d0:	0c104f65 	jal	80413d94 <tcp_status>
804092d4:	00003821 	move	a3,zero
804092d8:	8fb10020 	lw	s1,32(sp)
804092dc:	24020002 	li	v0,2
804092e0:	162201ef 	bne	s1,v0,80409aa0 <cfe_web_poll+0x87c>
804092e4:	93828064 	lbu	v0,-32668(gp)
804092e8:	a3a20018 	sb	v0,24(sp)
804092ec:	93828065 	lbu	v0,-32667(gp)
804092f0:	a3a20019 	sb	v0,25(sp)
804092f4:	8eb0fffc 	lw	s0,-4(s5)
804092f8:	27a20018 	addiu	v0,sp,24
804092fc:	afa20034 	sw	v0,52(sp)
80409300:	1211001e 	beq	s0,s1,8040937c <cfe_web_poll+0x158>
80409304:	afa00024 	sw	zero,36(sp)
80409308:	2a020003 	slti	v0,s0,3
8040930c:	10400006 	beqz	v0,80409328 <cfe_web_poll+0x104>
80409310:	24020003 	li	v0,3
80409314:	24020001 	li	v0,1
80409318:	12020007 	beq	s0,v0,80409338 <cfe_web_poll+0x114>
8040931c:	8fa20024 	lw	v0,36(sp)
80409320:	08102698 	j	80409a60 <cfe_web_poll+0x83c>
80409324:	00000000 	nop
80409328:	1202008e 	beq	s0,v0,80409564 <cfe_web_poll+0x340>
8040932c:	8f83804c 	lw	v1,-32692(gp)
80409330:	08102698 	j	80409a60 <cfe_web_poll+0x83c>
80409334:	8fa20024 	lw	v0,36(sp)
80409338:	8ea7fff8 	lw	a3,-8(s5)
8040933c:	26e40010 	addiu	a0,s7,16
80409340:	24050080 	li	a1,128
80409344:	0c1022b6 	jal	80408ad8 <cfe_web_gets>
80409348:	02a03021 	move	a2,s5
8040934c:	10500009 	beq	v0,s0,80409374 <cfe_web_poll+0x150>
80409350:	00401821 	move	v1,v0
80409354:	24020003 	li	v0,3
80409358:	146201c1 	bne	v1,v0,80409a60 <cfe_web_poll+0x83c>
8040935c:	8fa20024 	lw	v0,36(sp)
80409360:	3c048042 	lui	a0,0x8042
80409364:	0c1039d2 	jal	8040e748 <console_log>
80409368:	2484bb0c 	addiu	a0,a0,-17652
8040936c:	08102697 	j	80409a5c <cfe_web_poll+0x838>
80409370:	afb00024 	sw	s0,36(sp)
80409374:	aeb1fffc 	sw	s1,-4(s5)
80409378:	aea00000 	sw	zero,0(s5)
8040937c:	8eb6fff8 	lw	s6,-8(s5)
80409380:	26f30090 	addiu	s3,s7,144
80409384:	26f4000c 	addiu	s4,s7,12
80409388:	0000f021 	move	s8,zero
8040938c:	02a03021 	move	a2,s5
80409390:	02c03821 	move	a3,s6
80409394:	02602021 	move	a0,s3
80409398:	0c1022b6 	jal	80408ad8 <cfe_web_gets>
8040939c:	24050100 	li	a1,256
804093a0:	24110001 	li	s1,1
804093a4:	10510007 	beq	v0,s1,804093c4 <cfe_web_poll+0x1a0>
804093a8:	00408021 	move	s0,v0
804093ac:	3c048042 	lui	a0,0x8042
804093b0:	24020003 	li	v0,3
804093b4:	12020016 	beq	s0,v0,80409410 <cfe_web_poll+0x1ec>
804093b8:	2484bb0c 	addiu	a0,a0,-17652
804093bc:	08102508 	j	80409420 <cfe_web_poll+0x1fc>
804093c0:	24120001 	li	s2,1
804093c4:	8ea20000 	lw	v0,0(s5)
804093c8:	14400004 	bnez	v0,804093dc <cfe_web_poll+0x1b8>
804093cc:	27a40028 	addiu	a0,sp,40
804093d0:	241e0001 	li	s8,1
804093d4:	08102507 	j	8040941c <cfe_web_poll+0x1f8>
804093d8:	24100002 	li	s0,2
804093dc:	0c103491 	jal	8040d244 <lib_gettoken>
804093e0:	afb30028 	sw	s3,40(sp)
804093e4:	3c058042 	lui	a1,0x8042
804093e8:	00402021 	move	a0,v0
804093ec:	0c1033f4 	jal	8040cfd0 <lib_strcmpi>
804093f0:	24a5bb28 	addiu	a1,a1,-17624
804093f4:	14400004 	bnez	v0,80409408 <cfe_web_poll+0x1e4>
804093f8:	00000000 	nop
804093fc:	0c1034f6 	jal	8040d3d8 <lib_atoi>
80409400:	8fa40028 	lw	a0,40(sp)
80409404:	ae820000 	sw	v0,0(s4)
80409408:	08102507 	j	8040941c <cfe_web_poll+0x1f8>
8040940c:	aea00000 	sw	zero,0(s5)
80409410:	0c1039d2 	jal	8040e748 <console_log>
80409414:	00000000 	nop
80409418:	afb10024 	sw	s1,36(sp)
8040941c:	24120001 	li	s2,1
80409420:	1212ffdb 	beq	s0,s2,80409390 <cfe_web_poll+0x16c>
80409424:	02a03021 	move	a2,s5
80409428:	13c0004a 	beqz	s8,80409554 <cfe_web_poll+0x330>
8040942c:	8f8280bc 	lw	v0,-32580(gp)
80409430:	1440003f 	bnez	v0,80409530 <cfe_web_poll+0x30c>
80409434:	3c068042 	lui	a2,0x8042
80409438:	26e20010 	addiu	v0,s7,16
8040943c:	27a4002c 	addiu	a0,sp,44
80409440:	0c103491 	jal	8040d244 <lib_gettoken>
80409444:	afa2002c 	sw	v0,44(sp)
80409448:	1040002d 	beqz	v0,80409500 <cfe_web_poll+0x2dc>
8040944c:	00408021 	move	s0,v0
80409450:	0c103491 	jal	8040d244 <lib_gettoken>
80409454:	27a4002c 	addiu	a0,sp,44
80409458:	10400029 	beqz	v0,80409500 <cfe_web_poll+0x2dc>
8040945c:	00408821 	move	s1,v0
80409460:	3c058042 	lui	a1,0x8042
80409464:	24a5bb44 	addiu	a1,a1,-17596
80409468:	0c1033f4 	jal	8040cfd0 <lib_strcmpi>
8040946c:	02002021 	move	a0,s0
80409470:	14400009 	bnez	v0,80409498 <cfe_web_poll+0x274>
80409474:	3c058042 	lui	a1,0x8042
80409478:	8ea4fff8 	lw	a0,-8(s5)
8040947c:	02202821 	move	a1,s1
80409480:	24060001 	li	a2,1
80409484:	00003821 	move	a3,zero
80409488:	0c1023fd 	jal	80408ff4 <send_page>
8040948c:	afa00010 	sw	zero,16(sp)
80409490:	08102555 	j	80409554 <cfe_web_poll+0x330>
80409494:	afb20024 	sw	s2,36(sp)
80409498:	02002021 	move	a0,s0
8040949c:	0c1033f4 	jal	8040cfd0 <lib_strcmpi>
804094a0:	24a5bb48 	addiu	a1,a1,-17592
804094a4:	1440000f 	bnez	v0,804094e4 <cfe_web_poll+0x2c0>
804094a8:	3c068042 	lui	a2,0x8042
804094ac:	8f8280e0 	lw	v0,-32544(gp)
804094b0:	14400005 	bnez	v0,804094c8 <cfe_web_poll+0x2a4>
804094b4:	3c068042 	lui	a2,0x8042
804094b8:	24020003 	li	v0,3
804094bc:	af9280e0 	sw	s2,-32544(gp)
804094c0:	08102555 	j	80409554 <cfe_web_poll+0x330>
804094c4:	aea2fffc 	sw	v0,-4(s5)
804094c8:	8ea4fff8 	lw	a0,-8(s5)
804094cc:	3c028042 	lui	v0,0x8042
804094d0:	24c6bb60 	addiu	a2,a2,-17568
804094d4:	240501f5 	li	a1,501
804094d8:	00003821 	move	a3,zero
804094dc:	08102552 	j	80409548 <cfe_web_poll+0x324>
804094e0:	2442bb6c 	addiu	v0,v0,-17556
804094e4:	8ea4fff8 	lw	a0,-8(s5)
804094e8:	3c028042 	lui	v0,0x8042
804094ec:	24c6bb50 	addiu	a2,a2,-17584
804094f0:	240501f5 	li	a1,501
804094f4:	00003821 	move	a3,zero
804094f8:	08102552 	j	80409548 <cfe_web_poll+0x324>
804094fc:	2442bb90 	addiu	v0,v0,-17520
80409500:	8ea4fff8 	lw	a0,-8(s5)
80409504:	3c068042 	lui	a2,0x8042
80409508:	3c028042 	lui	v0,0x8042
8040950c:	2442bbb0 	addiu	v0,v0,-17488
80409510:	24c6bb38 	addiu	a2,a2,-17608
80409514:	24050190 	li	a1,400
80409518:	00003821 	move	a3,zero
8040951c:	0c102396 	jal	80408e58 <send_error>
80409520:	afa20010 	sw	v0,16(sp)
80409524:	24020001 	li	v0,1
80409528:	08102555 	j	80409554 <cfe_web_poll+0x330>
8040952c:	afa20024 	sw	v0,36(sp)
80409530:	8ea4fff8 	lw	a0,-8(s5)
80409534:	3c028042 	lui	v0,0x8042
80409538:	24c6bb38 	addiu	a2,a2,-17608
8040953c:	24050190 	li	a1,400
80409540:	00003821 	move	a3,zero
80409544:	2442bbc8 	addiu	v0,v0,-17464
80409548:	0c102396 	jal	80408e58 <send_error>
8040954c:	afa20010 	sw	v0,16(sp)
80409550:	afb20024 	sw	s2,36(sp)
80409554:	8ea3fffc 	lw	v1,-4(s5)
80409558:	24020003 	li	v0,3
8040955c:	1462013f 	bne	v1,v0,80409a5c <cfe_web_poll+0x838>
80409560:	8f83804c 	lw	v1,-32692(gp)
80409564:	3c020080 	lui	v0,0x80
80409568:	8eb6fff8 	lw	s6,-8(s5)
8040956c:	8eb20004 	lw	s2,4(s5)
80409570:	8f9080dc 	lw	s0,-32548(gp)
80409574:	0043102b 	sltu	v0,v0,v1
80409578:	3c138080 	lui	s3,0x8080
8040957c:	3c038000 	lui	v1,0x8000
80409580:	0062980a 	movz	s3,v1,v0
80409584:	24140038 	li	s4,56
80409588:	02702821 	addu	a1,s3,s0
8040958c:	02503023 	subu	a2,s2,s0
80409590:	0c104ee3 	jal	80413b8c <tcp_recv>
80409594:	02c02021 	move	a0,s6
80409598:	00408821 	move	s1,v0
8040959c:	0c103c5c 	jal	8040f170 <background>
804095a0:	02118021 	addu	s0,s0,s1
804095a4:	0c102266 	jal	80408998 <cfe_web_listen>
804095a8:	278480cc 	addiu	a0,gp,-32564
804095ac:	1a200003 	blez	s1,804095bc <cfe_web_poll+0x398>
804095b0:	0212102a 	slt	v0,s0,s2
804095b4:	1440fff5 	bnez	v0,8040958c <cfe_web_poll+0x368>
804095b8:	02702821 	addu	a1,s3,s0
804095bc:	06210006 	bgez	s1,804095d8 <cfe_web_poll+0x3b4>
804095c0:	af9080dc 	sw	s0,-32548(gp)
804095c4:	3c048042 	lui	a0,0x8042
804095c8:	0c1039d2 	jal	8040e748 <console_log>
804095cc:	2484bbe8 	addiu	a0,a0,-17432
804095d0:	08102579 	j	804095e4 <cfe_web_poll+0x3c0>
804095d4:	24140039 	li	s4,57
804095d8:	02121826 	xor	v1,s0,s2
804095dc:	24020030 	li	v0,48
804095e0:	0043a00a 	movz	s4,v0,v1
804095e4:	00141e00 	sll	v1,s4,0x18
804095e8:	00031e03 	sra	v1,v1,0x18
804095ec:	24020030 	li	v0,48
804095f0:	146200f6 	bne	v1,v0,804099cc <cfe_web_poll+0x7a8>
804095f4:	a3b40018 	sb	s4,24(sp)
804095f8:	8f82804c 	lw	v0,-32692(gp)
804095fc:	3c030080 	lui	v1,0x80
80409600:	3c148080 	lui	s4,0x8080
80409604:	0062182b 	sltu	v1,v1,v0
80409608:	3c028000 	lui	v0,0x8000
8040960c:	0043a00a 	movz	s4,v0,v1
80409610:	82830000 	lb	v1,0(s4)
80409614:	2402000d 	li	v0,13
80409618:	02808821 	move	s1,s4
8040961c:	8f9680dc 	lw	s6,-32548(gp)
80409620:	24130030 	li	s3,48
80409624:	10620011 	beq	v1,v0,8040966c <cfe_web_poll+0x448>
80409628:	0000f021 	move	s8,zero
8040962c:	2402000a 	li	v0,10
80409630:	1062000e 	beq	v1,v0,8040966c <cfe_web_poll+0x448>
80409634:	00000000 	nop
80409638:	1ac0000c 	blez	s6,8040966c <cfe_web_poll+0x448>
8040963c:	00000000 	nop
80409640:	2405000d 	li	a1,13
80409644:	2404000a 	li	a0,10
80409648:	26310001 	addiu	s1,s1,1
8040964c:	82230000 	lb	v1,0(s1)
80409650:	02341023 	subu	v0,s1,s4
80409654:	10650006 	beq	v1,a1,80409670 <cfe_web_poll+0x44c>
80409658:	0056102a 	slt	v0,v0,s6
8040965c:	10640004 	beq	v1,a0,80409670 <cfe_web_poll+0x44c>
80409660:	00000000 	nop
80409664:	1440fff8 	bnez	v0,80409648 <cfe_web_poll+0x424>
80409668:	00000000 	nop
8040966c:	82230000 	lb	v1,0(s1)
80409670:	2402000d 	li	v0,13
80409674:	10620003 	beq	v1,v0,80409684 <cfe_web_poll+0x460>
80409678:	2402000a 	li	v0,10
8040967c:	14620007 	bne	v1,v0,8040969c <cfe_web_poll+0x478>
80409680:	00000000 	nop
80409684:	a2200000 	sb	zero,0(s1)
80409688:	0c1033bf 	jal	8040cefc <lib_strlen>
8040968c:	02802021 	move	a0,s4
80409690:	0040f021 	move	s8,v0
80409694:	081025ab 	j	804096ac <cfe_web_poll+0x488>
80409698:	26310001 	addiu	s1,s1,1
8040969c:	3c048042 	lui	a0,0x8042
804096a0:	0c1039d2 	jal	8040e748 <console_log>
804096a4:	2484bc18 	addiu	a0,a0,-17384
804096a8:	24130037 	li	s3,55
804096ac:	24020030 	li	v0,48
804096b0:	16620045 	bne	s3,v0,804097c8 <cfe_web_poll+0x5a4>
804096b4:	3c108042 	lui	s0,0x8042
804096b8:	081025e0 	j	80409780 <cfe_web_poll+0x55c>
804096bc:	00000000 	nop
804096c0:	82230000 	lb	v1,0(s1)
804096c4:	24020066 	li	v0,102
804096c8:	1462002b 	bne	v1,v0,80409778 <cfe_web_poll+0x554>
804096cc:	00000000 	nop
804096d0:	0c1033bf 	jal	8040cefc <lib_strlen>
804096d4:	00000000 	nop
804096d8:	00403021 	move	a2,v0
804096dc:	02202021 	move	a0,s1
804096e0:	0c10344d 	jal	8040d134 <lib_memcmp>
804096e4:	2645bc54 	addiu	a1,s2,-17324
804096e8:	14400024 	bnez	v0,8040977c <cfe_web_poll+0x558>
804096ec:	26310001 	addiu	s1,s1,1
804096f0:	2631ffff 	addiu	s1,s1,-1
804096f4:	0c1033bf 	jal	8040cefc <lib_strlen>
804096f8:	2644bc54 	addiu	a0,s2,-17324
804096fc:	02228821 	addu	s1,s1,v0
80409700:	82240000 	lb	a0,0(s1)
80409704:	24020022 	li	v0,34
80409708:	14820016 	bne	a0,v0,80409764 <cfe_web_poll+0x540>
8040970c:	26300001 	addiu	s0,s1,1
80409710:	82230001 	lb	v1,1(s1)
80409714:	10640013 	beq	v1,a0,80409764 <cfe_web_poll+0x540>
80409718:	2402000d 	li	v0,13
8040971c:	1062000f 	beq	v1,v0,8040975c <cfe_web_poll+0x538>
80409720:	02008821 	move	s1,s0
80409724:	2402000a 	li	v0,10
80409728:	1062000c 	beq	v1,v0,8040975c <cfe_web_poll+0x538>
8040972c:	00000000 	nop
80409730:	24050022 	li	a1,34
80409734:	2404000d 	li	a0,13
80409738:	2403000a 	li	v1,10
8040973c:	26310001 	addiu	s1,s1,1
80409740:	82220000 	lb	v0,0(s1)
80409744:	10450005 	beq	v0,a1,8040975c <cfe_web_poll+0x538>
80409748:	00000000 	nop
8040974c:	10440003 	beq	v0,a0,8040975c <cfe_web_poll+0x538>
80409750:	00000000 	nop
80409754:	1443fff9 	bne	v0,v1,8040973c <cfe_web_poll+0x518>
80409758:	00000000 	nop
8040975c:	081025eb 	j	804097ac <cfe_web_poll+0x588>
80409760:	a2200000 	sb	zero,0(s1)
80409764:	3c048042 	lui	a0,0x8042
80409768:	0c1039d2 	jal	8040e748 <console_log>
8040976c:	2484bc60 	addiu	a0,a0,-17312
80409770:	081025eb 	j	804097ac <cfe_web_poll+0x588>
80409774:	24130032 	li	s3,50
80409778:	26310001 	addiu	s1,s1,1
8040977c:	3c108042 	lui	s0,0x8042
80409780:	0c1033bf 	jal	8040cefc <lib_strlen>
80409784:	2604bc4c 	addiu	a0,s0,-17332
80409788:	00403021 	move	a2,v0
8040978c:	02202021 	move	a0,s1
80409790:	2605bc4c 	addiu	a1,s0,-17332
80409794:	0c10344d 	jal	8040d134 <lib_memcmp>
80409798:	3c128042 	lui	s2,0x8042
8040979c:	1440ffc8 	bnez	v0,804096c0 <cfe_web_poll+0x49c>
804097a0:	2644bc54 	addiu	a0,s2,-17324
804097a4:	081025ee 	j	804097b8 <cfe_web_poll+0x594>
804097a8:	3c048042 	lui	a0,0x8042
804097ac:	16000006 	bnez	s0,804097c8 <cfe_web_poll+0x5a4>
804097b0:	24020030 	li	v0,48
804097b4:	3c048042 	lui	a0,0x8042
804097b8:	0c1039d2 	jal	8040e748 <console_log>
804097bc:	2484bc90 	addiu	a0,a0,-17264
804097c0:	24130037 	li	s3,55
804097c4:	24020030 	li	v0,48
804097c8:	16620024 	bne	s3,v0,8040985c <cfe_web_poll+0x638>
804097cc:	24020030 	li	v0,48
804097d0:	081025f7 	j	804097dc <cfe_web_poll+0x5b8>
804097d4:	3c108042 	lui	s0,0x8042
804097d8:	3c108042 	lui	s0,0x8042
804097dc:	0c1033bf 	jal	8040cefc <lib_strlen>
804097e0:	2604bc4c 	addiu	a0,s0,-17332
804097e4:	00403021 	move	a2,v0
804097e8:	02202021 	move	a0,s1
804097ec:	0c10344d 	jal	8040d134 <lib_memcmp>
804097f0:	2605bc4c 	addiu	a1,s0,-17332
804097f4:	1440fff8 	bnez	v0,804097d8 <cfe_web_poll+0x5b4>
804097f8:	26310001 	addiu	s1,s1,1
804097fc:	2631ffff 	addiu	s1,s1,-1
80409800:	0c1033bf 	jal	8040cefc <lib_strlen>
80409804:	2604bc4c 	addiu	a0,s0,-17332
80409808:	02228821 	addu	s1,s1,v0
8040980c:	82230000 	lb	v1,0(s1)
80409810:	2402000d 	li	v0,13
80409814:	1462000a 	bne	v1,v0,80409840 <cfe_web_poll+0x61c>
80409818:	2402000a 	li	v0,10
8040981c:	82230001 	lb	v1,1(s1)
80409820:	14620007 	bne	v1,v0,80409840 <cfe_web_poll+0x61c>
80409824:	00000000 	nop
80409828:	26240002 	addiu	a0,s1,2
8040982c:	02802821 	move	a1,s4
80409830:	0c10344d 	jal	8040d134 <lib_memcmp>
80409834:	03c03021 	move	a2,s8
80409838:	10400003 	beqz	v0,80409848 <cfe_web_poll+0x624>
8040983c:	00000000 	nop
80409840:	08102616 	j	80409858 <cfe_web_poll+0x634>
80409844:	af9180d8 	sw	s1,-32552(gp)
80409848:	3c048042 	lui	a0,0x8042
8040984c:	0c1039d2 	jal	8040e748 <console_log>
80409850:	2484bcc0 	addiu	a0,a0,-17216
80409854:	24130033 	li	s3,51
80409858:	24020030 	li	v0,48
8040985c:	1662002b 	bne	s3,v0,8040990c <cfe_web_poll+0x6e8>
80409860:	24020030 	li	v0,48
80409864:	02961021 	addu	v0,s4,s6
80409868:	8043ffff 	lb	v1,-1(v0)
8040986c:	2451ffff 	addiu	s1,v0,-1
80409870:	2402000d 	li	v0,13
80409874:	10620005 	beq	v1,v0,8040988c <cfe_web_poll+0x668>
80409878:	2402000a 	li	v0,10
8040987c:	10620003 	beq	v1,v0,8040988c <cfe_web_poll+0x668>
80409880:	2402002d 	li	v0,45
80409884:	1462000e 	bne	v1,v0,804098c0 <cfe_web_poll+0x69c>
80409888:	3c048042 	lui	a0,0x8042
8040988c:	2405000d 	li	a1,13
80409890:	2404000a 	li	a0,10
80409894:	2403002d 	li	v1,45
80409898:	2631ffff 	addiu	s1,s1,-1
8040989c:	82220000 	lb	v0,0(s1)
804098a0:	1045fffd 	beq	v0,a1,80409898 <cfe_web_poll+0x674>
804098a4:	00000000 	nop
804098a8:	1044fffb 	beq	v0,a0,80409898 <cfe_web_poll+0x674>
804098ac:	00000000 	nop
804098b0:	1043fffa 	beq	v0,v1,8040989c <cfe_web_poll+0x678>
804098b4:	2631ffff 	addiu	s1,s1,-1
804098b8:	26310001 	addiu	s1,s1,1
804098bc:	3c048042 	lui	a0,0x8042
804098c0:	a2200001 	sb	zero,1(s1)
804098c4:	2484b974 	addiu	a0,a0,-18060
804098c8:	023e1023 	subu	v0,s1,s8
804098cc:	0c1033bf 	jal	8040cefc <lib_strlen>
804098d0:	2451ffff 	addiu	s1,v0,-1
804098d4:	02222021 	addu	a0,s1,v0
804098d8:	02802821 	move	a1,s4
804098dc:	0c10344d 	jal	8040d134 <lib_memcmp>
804098e0:	03c03021 	move	a2,s8
804098e4:	14400004 	bnez	v0,804098f8 <cfe_web_poll+0x6d4>
804098e8:	8f8280d8 	lw	v0,-32552(gp)
804098ec:	02221023 	subu	v0,s1,v0
804098f0:	08102642 	j	80409908 <cfe_web_poll+0x6e4>
804098f4:	af8280d4 	sw	v0,-32556(gp)
804098f8:	3c048042 	lui	a0,0x8042
804098fc:	0c1039d2 	jal	8040e748 <console_log>
80409900:	2484bce4 	addiu	a0,a0,-17180
80409904:	24130037 	li	s3,55
80409908:	24020030 	li	v0,48
8040990c:	1662002e 	bne	s3,v0,804099c8 <cfe_web_poll+0x7a4>
80409910:	8f8580d8 	lw	a1,-32552(gp)
80409914:	30a2000f 	andi	v0,a1,0xf
80409918:	10400008 	beqz	v0,8040993c <cfe_web_poll+0x718>
8040991c:	8f8480d8 	lw	a0,-32552(gp)
80409920:	8f8680d4 	lw	a2,-32556(gp)
80409924:	2410fff0 	li	s0,-16
80409928:	00b08024 	and	s0,a1,s0
8040992c:	0c1022fc 	jal	80408bf0 <memmove>
80409930:	02002021 	move	a0,s0
80409934:	af9080d8 	sw	s0,-32552(gp)
80409938:	8f8480d8 	lw	a0,-32552(gp)
8040993c:	0c101905 	jal	80406414 <verifyTag>
80409940:	00002821 	move	a1,zero
80409944:	00401821 	move	v1,v0
80409948:	2402ffff 	li	v0,-1
8040994c:	14620019 	bne	v1,v0,804099b4 <cfe_web_poll+0x790>
80409950:	8f8580d4 	lw	a1,-32556(gp)
80409954:	8f9180d8 	lw	s1,-32552(gp)
80409958:	24b0ffec 	addiu	s0,a1,-20
8040995c:	02002821 	move	a1,s0
80409960:	02202021 	move	a0,s1
80409964:	2406ffff 	li	a2,-1
80409968:	0c1018b6 	jal	804062d8 <getCrc32>
8040996c:	afa30030 	sw	v1,48(sp)
80409970:	02302821 	addu	a1,s1,s0
80409974:	27a40030 	addiu	a0,sp,48
80409978:	24060004 	li	a2,4
8040997c:	0c10344d 	jal	8040d134 <lib_memcmp>
80409980:	afa20030 	sw	v0,48(sp)
80409984:	14400006 	bnez	v0,804099a0 <cfe_web_poll+0x77c>
80409988:	8f8580d4 	lw	a1,-32556(gp)
8040998c:	3c048042 	lui	a0,0x8042
80409990:	0c1039d2 	jal	8040e748 <console_log>
80409994:	2484bd14 	addiu	a0,a0,-17132
80409998:	08102671 	j	804099c4 <cfe_web_poll+0x7a0>
8040999c:	24020002 	li	v0,2
804099a0:	3c048042 	lui	a0,0x8042
804099a4:	0c1039d2 	jal	8040e748 <console_log>
804099a8:	2484bd44 	addiu	a0,a0,-17084
804099ac:	08102672 	j	804099c8 <cfe_web_poll+0x7a4>
804099b0:	24130033 	li	s3,51
804099b4:	3c048042 	lui	a0,0x8042
804099b8:	0c1039d2 	jal	8040e748 <console_log>
804099bc:	2484bd78 	addiu	a0,a0,-17032
804099c0:	24020001 	li	v0,1
804099c4:	af8280d0 	sw	v0,-32560(gp)
804099c8:	a3b30018 	sb	s3,24(sp)
804099cc:	83a30018 	lb	v1,24(sp)
804099d0:	24020038 	li	v0,56
804099d4:	10620021 	beq	v1,v0,80409a5c <cfe_web_poll+0x838>
804099d8:	28620039 	slti	v0,v1,57
804099dc:	10400006 	beqz	v0,804099f8 <cfe_web_poll+0x7d4>
804099e0:	24020039 	li	v0,57
804099e4:	24020030 	li	v0,48
804099e8:	10620007 	beq	v1,v0,80409a08 <cfe_web_poll+0x7e4>
804099ec:	3c058042 	lui	a1,0x8042
804099f0:	0810268e 	j	80409a38 <cfe_web_poll+0x814>
804099f4:	8ea4fff8 	lw	a0,-8(s5)
804099f8:	1462000d 	bne	v1,v0,80409a30 <cfe_web_poll+0x80c>
804099fc:	24020001 	li	v0,1
80409a00:	08102695 	j	80409a54 <cfe_web_poll+0x830>
80409a04:	afa20024 	sw	v0,36(sp)
80409a08:	8ea4fff8 	lw	a0,-8(s5)
80409a0c:	24100001 	li	s0,1
80409a10:	24a5b884 	addiu	a1,a1,-18300
80409a14:	00003021 	move	a2,zero
80409a18:	27a70034 	addiu	a3,sp,52
80409a1c:	af9080fc 	sw	s0,-32516(gp)
80409a20:	0c1023fd 	jal	80408ff4 <send_page>
80409a24:	afb00010 	sw	s0,16(sp)
80409a28:	08102696 	j	80409a58 <cfe_web_poll+0x834>
80409a2c:	afb00024 	sw	s0,36(sp)
80409a30:	8ea4fff8 	lw	a0,-8(s5)
80409a34:	3c058042 	lui	a1,0x8042
80409a38:	24100001 	li	s0,1
80409a3c:	24a5b884 	addiu	a1,a1,-18300
80409a40:	00003021 	move	a2,zero
80409a44:	27a70034 	addiu	a3,sp,52
80409a48:	0c1023fd 	jal	80408ff4 <send_page>
80409a4c:	afb00010 	sw	s0,16(sp)
80409a50:	afb00024 	sw	s0,36(sp)
80409a54:	af8080e0 	sw	zero,-32544(gp)
80409a58:	af8080dc 	sw	zero,-32548(gp)
80409a5c:	8fa20024 	lw	v0,36(sp)
80409a60:	1040000b 	beqz	v0,80409a90 <cfe_web_poll+0x86c>
80409a64:	00000000 	nop
80409a68:	0c103c5c 	jal	8040f170 <background>
80409a6c:	00000000 	nop
80409a70:	0c104e98 	jal	80413a60 <tcp_close>
80409a74:	8ea4fff8 	lw	a0,-8(s5)
80409a78:	2402ff9c 	li	v0,-100
80409a7c:	aea2fff8 	sw	v0,-8(s5)
80409a80:	24020001 	li	v0,1
80409a84:	aea2fffc 	sw	v0,-4(s5)
80409a88:	aea00000 	sw	zero,0(s5)
80409a8c:	aea00004 	sw	zero,4(s5)
80409a90:	0c103c5c 	jal	8040f170 <background>
80409a94:	00000000 	nop
80409a98:	081026b5 	j	80409ad4 <cfe_web_poll+0x8b0>
80409a9c:	8fa20038 	lw	v0,56(sp)
80409aa0:	1620000c 	bnez	s1,80409ad4 <cfe_web_poll+0x8b0>
80409aa4:	8fa20038 	lw	v0,56(sp)
80409aa8:	3c048042 	lui	a0,0x8042
80409aac:	0c1039d2 	jal	8040e748 <console_log>
80409ab0:	2484bdac 	addiu	a0,a0,-16980
80409ab4:	0c104e98 	jal	80413a60 <tcp_close>
80409ab8:	8ea4fff8 	lw	a0,-8(s5)
80409abc:	2402ff9c 	li	v0,-100
80409ac0:	aea2fff8 	sw	v0,-8(s5)
80409ac4:	24020001 	li	v0,1
80409ac8:	aea2fffc 	sw	v0,-4(s5)
80409acc:	aea00000 	sw	zero,0(s5)
80409ad0:	8fa20038 	lw	v0,56(sp)
80409ad4:	26f70190 	addiu	s7,s7,400
80409ad8:	24420001 	addiu	v0,v0,1
80409adc:	afa20038 	sw	v0,56(sp)
80409ae0:	28420004 	slti	v0,v0,4
80409ae4:	1440fdf4 	bnez	v0,804092b8 <cfe_web_poll+0x94>
80409ae8:	26b50190 	addiu	s5,s5,400
80409aec:	af8080e4 	sw	zero,-32540(gp)
80409af0:	8fbf0064 	lw	ra,100(sp)
80409af4:	8fbe0060 	lw	s8,96(sp)
80409af8:	8fb7005c 	lw	s7,92(sp)
80409afc:	8fb60058 	lw	s6,88(sp)
80409b00:	8fb50054 	lw	s5,84(sp)
80409b04:	8fb40050 	lw	s4,80(sp)
80409b08:	8fb3004c 	lw	s3,76(sp)
80409b0c:	8fb20048 	lw	s2,72(sp)
80409b10:	8fb10044 	lw	s1,68(sp)
80409b14:	8fb00040 	lw	s0,64(sp)
80409b18:	03e00008 	jr	ra
80409b1c:	27bd0068 	addiu	sp,sp,104

80409b20 <BpGetVoipDspConfig>:
80409b20:	8f8280e8 	lw	v0,-32536(gp)
80409b24:	308400ff 	andi	a0,a0,0xff
80409b28:	1040000e 	beqz	v0,80409b64 <BpGetVoipDspConfig+0x44>
80409b2c:	00003821 	move	a3,zero
80409b30:	00401821 	move	v1,v0
80409b34:	00002821 	move	a1,zero
80409b38:	90620034 	lbu	v0,52(v1)
80409b3c:	24a50001 	addiu	a1,a1,1
80409b40:	10400006 	beqz	v0,80409b5c <BpGetVoipDspConfig+0x3c>
80409b44:	28a60002 	slti	a2,a1,2
80409b48:	90620035 	lbu	v0,53(v1)
80409b4c:	14440003 	bne	v0,a0,80409b5c <BpGetVoipDspConfig+0x3c>
80409b50:	00000000 	nop
80409b54:	081026d9 	j	80409b64 <BpGetVoipDspConfig+0x44>
80409b58:	24670034 	addiu	a3,v1,52
80409b5c:	14c0fff6 	bnez	a2,80409b38 <BpGetVoipDspConfig+0x18>
80409b60:	2463000c 	addiu	v1,v1,12
80409b64:	03e00008 	jr	ra
80409b68:	00e01021 	move	v0,a3

80409b6c <BpSetBoardId>:
80409b6c:	3c028042 	lui	v0,0x8042
80409b70:	8c43cd3c 	lw	v1,-12996(v0)
80409b74:	240a0001 	li	t2,1
80409b78:	10600028 	beqz	v1,80409c1c <BpSetBoardId+0xb0>
80409b7c:	2449cd3c 	addiu	t1,v0,-12996
80409b80:	8d280000 	lw	t0,0(t1)
80409b84:	80830000 	lb	v1,0(a0)
80409b88:	00803021 	move	a2,a0
80409b8c:	10600010 	beqz	v1,80409bd0 <BpSetBoardId+0x64>
80409b90:	01002821 	move	a1,t0
80409b94:	91020000 	lbu	v0,0(t0)
80409b98:	1040000d 	beqz	v0,80409bd0 <BpSetBoardId+0x64>
80409b9c:	00021600 	sll	v0,v0,0x18
80409ba0:	00021603 	sra	v0,v0,0x18
80409ba4:	0062382a 	slt	a3,v1,v0
80409ba8:	0043102a 	slt	v0,v0,v1
80409bac:	14400017 	bnez	v0,80409c0c <BpSetBoardId+0xa0>
80409bb0:	24c60001 	addiu	a2,a2,1
80409bb4:	14e00015 	bnez	a3,80409c0c <BpSetBoardId+0xa0>
80409bb8:	00000000 	nop
80409bbc:	80c30000 	lb	v1,0(a2)
80409bc0:	10600003 	beqz	v1,80409bd0 <BpSetBoardId+0x64>
80409bc4:	24a50001 	addiu	a1,a1,1
80409bc8:	081026e6 	j	80409b98 <BpSetBoardId+0x2c>
80409bcc:	90a20000 	lbu	v0,0(a1)
80409bd0:	80a30000 	lb	v1,0(a1)
80409bd4:	10600006 	beqz	v1,80409bf0 <BpSetBoardId+0x84>
80409bd8:	00000000 	nop
80409bdc:	80c20000 	lb	v0,0(a2)
80409be0:	1040000a 	beqz	v0,80409c0c <BpSetBoardId+0xa0>
80409be4:	00000000 	nop
80409be8:	14600005 	bnez	v1,80409c00 <BpSetBoardId+0x94>
80409bec:	00000000 	nop
80409bf0:	80c20000 	lb	v0,0(a2)
80409bf4:	14400006 	bnez	v0,80409c10 <BpSetBoardId+0xa4>
80409bf8:	25290004 	addiu	t1,t1,4
80409bfc:	2529fffc 	addiu	t1,t1,-4
80409c00:	00005021 	move	t2,zero
80409c04:	08102707 	j	80409c1c <BpSetBoardId+0xb0>
80409c08:	af8880e8 	sw	t0,-32536(gp)
80409c0c:	25290004 	addiu	t1,t1,4
80409c10:	8d220000 	lw	v0,0(t1)
80409c14:	1440ffda 	bnez	v0,80409b80 <BpSetBoardId+0x14>
80409c18:	00000000 	nop
80409c1c:	03e00008 	jr	ra
80409c20:	01401021 	move	v0,t2

80409c24 <BpGetBoardIds>:
80409c24:	3c028042 	lui	v0,0x8042
80409c28:	8c43cd3c 	lw	v1,-12996(v0)
80409c2c:	00004021 	move	t0,zero
80409c30:	10600012 	beqz	v1,80409c7c <BpGetBoardIds+0x58>
80409c34:	2447cd3c 	addiu	a3,v0,-12996
80409c38:	10a00010 	beqz	a1,80409c7c <BpGetBoardIds+0x58>
80409c3c:	00803021 	move	a2,a0
80409c40:	8ce30000 	lw	v1,0(a3)
80409c44:	90620000 	lbu	v0,0(v1)
80409c48:	10400005 	beqz	v0,80409c60 <BpGetBoardIds+0x3c>
80409c4c:	24630001 	addiu	v1,v1,1
80409c50:	a0c20000 	sb	v0,0(a2)
80409c54:	90620000 	lbu	v0,0(v1)
80409c58:	08102712 	j	80409c48 <BpGetBoardIds+0x24>
80409c5c:	24c60001 	addiu	a2,a2,1
80409c60:	a0c00000 	sb	zero,0(a2)
80409c64:	24e70004 	addiu	a3,a3,4
80409c68:	8ce20000 	lw	v0,0(a3)
80409c6c:	25080001 	addiu	t0,t0,1
80409c70:	24a5ffff 	addiu	a1,a1,-1
80409c74:	1440fff0 	bnez	v0,80409c38 <BpGetBoardIds+0x14>
80409c78:	24840010 	addiu	a0,a0,16
80409c7c:	03e00008 	jr	ra
80409c80:	01001021 	move	v0,t0

80409c84 <BpGetEthernetMacInfo>:
80409c84:	8f8280e8 	lw	v0,-32536(gp)
80409c88:	1040001c 	beqz	v0,80409cfc <BpGetEthernetMacInfo+0x78>
80409c8c:	0005182a 	slt	v1,zero,a1
80409c90:	10600018 	beqz	v1,80409cf4 <BpGetEthernetMacInfo+0x70>
80409c94:	00003821 	move	a3,zero
80409c98:	00004821 	move	t1,zero
80409c9c:	28e20002 	slti	v0,a3,2
80409ca0:	1040000e 	beqz	v0,80409cdc <BpGetEthernetMacInfo+0x58>
80409ca4:	8f8280e8 	lw	v0,-32536(gp)
80409ca8:	00803021 	move	a2,a0
80409cac:	24080011 	li	t0,17
80409cb0:	00491021 	addu	v0,v0,t1
80409cb4:	24430010 	addiu	v1,v0,16
80409cb8:	240affff 	li	t2,-1
80409cbc:	90620000 	lbu	v0,0(v1)
80409cc0:	2508ffff 	addiu	t0,t0,-1
80409cc4:	24630001 	addiu	v1,v1,1
80409cc8:	a0c20000 	sb	v0,0(a2)
80409ccc:	150afffb 	bne	t0,t2,80409cbc <BpGetEthernetMacInfo+0x38>
80409cd0:	24c60001 	addiu	a2,a2,1
80409cd4:	08102739 	j	80409ce4 <BpGetEthernetMacInfo+0x60>
80409cd8:	24e70001 	addiu	a3,a3,1
80409cdc:	a0800000 	sb	zero,0(a0)
80409ce0:	24e70001 	addiu	a3,a3,1
80409ce4:	00e5102a 	slt	v0,a3,a1
80409ce8:	25290012 	addiu	t1,t1,18
80409cec:	1440ffeb 	bnez	v0,80409c9c <BpGetEthernetMacInfo+0x18>
80409cf0:	24840012 	addiu	a0,a0,18
80409cf4:	03e00008 	jr	ra
80409cf8:	00001021 	move	v0,zero
80409cfc:	10600006 	beqz	v1,80409d18 <BpGetEthernetMacInfo+0x94>
80409d00:	00000000 	nop
80409d04:	00a03821 	move	a3,a1
80409d08:	24e7ffff 	addiu	a3,a3,-1
80409d0c:	a0800000 	sb	zero,0(a0)
80409d10:	14e0fffd 	bnez	a3,80409d08 <BpGetEthernetMacInfo+0x84>
80409d14:	24840012 	addiu	a0,a0,18
80409d18:	03e00008 	jr	ra
80409d1c:	24020003 	li	v0,3

80409d20 <BpGetSdramSize>:
80409d20:	8f8280e8 	lw	v0,-32536(gp)
80409d24:	10400004 	beqz	v0,80409d38 <BpGetSdramSize+0x18>
80409d28:	00001821 	move	v1,zero
80409d2c:	9442004c 	lhu	v0,76(v0)
80409d30:	08102751 	j	80409d44 <BpGetSdramSize+0x24>
80409d34:	ac820000 	sw	v0,0(a0)
80409d38:	3402ffff 	li	v0,0xffff
80409d3c:	ac820000 	sw	v0,0(a0)
80409d40:	24030003 	li	v1,3
80409d44:	03e00008 	jr	ra
80409d48:	00601021 	move	v0,v1

80409d4c <BpGetPsiSize>:
80409d4c:	8f8280e8 	lw	v0,-32536(gp)
80409d50:	10400004 	beqz	v0,80409d64 <BpGetPsiSize+0x18>
80409d54:	00001821 	move	v1,zero
80409d58:	9442004e 	lhu	v0,78(v0)
80409d5c:	0810275c 	j	80409d70 <BpGetPsiSize+0x24>
80409d60:	ac820000 	sw	v0,0(a0)
80409d64:	3402ffff 	li	v0,0xffff
80409d68:	ac820000 	sw	v0,0(a0)
80409d6c:	24030003 	li	v1,3
80409d70:	03e00008 	jr	ra
80409d74:	00601021 	move	v0,v1

80409d78 <BpGetRj11InnerOuterPairGpios>:
80409d78:	8f8380e8 	lw	v1,-32536(gp)
80409d7c:	2402ffff 	li	v0,-1
80409d80:	1060000d 	beqz	v1,80409db8 <BpGetRj11InnerOuterPairGpios+0x40>
80409d84:	3407ffff 	li	a3,0xffff
80409d88:	94620050 	lhu	v0,80(v1)
80409d8c:	a4820000 	sh	v0,0(a0)
80409d90:	94620052 	lhu	v0,82(v1)
80409d94:	a4a20000 	sh	v0,0(a1)
80409d98:	94620050 	lhu	v0,80(v1)
80409d9c:	10470004 	beq	v0,a3,80409db0 <BpGetRj11InnerOuterPairGpios+0x38>
80409da0:	00003021 	move	a2,zero
80409da4:	94620052 	lhu	v0,82(v1)
80409da8:	14470006 	bne	v0,a3,80409dc4 <BpGetRj11InnerOuterPairGpios+0x4c>
80409dac:	00000000 	nop
80409db0:	08102771 	j	80409dc4 <BpGetRj11InnerOuterPairGpios+0x4c>
80409db4:	24060002 	li	a2,2
80409db8:	a4a20000 	sh	v0,0(a1)
80409dbc:	24060003 	li	a2,3
80409dc0:	a4820000 	sh	v0,0(a0)
80409dc4:	03e00008 	jr	ra
80409dc8:	00c01021 	move	v0,a2

80409dcc <BpGetPressAndHoldResetGpio>:
80409dcc:	8f8380e8 	lw	v1,-32536(gp)
80409dd0:	10600009 	beqz	v1,80409df8 <BpGetPressAndHoldResetGpio+0x2c>
80409dd4:	00000000 	nop
80409dd8:	94620054 	lhu	v0,84(v1)
80409ddc:	a4820000 	sh	v0,0(a0)
80409de0:	94620054 	lhu	v0,84(v1)
80409de4:	24030002 	li	v1,2
80409de8:	3842ffff 	xori	v0,v0,0xffff
80409dec:	0002180b 	movn	v1,zero,v0
80409df0:	03e00008 	jr	ra
80409df4:	00601021 	move	v0,v1
80409df8:	2402ffff 	li	v0,-1
80409dfc:	a4820000 	sh	v0,0(a0)
80409e00:	03e00008 	jr	ra
80409e04:	24020003 	li	v0,3

80409e08 <BpGetVoipResetGpio>:
80409e08:	8f8280e8 	lw	v0,-32536(gp)
80409e0c:	27bdffe8 	addiu	sp,sp,-24
80409e10:	afb00010 	sw	s0,16(sp)
80409e14:	afbf0014 	sw	ra,20(sp)
80409e18:	00a08021 	move	s0,a1
80409e1c:	1040000e 	beqz	v0,80409e58 <BpGetVoipResetGpio+0x50>
80409e20:	308400ff 	andi	a0,a0,0xff
80409e24:	0c1026c8 	jal	80409b20 <BpGetVoipDspConfig>
80409e28:	00000000 	nop
80409e2c:	10400007 	beqz	v0,80409e4c <BpGetVoipResetGpio+0x44>
80409e30:	24030001 	li	v1,1
80409e34:	94420004 	lhu	v0,4(v0)
80409e38:	24040002 	li	a0,2
80409e3c:	3843ffff 	xori	v1,v0,0xffff
80409e40:	0003200b 	movn	a0,zero,v1
80409e44:	08102794 	j	80409e50 <BpGetVoipResetGpio+0x48>
80409e48:	00801821 	move	v1,a0
80409e4c:	2402ffff 	li	v0,-1
80409e50:	08102799 	j	80409e64 <BpGetVoipResetGpio+0x5c>
80409e54:	a6020000 	sh	v0,0(s0)
80409e58:	2402ffff 	li	v0,-1
80409e5c:	a4a20000 	sh	v0,0(a1)
80409e60:	24030003 	li	v1,3
80409e64:	8fbf0014 	lw	ra,20(sp)
80409e68:	8fb00010 	lw	s0,16(sp)
80409e6c:	00601021 	move	v0,v1
80409e70:	03e00008 	jr	ra
80409e74:	27bd0018 	addiu	sp,sp,24

80409e78 <BpGetVoipIntrGpio>:
80409e78:	8f8280e8 	lw	v0,-32536(gp)
80409e7c:	27bdffe8 	addiu	sp,sp,-24
80409e80:	afb00010 	sw	s0,16(sp)
80409e84:	afbf0014 	sw	ra,20(sp)
80409e88:	00a08021 	move	s0,a1
80409e8c:	1040000e 	beqz	v0,80409ec8 <BpGetVoipIntrGpio+0x50>
80409e90:	308400ff 	andi	a0,a0,0xff
80409e94:	0c1026c8 	jal	80409b20 <BpGetVoipDspConfig>
80409e98:	00000000 	nop
80409e9c:	10400007 	beqz	v0,80409ebc <BpGetVoipIntrGpio+0x44>
80409ea0:	24030001 	li	v1,1
80409ea4:	94420006 	lhu	v0,6(v0)
80409ea8:	24040002 	li	a0,2
80409eac:	3843ffff 	xori	v1,v0,0xffff
80409eb0:	0003200b 	movn	a0,zero,v1
80409eb4:	081027b0 	j	80409ec0 <BpGetVoipIntrGpio+0x48>
80409eb8:	00801821 	move	v1,a0
80409ebc:	2402ffff 	li	v0,-1
80409ec0:	081027b5 	j	80409ed4 <BpGetVoipIntrGpio+0x5c>
80409ec4:	a6020000 	sh	v0,0(s0)
80409ec8:	2402ffff 	li	v0,-1
80409ecc:	a4a20000 	sh	v0,0(a1)
80409ed0:	24030003 	li	v1,3
80409ed4:	8fbf0014 	lw	ra,20(sp)
80409ed8:	8fb00010 	lw	s0,16(sp)
80409edc:	00601021 	move	v0,v1
80409ee0:	03e00008 	jr	ra
80409ee4:	27bd0018 	addiu	sp,sp,24

80409ee8 <BpGetRtsCtsUartGpios>:
80409ee8:	8f8380e8 	lw	v1,-32536(gp)
80409eec:	2402ffff 	li	v0,-1
80409ef0:	1060000d 	beqz	v1,80409f28 <BpGetRtsCtsUartGpios+0x40>
80409ef4:	3407ffff 	li	a3,0xffff
80409ef8:	94620056 	lhu	v0,86(v1)
80409efc:	a4820000 	sh	v0,0(a0)
80409f00:	94620058 	lhu	v0,88(v1)
80409f04:	a4a20000 	sh	v0,0(a1)
80409f08:	94620056 	lhu	v0,86(v1)
80409f0c:	10470004 	beq	v0,a3,80409f20 <BpGetRtsCtsUartGpios+0x38>
80409f10:	00003021 	move	a2,zero
80409f14:	94620058 	lhu	v0,88(v1)
80409f18:	14470006 	bne	v0,a3,80409f34 <BpGetRtsCtsUartGpios+0x4c>
80409f1c:	00000000 	nop
80409f20:	081027cd 	j	80409f34 <BpGetRtsCtsUartGpios+0x4c>
80409f24:	24060002 	li	a2,2
80409f28:	a4a20000 	sh	v0,0(a1)
80409f2c:	24060003 	li	a2,3
80409f30:	a4820000 	sh	v0,0(a0)
80409f34:	03e00008 	jr	ra
80409f38:	00c01021 	move	v0,a2

80409f3c <BpGetAdslLedGpio>:
80409f3c:	8f8380e8 	lw	v1,-32536(gp)
80409f40:	10600009 	beqz	v1,80409f68 <BpGetAdslLedGpio+0x2c>
80409f44:	00000000 	nop
80409f48:	9462005a 	lhu	v0,90(v1)
80409f4c:	a4820000 	sh	v0,0(a0)
80409f50:	9462005a 	lhu	v0,90(v1)
80409f54:	24030002 	li	v1,2
80409f58:	3842ffff 	xori	v0,v0,0xffff
80409f5c:	0002180b 	movn	v1,zero,v0
80409f60:	03e00008 	jr	ra
80409f64:	00601021 	move	v0,v1
80409f68:	2402ffff 	li	v0,-1
80409f6c:	a4820000 	sh	v0,0(a0)
80409f70:	03e00008 	jr	ra
80409f74:	24020003 	li	v0,3

80409f78 <BpGetAdslFailLedGpio>:
80409f78:	8f8380e8 	lw	v1,-32536(gp)
80409f7c:	10600009 	beqz	v1,80409fa4 <BpGetAdslFailLedGpio+0x2c>
80409f80:	00000000 	nop
80409f84:	9462005c 	lhu	v0,92(v1)
80409f88:	a4820000 	sh	v0,0(a0)
80409f8c:	9462005c 	lhu	v0,92(v1)
80409f90:	24030002 	li	v1,2
80409f94:	3842ffff 	xori	v0,v0,0xffff
80409f98:	0002180b 	movn	v1,zero,v0
80409f9c:	03e00008 	jr	ra
80409fa0:	00601021 	move	v0,v1
80409fa4:	2402ffff 	li	v0,-1
80409fa8:	a4820000 	sh	v0,0(a0)
80409fac:	03e00008 	jr	ra
80409fb0:	24020003 	li	v0,3

80409fb4 <BpGetWirelessLedGpio>:
80409fb4:	8f8380e8 	lw	v1,-32536(gp)
80409fb8:	10600009 	beqz	v1,80409fe0 <BpGetWirelessLedGpio+0x2c>
80409fbc:	00000000 	nop
80409fc0:	9462005e 	lhu	v0,94(v1)
80409fc4:	a4820000 	sh	v0,0(a0)
80409fc8:	9462005e 	lhu	v0,94(v1)
80409fcc:	24030002 	li	v1,2
80409fd0:	3842ffff 	xori	v0,v0,0xffff
80409fd4:	0002180b 	movn	v1,zero,v0
80409fd8:	03e00008 	jr	ra
80409fdc:	00601021 	move	v0,v1
80409fe0:	2402ffff 	li	v0,-1
80409fe4:	a4820000 	sh	v0,0(a0)
80409fe8:	03e00008 	jr	ra
80409fec:	24020003 	li	v0,3

80409ff0 <BpGetWirelessAntInUse>:
80409ff0:	8f8380e8 	lw	v1,-32536(gp)
80409ff4:	10600009 	beqz	v1,8040a01c <BpGetWirelessAntInUse+0x2c>
80409ff8:	00000000 	nop
80409ffc:	94620076 	lhu	v0,118(v1)
8040a000:	a4820000 	sh	v0,0(a0)
8040a004:	94620076 	lhu	v0,118(v1)
8040a008:	24030002 	li	v1,2
8040a00c:	3842ffff 	xori	v0,v0,0xffff
8040a010:	0002180b 	movn	v1,zero,v0
8040a014:	03e00008 	jr	ra
8040a018:	00601021 	move	v0,v1
8040a01c:	2402ffff 	li	v0,-1
8040a020:	a4820000 	sh	v0,0(a0)
8040a024:	03e00008 	jr	ra
8040a028:	24020003 	li	v0,3

8040a02c <BpGetWirelessSesBtnGpio>:
8040a02c:	8f8380e8 	lw	v1,-32536(gp)
8040a030:	10600009 	beqz	v1,8040a058 <BpGetWirelessSesBtnGpio+0x2c>
8040a034:	00000000 	nop
8040a038:	94620078 	lhu	v0,120(v1)
8040a03c:	a4820000 	sh	v0,0(a0)
8040a040:	94620078 	lhu	v0,120(v1)
8040a044:	24030002 	li	v1,2
8040a048:	3842ffff 	xori	v0,v0,0xffff
8040a04c:	0002180b 	movn	v1,zero,v0
8040a050:	03e00008 	jr	ra
8040a054:	00601021 	move	v0,v1
8040a058:	2402ffff 	li	v0,-1
8040a05c:	a4820000 	sh	v0,0(a0)
8040a060:	03e00008 	jr	ra
8040a064:	24020003 	li	v0,3

8040a068 <BpGetWirelessSesExtIntr>:
8040a068:	8f8380e8 	lw	v1,-32536(gp)
8040a06c:	10600009 	beqz	v1,8040a094 <BpGetWirelessSesExtIntr+0x2c>
8040a070:	00000000 	nop
8040a074:	9462007a 	lhu	v0,122(v1)
8040a078:	a4820000 	sh	v0,0(a0)
8040a07c:	9462007a 	lhu	v0,122(v1)
8040a080:	24030002 	li	v1,2
8040a084:	3842ffff 	xori	v0,v0,0xffff
8040a088:	0002180b 	movn	v1,zero,v0
8040a08c:	03e00008 	jr	ra
8040a090:	00601021 	move	v0,v1
8040a094:	2402ffff 	li	v0,-1
8040a098:	a4820000 	sh	v0,0(a0)
8040a09c:	03e00008 	jr	ra
8040a0a0:	24020003 	li	v0,3

8040a0a4 <BpGetWirelessSesLedGpio>:
8040a0a4:	8f8380e8 	lw	v1,-32536(gp)
8040a0a8:	10600009 	beqz	v1,8040a0d0 <BpGetWirelessSesLedGpio+0x2c>
8040a0ac:	00000000 	nop
8040a0b0:	9462007c 	lhu	v0,124(v1)
8040a0b4:	a4820000 	sh	v0,0(a0)
8040a0b8:	9462007c 	lhu	v0,124(v1)
8040a0bc:	24030002 	li	v1,2
8040a0c0:	3842ffff 	xori	v0,v0,0xffff
8040a0c4:	0002180b 	movn	v1,zero,v0
8040a0c8:	03e00008 	jr	ra
8040a0cc:	00601021 	move	v0,v1
8040a0d0:	2402ffff 	li	v0,-1
8040a0d4:	a4820000 	sh	v0,0(a0)
8040a0d8:	03e00008 	jr	ra
8040a0dc:	24020003 	li	v0,3

8040a0e0 <BpGetUsbLedGpio>:
8040a0e0:	8f8380e8 	lw	v1,-32536(gp)
8040a0e4:	10600009 	beqz	v1,8040a10c <BpGetUsbLedGpio+0x2c>
8040a0e8:	00000000 	nop
8040a0ec:	94620060 	lhu	v0,96(v1)
8040a0f0:	a4820000 	sh	v0,0(a0)
8040a0f4:	94620060 	lhu	v0,96(v1)
8040a0f8:	24030002 	li	v1,2
8040a0fc:	3842ffff 	xori	v0,v0,0xffff
8040a100:	0002180b 	movn	v1,zero,v0
8040a104:	03e00008 	jr	ra
8040a108:	00601021 	move	v0,v1
8040a10c:	2402ffff 	li	v0,-1
8040a110:	a4820000 	sh	v0,0(a0)
8040a114:	03e00008 	jr	ra
8040a118:	24020003 	li	v0,3

8040a11c <BpGetHpnaLedGpio>:
8040a11c:	8f8380e8 	lw	v1,-32536(gp)
8040a120:	10600009 	beqz	v1,8040a148 <BpGetHpnaLedGpio+0x2c>
8040a124:	00000000 	nop
8040a128:	94620062 	lhu	v0,98(v1)
8040a12c:	a4820000 	sh	v0,0(a0)
8040a130:	94620062 	lhu	v0,98(v1)
8040a134:	24030002 	li	v1,2
8040a138:	3842ffff 	xori	v0,v0,0xffff
8040a13c:	0002180b 	movn	v1,zero,v0
8040a140:	03e00008 	jr	ra
8040a144:	00601021 	move	v0,v1
8040a148:	2402ffff 	li	v0,-1
8040a14c:	a4820000 	sh	v0,0(a0)
8040a150:	03e00008 	jr	ra
8040a154:	24020003 	li	v0,3

8040a158 <BpGetWanDataLedGpio>:
8040a158:	8f8380e8 	lw	v1,-32536(gp)
8040a15c:	10600009 	beqz	v1,8040a184 <BpGetWanDataLedGpio+0x2c>
8040a160:	00000000 	nop
8040a164:	94620064 	lhu	v0,100(v1)
8040a168:	a4820000 	sh	v0,0(a0)
8040a16c:	94620064 	lhu	v0,100(v1)
8040a170:	24030002 	li	v1,2
8040a174:	3842ffff 	xori	v0,v0,0xffff
8040a178:	0002180b 	movn	v1,zero,v0
8040a17c:	03e00008 	jr	ra
8040a180:	00601021 	move	v0,v1
8040a184:	2402ffff 	li	v0,-1
8040a188:	a4820000 	sh	v0,0(a0)
8040a18c:	03e00008 	jr	ra
8040a190:	24020003 	li	v0,3

8040a194 <BpGetPppLedGpio>:
8040a194:	8f8380e8 	lw	v1,-32536(gp)
8040a198:	10600009 	beqz	v1,8040a1c0 <BpGetPppLedGpio+0x2c>
8040a19c:	00000000 	nop
8040a1a0:	94620066 	lhu	v0,102(v1)
8040a1a4:	a4820000 	sh	v0,0(a0)
8040a1a8:	94620066 	lhu	v0,102(v1)
8040a1ac:	24030002 	li	v1,2
8040a1b0:	3842ffff 	xori	v0,v0,0xffff
8040a1b4:	0002180b 	movn	v1,zero,v0
8040a1b8:	03e00008 	jr	ra
8040a1bc:	00601021 	move	v0,v1
8040a1c0:	2402ffff 	li	v0,-1
8040a1c4:	a4820000 	sh	v0,0(a0)
8040a1c8:	03e00008 	jr	ra
8040a1cc:	24020003 	li	v0,3

8040a1d0 <BpGetPppFailLedGpio>:
8040a1d0:	8f8380e8 	lw	v1,-32536(gp)
8040a1d4:	10600009 	beqz	v1,8040a1fc <BpGetPppFailLedGpio+0x2c>
8040a1d8:	00000000 	nop
8040a1dc:	94620068 	lhu	v0,104(v1)
8040a1e0:	a4820000 	sh	v0,0(a0)
8040a1e4:	94620068 	lhu	v0,104(v1)
8040a1e8:	24030002 	li	v1,2
8040a1ec:	3842ffff 	xori	v0,v0,0xffff
8040a1f0:	0002180b 	movn	v1,zero,v0
8040a1f4:	03e00008 	jr	ra
8040a1f8:	00601021 	move	v0,v1
8040a1fc:	2402ffff 	li	v0,-1
8040a200:	a4820000 	sh	v0,0(a0)
8040a204:	03e00008 	jr	ra
8040a208:	24020003 	li	v0,3

8040a20c <BpGetBootloaderPowerOnLedGpio>:
8040a20c:	8f8380e8 	lw	v1,-32536(gp)
8040a210:	10600009 	beqz	v1,8040a238 <BpGetBootloaderPowerOnLedGpio+0x2c>
8040a214:	00000000 	nop
8040a218:	9462006a 	lhu	v0,106(v1)
8040a21c:	a4820000 	sh	v0,0(a0)
8040a220:	9462006a 	lhu	v0,106(v1)
8040a224:	24030002 	li	v1,2
8040a228:	3842ffff 	xori	v0,v0,0xffff
8040a22c:	0002180b 	movn	v1,zero,v0
8040a230:	03e00008 	jr	ra
8040a234:	00601021 	move	v0,v1
8040a238:	2402ffff 	li	v0,-1
8040a23c:	a4820000 	sh	v0,0(a0)
8040a240:	03e00008 	jr	ra
8040a244:	24020003 	li	v0,3

8040a248 <BpGetBootloaderResetCfgLedGpio>:
8040a248:	8f8380e8 	lw	v1,-32536(gp)
8040a24c:	10600009 	beqz	v1,8040a274 <BpGetBootloaderResetCfgLedGpio+0x2c>
8040a250:	00000000 	nop
8040a254:	9462006c 	lhu	v0,108(v1)
8040a258:	a4820000 	sh	v0,0(a0)
8040a25c:	9462006c 	lhu	v0,108(v1)
8040a260:	24030002 	li	v1,2
8040a264:	3842ffff 	xori	v0,v0,0xffff
8040a268:	0002180b 	movn	v1,zero,v0
8040a26c:	03e00008 	jr	ra
8040a270:	00601021 	move	v0,v1
8040a274:	2402ffff 	li	v0,-1
8040a278:	a4820000 	sh	v0,0(a0)
8040a27c:	03e00008 	jr	ra
8040a280:	24020003 	li	v0,3

8040a284 <BpGetBootloaderStopLedGpio>:
8040a284:	8f8380e8 	lw	v1,-32536(gp)
8040a288:	10600009 	beqz	v1,8040a2b0 <BpGetBootloaderStopLedGpio+0x2c>
8040a28c:	00000000 	nop
8040a290:	9462006e 	lhu	v0,110(v1)
8040a294:	a4820000 	sh	v0,0(a0)
8040a298:	9462006e 	lhu	v0,110(v1)
8040a29c:	24030002 	li	v1,2
8040a2a0:	3842ffff 	xori	v0,v0,0xffff
8040a2a4:	0002180b 	movn	v1,zero,v0
8040a2a8:	03e00008 	jr	ra
8040a2ac:	00601021 	move	v0,v1
8040a2b0:	2402ffff 	li	v0,-1
8040a2b4:	a4820000 	sh	v0,0(a0)
8040a2b8:	03e00008 	jr	ra
8040a2bc:	24020003 	li	v0,3

8040a2c0 <BpGetVoipLedGpio>:
8040a2c0:	8f8280e8 	lw	v0,-32536(gp)
8040a2c4:	27bdffe8 	addiu	sp,sp,-24
8040a2c8:	afb00010 	sw	s0,16(sp)
8040a2cc:	afbf0014 	sw	ra,20(sp)
8040a2d0:	00808021 	move	s0,a0
8040a2d4:	1040000e 	beqz	v0,8040a310 <BpGetVoipLedGpio+0x50>
8040a2d8:	00002021 	move	a0,zero
8040a2dc:	0c1026c8 	jal	80409b20 <BpGetVoipDspConfig>
8040a2e0:	00000000 	nop
8040a2e4:	10400007 	beqz	v0,8040a304 <BpGetVoipLedGpio+0x44>
8040a2e8:	24030001 	li	v1,1
8040a2ec:	94420008 	lhu	v0,8(v0)
8040a2f0:	24040002 	li	a0,2
8040a2f4:	3843ffff 	xori	v1,v0,0xffff
8040a2f8:	0003200b 	movn	a0,zero,v1
8040a2fc:	081028c2 	j	8040a308 <BpGetVoipLedGpio+0x48>
8040a300:	00801821 	move	v1,a0
8040a304:	2402ffff 	li	v0,-1
8040a308:	081028c7 	j	8040a31c <BpGetVoipLedGpio+0x5c>
8040a30c:	a6020000 	sh	v0,0(s0)
8040a310:	2402ffff 	li	v0,-1
8040a314:	a6020000 	sh	v0,0(s0)
8040a318:	24030003 	li	v1,3
8040a31c:	8fbf0014 	lw	ra,20(sp)
8040a320:	8fb00010 	lw	s0,16(sp)
8040a324:	00601021 	move	v0,v1
8040a328:	03e00008 	jr	ra
8040a32c:	27bd0018 	addiu	sp,sp,24

8040a330 <BpGetAdslDyingGaspExtIntr>:
8040a330:	8f8280e8 	lw	v0,-32536(gp)
8040a334:	10400007 	beqz	v0,8040a354 <BpGetAdslDyingGaspExtIntr+0x24>
8040a338:	00802821 	move	a1,a0
8040a33c:	94440070 	lhu	a0,112(v0)
8040a340:	24020002 	li	v0,2
8040a344:	3883ffff 	xori	v1,a0,0xffff
8040a348:	0003100b 	movn	v0,zero,v1
8040a34c:	03e00008 	jr	ra
8040a350:	aca40000 	sw	a0,0(a1)
8040a354:	3402ffff 	li	v0,0xffff
8040a358:	ac820000 	sw	v0,0(a0)
8040a35c:	03e00008 	jr	ra
8040a360:	24020003 	li	v0,3

8040a364 <BpGetVoipExtIntr>:
8040a364:	8f8280e8 	lw	v0,-32536(gp)
8040a368:	27bdffe8 	addiu	sp,sp,-24
8040a36c:	afb00010 	sw	s0,16(sp)
8040a370:	afbf0014 	sw	ra,20(sp)
8040a374:	00a08021 	move	s0,a1
8040a378:	1040000f 	beqz	v0,8040a3b8 <BpGetVoipExtIntr+0x54>
8040a37c:	308400ff 	andi	a0,a0,0xff
8040a380:	0c1026c8 	jal	80409b20 <BpGetVoipDspConfig>
8040a384:	00000000 	nop
8040a388:	10400008 	beqz	v0,8040a3ac <BpGetVoipExtIntr+0x48>
8040a38c:	24030001 	li	v1,1
8040a390:	94440002 	lhu	a0,2(v0)
8040a394:	24020002 	li	v0,2
8040a398:	3883ffff 	xori	v1,a0,0xffff
8040a39c:	0003100b 	movn	v0,zero,v1
8040a3a0:	00401821 	move	v1,v0
8040a3a4:	081028f1 	j	8040a3c4 <BpGetVoipExtIntr+0x60>
8040a3a8:	ae040000 	sw	a0,0(s0)
8040a3ac:	3402ffff 	li	v0,0xffff
8040a3b0:	081028f1 	j	8040a3c4 <BpGetVoipExtIntr+0x60>
8040a3b4:	ae020000 	sw	v0,0(s0)
8040a3b8:	3402ffff 	li	v0,0xffff
8040a3bc:	aca20000 	sw	v0,0(a1)
8040a3c0:	24030003 	li	v1,3
8040a3c4:	8fbf0014 	lw	ra,20(sp)
8040a3c8:	8fb00010 	lw	s0,16(sp)
8040a3cc:	00601021 	move	v0,v1
8040a3d0:	03e00008 	jr	ra
8040a3d4:	27bd0018 	addiu	sp,sp,24

8040a3d8 <BpGetHpnaExtIntr>:
8040a3d8:	8f8280e8 	lw	v0,-32536(gp)
8040a3dc:	10400007 	beqz	v0,8040a3fc <BpGetHpnaExtIntr+0x24>
8040a3e0:	00802821 	move	a1,a0
8040a3e4:	94440072 	lhu	a0,114(v0)
8040a3e8:	24020002 	li	v0,2
8040a3ec:	3883ffff 	xori	v1,a0,0xffff
8040a3f0:	0003100b 	movn	v0,zero,v1
8040a3f4:	03e00008 	jr	ra
8040a3f8:	aca40000 	sw	a0,0(a1)
8040a3fc:	3402ffff 	li	v0,0xffff
8040a400:	ac820000 	sw	v0,0(a0)
8040a404:	03e00008 	jr	ra
8040a408:	24020003 	li	v0,3

8040a40c <BpGetHpnaChipSelect>:
8040a40c:	8f8280e8 	lw	v0,-32536(gp)
8040a410:	10400007 	beqz	v0,8040a430 <BpGetHpnaChipSelect+0x24>
8040a414:	00802821 	move	a1,a0
8040a418:	94440074 	lhu	a0,116(v0)
8040a41c:	24020002 	li	v0,2
8040a420:	3883ffff 	xori	v1,a0,0xffff
8040a424:	0003100b 	movn	v0,zero,v1
8040a428:	03e00008 	jr	ra
8040a42c:	aca40000 	sw	a0,0(a1)
8040a430:	3402ffff 	li	v0,0xffff
8040a434:	ac820000 	sw	v0,0(a0)
8040a438:	03e00008 	jr	ra
8040a43c:	24020003 	li	v0,3

8040a440 <BpGetVoipChipSelect>:
8040a440:	8f8280e8 	lw	v0,-32536(gp)
8040a444:	27bdffe8 	addiu	sp,sp,-24
8040a448:	afb00010 	sw	s0,16(sp)
8040a44c:	afbf0014 	sw	ra,20(sp)
8040a450:	00a08021 	move	s0,a1
8040a454:	1040000f 	beqz	v0,8040a494 <BpGetVoipChipSelect+0x54>
8040a458:	308400ff 	andi	a0,a0,0xff
8040a45c:	0c1026c8 	jal	80409b20 <BpGetVoipDspConfig>
8040a460:	00000000 	nop
8040a464:	10400008 	beqz	v0,8040a488 <BpGetVoipChipSelect+0x48>
8040a468:	24030001 	li	v1,1
8040a46c:	9444000a 	lhu	a0,10(v0)
8040a470:	24020002 	li	v0,2
8040a474:	3883ffff 	xori	v1,a0,0xffff
8040a478:	0003100b 	movn	v0,zero,v1
8040a47c:	00401821 	move	v1,v0
8040a480:	08102928 	j	8040a4a0 <BpGetVoipChipSelect+0x60>
8040a484:	ae040000 	sw	a0,0(s0)
8040a488:	3402ffff 	li	v0,0xffff
8040a48c:	08102928 	j	8040a4a0 <BpGetVoipChipSelect+0x60>
8040a490:	ae020000 	sw	v0,0(s0)
8040a494:	3402ffff 	li	v0,0xffff
8040a498:	aca20000 	sw	v0,0(a1)
8040a49c:	24030003 	li	v1,3
8040a4a0:	8fbf0014 	lw	ra,20(sp)
8040a4a4:	8fb00010 	lw	s0,16(sp)
8040a4a8:	00601021 	move	v0,v1
8040a4ac:	03e00008 	jr	ra
8040a4b0:	27bd0018 	addiu	sp,sp,24

8040a4b4 <BpGetCMTThread>:
8040a4b4:	8f8280e8 	lw	v0,-32536(gp)
8040a4b8:	10400007 	beqz	v0,8040a4d8 <BpGetCMTThread+0x24>
8040a4bc:	00802821 	move	a1,a0
8040a4c0:	94440086 	lhu	a0,134(v0)
8040a4c4:	24020002 	li	v0,2
8040a4c8:	3883ffff 	xori	v1,a0,0xffff
8040a4cc:	0003100b 	movn	v0,zero,v1
8040a4d0:	03e00008 	jr	ra
8040a4d4:	aca40000 	sw	a0,0(a1)
8040a4d8:	3402ffff 	li	v0,0xffff
8040a4dc:	ac820000 	sw	v0,0(a0)
8040a4e0:	03e00008 	jr	ra
8040a4e4:	24020003 	li	v0,3

8040a4e8 <BpGetVcopeGpio>:
8040a4e8:	8f8380e8 	lw	v1,-32536(gp)
8040a4ec:	10600014 	beqz	v1,8040a540 <BpGetVcopeGpio+0x58>
8040a4f0:	3405ffff 	li	a1,0xffff
8040a4f4:	24020001 	li	v0,1
8040a4f8:	14820003 	bne	a0,v0,8040a508 <BpGetVcopeGpio+0x20>
8040a4fc:	00000000 	nop
8040a500:	08102950 	j	8040a540 <BpGetVcopeGpio+0x58>
8040a504:	94650080 	lhu	a1,128(v1)
8040a508:	24020002 	li	v0,2
8040a50c:	14820003 	bne	a0,v0,8040a51c <BpGetVcopeGpio+0x34>
8040a510:	00000000 	nop
8040a514:	08102950 	j	8040a540 <BpGetVcopeGpio+0x58>
8040a518:	94650082 	lhu	a1,130(v1)
8040a51c:	24020003 	li	v0,3
8040a520:	14820003 	bne	a0,v0,8040a530 <BpGetVcopeGpio+0x48>
8040a524:	00000000 	nop
8040a528:	08102950 	j	8040a540 <BpGetVcopeGpio+0x58>
8040a52c:	9465007e 	lhu	a1,126(v1)
8040a530:	24020004 	li	v0,4
8040a534:	14820002 	bne	a0,v0,8040a540 <BpGetVcopeGpio+0x58>
8040a538:	3405ffff 	li	a1,0xffff
8040a53c:	94650084 	lhu	a1,132(v1)
8040a540:	03e00008 	jr	ra
8040a544:	00a01021 	move	v0,a1

8040a548 <cfi_flash_get_memptr>:
8040a548:	3084ffff 	andi	a0,a0,0xffff
8040a54c:	00042840 	sll	a1,a0,0x1
8040a550:	3c02fffe 	lui	v0,0xfffe
8040a554:	00a42821 	addu	a1,a1,a0
8040a558:	34422000 	ori	v0,v0,0x2000
8040a55c:	3c038042 	lui	v1,0x8042
8040a560:	8c420000 	lw	v0,0(v0)
8040a564:	2463ee60 	addiu	v1,v1,-4512
8040a568:	00052880 	sll	a1,a1,0x2
8040a56c:	00a32821 	addu	a1,a1,v1
8040a570:	8ca4001c 	lw	a0,28(a1)
8040a574:	2403ff00 	li	v1,-256
8040a578:	00431024 	and	v0,v0,v1
8040a57c:	3c03a000 	lui	v1,0xa000
8040a580:	00431025 	or	v0,v0,v1
8040a584:	03e00008 	jr	ra
8040a588:	00441021 	addu	v0,v0,a0

8040a58c <cfi_flash_command>:
8040a58c:	27bdffd8 	addiu	sp,sp,-40
8040a590:	afb10014 	sw	s1,20(sp)
8040a594:	00808821 	move	s1,a0
8040a598:	30a4ffff 	andi	a0,a1,0xffff
8040a59c:	afbf0020 	sw	ra,32(sp)
8040a5a0:	afb3001c 	sw	s3,28(sp)
8040a5a4:	afb20018 	sw	s2,24(sp)
8040a5a8:	30f3ffff 	andi	s3,a3,0xffff
8040a5ac:	afb00010 	sw	s0,16(sp)
8040a5b0:	0c102952 	jal	8040a548 <cfi_flash_get_memptr>
8040a5b4:	00c09021 	move	s2,a2
8040a5b8:	00002021 	move	a0,zero
8040a5bc:	0c102952 	jal	8040a548 <cfi_flash_get_memptr>
8040a5c0:	00408021 	move	s0,v0
8040a5c4:	8f8380f0 	lw	v1,-32528(gp)
8040a5c8:	24040001 	li	a0,1
8040a5cc:	1064002f 	beq	v1,a0,8040a68c <cfi_flash_command+0x100>
8040a5d0:	00403821 	move	a3,v0
8040a5d4:	28620002 	slti	v0,v1,2
8040a5d8:	10400005 	beqz	v0,8040a5f0 <cfi_flash_command+0x64>
8040a5dc:	00000000 	nop
8040a5e0:	1060000a 	beqz	v1,8040a60c <cfi_flash_command+0x80>
8040a5e4:	8fbf0020 	lw	ra,32(sp)
8040a5e8:	08102a31 	j	8040a8c4 <cfi_flash_command+0x338>
8040a5ec:	8fb3001c 	lw	s3,28(sp)
8040a5f0:	24020002 	li	v0,2
8040a5f4:	10620059 	beq	v1,v0,8040a75c <cfi_flash_command+0x1d0>
8040a5f8:	24020003 	li	v0,3
8040a5fc:	10620078 	beq	v1,v0,8040a7e0 <cfi_flash_command+0x254>
8040a600:	8fbf0020 	lw	ra,32(sp)
8040a604:	08102a31 	j	8040a8c4 <cfi_flash_command+0x338>
8040a608:	8fb3001c 	lw	s3,28(sp)
8040a60c:	12240010 	beq	s1,a0,8040a650 <cfi_flash_command+0xc4>
8040a610:	3c030001 	lui	v1,0x1
8040a614:	2a220002 	slti	v0,s1,2
8040a618:	10400005 	beqz	v0,8040a630 <cfi_flash_command+0xa4>
8040a61c:	00000000 	nop
8040a620:	12200008 	beqz	s1,8040a644 <cfi_flash_command+0xb8>
8040a624:	240200f0 	li	v0,240
8040a628:	08102a30 	j	8040a8c0 <cfi_flash_command+0x334>
8040a62c:	8fbf0020 	lw	ra,32(sp)
8040a630:	24020002 	li	v0,2
8040a634:	1222000e 	beq	s1,v0,8040a670 <cfi_flash_command+0xe4>
8040a638:	3c030001 	lui	v1,0x1
8040a63c:	08102a30 	j	8040a8c0 <cfi_flash_command+0x334>
8040a640:	8fbf0020 	lw	ra,32(sp)
8040a644:	a6020000 	sh	v0,0(s0)
8040a648:	08102a2e 	j	8040a8b8 <cfi_flash_command+0x32c>
8040a64c:	240200ff 	li	v0,255
8040a650:	240200aa 	li	v0,170
8040a654:	02031821 	addu	v1,s0,v1
8040a658:	a462aaaa 	sh	v0,-21846(v1)
8040a65c:	24020055 	li	v0,85
8040a660:	a6025554 	sh	v0,21844(s0)
8040a664:	08102a10 	j	8040a840 <cfi_flash_command+0x2b4>
8040a668:	24020090 	li	v0,144
8040a66c:	3c030001 	lui	v1,0x1
8040a670:	240200aa 	li	v0,170
8040a674:	00e31821 	addu	v1,a3,v1
8040a678:	a462aaaa 	sh	v0,-21846(v1)
8040a67c:	24020055 	li	v0,85
8040a680:	a4e25554 	sh	v0,21844(a3)
8040a684:	08102a10 	j	8040a840 <cfi_flash_command+0x2b4>
8040a688:	24020090 	li	v0,144
8040a68c:	2e220007 	sltiu	v0,s1,7
8040a690:	1040008b 	beqz	v0,8040a8c0 <cfi_flash_command+0x334>
8040a694:	8fbf0020 	lw	ra,32(sp)
8040a698:	3c038042 	lui	v1,0x8042
8040a69c:	00111080 	sll	v0,s1,0x2
8040a6a0:	24639638 	addiu	v1,v1,-27080
8040a6a4:	00431021 	addu	v0,v0,v1
8040a6a8:	8c420000 	lw	v0,0(v0)
8040a6ac:	00400008 	jr	v0
8040a6b0:	00000000 	nop
8040a6b4:	08102a2e 	j	8040a8b8 <cfi_flash_command+0x32c>
8040a6b8:	240200f0 	li	v0,240
8040a6bc:	240200aa 	li	v0,170
8040a6c0:	a6020aaa 	sh	v0,2730(s0)
8040a6c4:	24020055 	li	v0,85
8040a6c8:	a6020554 	sh	v0,1364(s0)
8040a6cc:	081029be 	j	8040a6f8 <cfi_flash_command+0x16c>
8040a6d0:	24020090 	li	v0,144
8040a6d4:	24020098 	li	v0,152
8040a6d8:	a60200aa 	sh	v0,170(s0)
8040a6dc:	08102a30 	j	8040a8c0 <cfi_flash_command+0x334>
8040a6e0:	8fbf0020 	lw	ra,32(sp)
8040a6e4:	240200aa 	li	v0,170
8040a6e8:	a6020aaa 	sh	v0,2730(s0)
8040a6ec:	24020055 	li	v0,85
8040a6f0:	a6020554 	sh	v0,1364(s0)
8040a6f4:	24020020 	li	v0,32
8040a6f8:	a6020aaa 	sh	v0,2730(s0)
8040a6fc:	08102a30 	j	8040a8c0 <cfi_flash_command+0x334>
8040a700:	8fbf0020 	lw	ra,32(sp)
8040a704:	001217c2 	srl	v0,s2,0x1f
8040a708:	02421021 	addu	v0,s2,v0
8040a70c:	00021043 	sra	v0,v0,0x1
8040a710:	00021040 	sll	v0,v0,0x1
8040a714:	00501021 	addu	v0,v0,s0
8040a718:	081029ed 	j	8040a7b4 <cfi_flash_command+0x228>
8040a71c:	240300a0 	li	v1,160
8040a720:	24020090 	li	v0,144
8040a724:	a6020000 	sh	v0,0(s0)
8040a728:	a6000000 	sh	zero,0(s0)
8040a72c:	08102a30 	j	8040a8c0 <cfi_flash_command+0x334>
8040a730:	8fbf0020 	lw	ra,32(sp)
8040a734:	240300aa 	li	v1,170
8040a738:	24040055 	li	a0,85
8040a73c:	24020080 	li	v0,128
8040a740:	a6030aaa 	sh	v1,2730(s0)
8040a744:	a6040554 	sh	a0,1364(s0)
8040a748:	a6020aaa 	sh	v0,2730(s0)
8040a74c:	a6030aaa 	sh	v1,2730(s0)
8040a750:	a6040554 	sh	a0,1364(s0)
8040a754:	08102a2e 	j	8040a8b8 <cfi_flash_command+0x32c>
8040a758:	24020030 	li	v0,48
8040a75c:	2e220007 	sltiu	v0,s1,7
8040a760:	10400057 	beqz	v0,8040a8c0 <cfi_flash_command+0x334>
8040a764:	8fbf0020 	lw	ra,32(sp)
8040a768:	3c038042 	lui	v1,0x8042
8040a76c:	00111080 	sll	v0,s1,0x2
8040a770:	24639654 	addiu	v1,v1,-27052
8040a774:	00431021 	addu	v0,v0,v1
8040a778:	8c420000 	lw	v0,0(v0)
8040a77c:	00400008 	jr	v0
8040a780:	00000000 	nop
8040a784:	08102a2e 	j	8040a8b8 <cfi_flash_command+0x32c>
8040a788:	240200ff 	li	v0,255
8040a78c:	08102a2e 	j	8040a8b8 <cfi_flash_command+0x32c>
8040a790:	24020090 	li	v0,144
8040a794:	08102a2e 	j	8040a8b8 <cfi_flash_command+0x32c>
8040a798:	24020098 	li	v0,152
8040a79c:	001217c2 	srl	v0,s2,0x1f
8040a7a0:	02421021 	addu	v0,s2,v0
8040a7a4:	00021043 	sra	v0,v0,0x1
8040a7a8:	00021040 	sll	v0,v0,0x1
8040a7ac:	00501021 	addu	v0,v0,s0
8040a7b0:	24030040 	li	v1,64
8040a7b4:	a6030000 	sh	v1,0(s0)
8040a7b8:	08102a20 	j	8040a880 <cfi_flash_command+0x2f4>
8040a7bc:	00000000 	nop
8040a7c0:	24030060 	li	v1,96
8040a7c4:	a6030000 	sh	v1,0(s0)
8040a7c8:	240200d0 	li	v0,208
8040a7cc:	24030020 	li	v1,32
8040a7d0:	a6020000 	sh	v0,0(s0)
8040a7d4:	a6030000 	sh	v1,0(s0)
8040a7d8:	08102a2e 	j	8040a8b8 <cfi_flash_command+0x32c>
8040a7dc:	00000000 	nop
8040a7e0:	2e220007 	sltiu	v0,s1,7
8040a7e4:	10400036 	beqz	v0,8040a8c0 <cfi_flash_command+0x334>
8040a7e8:	3c038042 	lui	v1,0x8042
8040a7ec:	00111080 	sll	v0,s1,0x2
8040a7f0:	24639670 	addiu	v1,v1,-27024
8040a7f4:	00431021 	addu	v0,v0,v1
8040a7f8:	8c420000 	lw	v0,0(v0)
8040a7fc:	00400008 	jr	v0
8040a800:	00000000 	nop
8040a804:	3c030001 	lui	v1,0x1
8040a808:	240200aa 	li	v0,170
8040a80c:	00e31821 	addu	v1,a3,v1
8040a810:	a462aaaa 	sh	v0,-21846(v1)
8040a814:	24020055 	li	v0,85
8040a818:	a4e25554 	sh	v0,21844(a3)
8040a81c:	08102a10 	j	8040a840 <cfi_flash_command+0x2b4>
8040a820:	240200f0 	li	v0,240
8040a824:	3c030001 	lui	v1,0x1
8040a828:	240200aa 	li	v0,170
8040a82c:	00e31821 	addu	v1,a3,v1
8040a830:	a462aaaa 	sh	v0,-21846(v1)
8040a834:	24020055 	li	v0,85
8040a838:	a4e25554 	sh	v0,21844(a3)
8040a83c:	24020098 	li	v0,152
8040a840:	a462aaaa 	sh	v0,-21846(v1)
8040a844:	08102a30 	j	8040a8c0 <cfi_flash_command+0x334>
8040a848:	8fbf0020 	lw	ra,32(sp)
8040a84c:	001217c2 	srl	v0,s2,0x1f
8040a850:	3c040001 	lui	a0,0x1
8040a854:	00e42021 	addu	a0,a3,a0
8040a858:	240300aa 	li	v1,170
8040a85c:	02421021 	addu	v0,s2,v0
8040a860:	a483aaaa 	sh	v1,-21846(a0)
8040a864:	00021043 	sra	v0,v0,0x1
8040a868:	24030055 	li	v1,85
8040a86c:	a4e35554 	sh	v1,21844(a3)
8040a870:	00021040 	sll	v0,v0,0x1
8040a874:	240300a0 	li	v1,160
8040a878:	00501021 	addu	v0,v0,s0
8040a87c:	a483aaaa 	sh	v1,-21846(a0)
8040a880:	a4530000 	sh	s3,0(v0)
8040a884:	08102a30 	j	8040a8c0 <cfi_flash_command+0x334>
8040a888:	8fbf0020 	lw	ra,32(sp)
8040a88c:	3c030001 	lui	v1,0x1
8040a890:	00e31821 	addu	v1,a3,v1
8040a894:	240400aa 	li	a0,170
8040a898:	24050055 	li	a1,85
8040a89c:	24020080 	li	v0,128
8040a8a0:	a464aaaa 	sh	a0,-21846(v1)
8040a8a4:	a4e55554 	sh	a1,21844(a3)
8040a8a8:	a462aaaa 	sh	v0,-21846(v1)
8040a8ac:	a464aaaa 	sh	a0,-21846(v1)
8040a8b0:	a4e55554 	sh	a1,21844(a3)
8040a8b4:	24020030 	li	v0,48
8040a8b8:	a6020000 	sh	v0,0(s0)
8040a8bc:	8fbf0020 	lw	ra,32(sp)
8040a8c0:	8fb3001c 	lw	s3,28(sp)
8040a8c4:	8fb20018 	lw	s2,24(sp)
8040a8c8:	8fb10014 	lw	s1,20(sp)
8040a8cc:	8fb00010 	lw	s0,16(sp)
8040a8d0:	03e00008 	jr	ra
8040a8d4:	27bd0028 	addiu	sp,sp,40

8040a8d8 <cfi_flash_wait>:
8040a8d8:	27bdffe8 	addiu	sp,sp,-24
8040a8dc:	afbf0010 	sw	ra,16(sp)
8040a8e0:	0c102952 	jal	8040a548 <cfi_flash_get_memptr>
8040a8e4:	3084ffff 	andi	a0,a0,0xffff
8040a8e8:	8f8380f0 	lw	v1,-32528(gp)
8040a8ec:	00402021 	move	a0,v0
8040a8f0:	24020001 	li	v0,1
8040a8f4:	10620004 	beq	v1,v0,8040a908 <cfi_flash_wait+0x30>
8040a8f8:	00000000 	nop
8040a8fc:	24020003 	li	v0,3
8040a900:	14620012 	bne	v1,v0,8040a94c <cfi_flash_wait+0x74>
8040a904:	00000000 	nop
8040a908:	94820000 	lhu	v0,0(a0)
8040a90c:	94830000 	lhu	v1,0(a0)
8040a910:	00621826 	xor	v1,v1,v0
8040a914:	3063ffff 	andi	v1,v1,0xffff
8040a918:	00031142 	srl	v0,v1,0x5
8040a91c:	10600027 	beqz	v1,8040a9bc <cfi_flash_wait+0xe4>
8040a920:	30420001 	andi	v0,v0,0x1
8040a924:	1040fff8 	beqz	v0,8040a908 <cfi_flash_wait+0x30>
8040a928:	00000000 	nop
8040a92c:	94830000 	lhu	v1,0(a0)
8040a930:	94820000 	lhu	v0,0(a0)
8040a934:	00431026 	xor	v0,v0,v1
8040a938:	3043ffff 	andi	v1,v0,0xffff
8040a93c:	1060001f 	beqz	v1,8040a9bc <cfi_flash_wait+0xe4>
8040a940:	00002021 	move	a0,zero
8040a944:	08102a64 	j	8040a990 <cfi_flash_wait+0xb8>
8040a948:	00002821 	move	a1,zero
8040a94c:	24020002 	li	v0,2
8040a950:	1462001b 	bne	v1,v0,8040a9c0 <cfi_flash_wait+0xe8>
8040a954:	00001021 	move	v0,zero
8040a958:	24020070 	li	v0,112
8040a95c:	a4820000 	sh	v0,0(a0)
8040a960:	94820000 	lhu	v0,0(a0)
8040a964:	000211c2 	srl	v0,v0,0x7
8040a968:	30420001 	andi	v0,v0,0x1
8040a96c:	1040fffc 	beqz	v0,8040a960 <cfi_flash_wait+0x88>
8040a970:	00000000 	nop
8040a974:	94820000 	lhu	v0,0(a0)
8040a978:	30420030 	andi	v0,v0,0x30
8040a97c:	10400009 	beqz	v0,8040a9a4 <cfi_flash_wait+0xcc>
8040a980:	24020050 	li	v0,80
8040a984:	a4820000 	sh	v0,0(a0)
8040a988:	00002021 	move	a0,zero
8040a98c:	00002821 	move	a1,zero
8040a990:	00003021 	move	a2,zero
8040a994:	0c102963 	jal	8040a58c <cfi_flash_command>
8040a998:	00003821 	move	a3,zero
8040a99c:	08102a70 	j	8040a9c0 <cfi_flash_wait+0xe8>
8040a9a0:	24020001 	li	v0,1
8040a9a4:	a4820000 	sh	v0,0(a0)
8040a9a8:	00002821 	move	a1,zero
8040a9ac:	00002021 	move	a0,zero
8040a9b0:	00003021 	move	a2,zero
8040a9b4:	0c102963 	jal	8040a58c <cfi_flash_command>
8040a9b8:	00003821 	move	a3,zero
8040a9bc:	00001021 	move	v0,zero
8040a9c0:	8fbf0010 	lw	ra,16(sp)
8040a9c4:	03e00008 	jr	ra
8040a9c8:	27bd0018 	addiu	sp,sp,24

8040a9cc <cfi_flash_sector_erase_int>:
8040a9cc:	27bdffe0 	addiu	sp,sp,-32
8040a9d0:	afb10014 	sw	s1,20(sp)
8040a9d4:	afb00010 	sw	s0,16(sp)
8040a9d8:	afbf0018 	sw	ra,24(sp)
8040a9dc:	3091ffff 	andi	s1,a0,0xffff
8040a9e0:	00008021 	move	s0,zero
8040a9e4:	24040006 	li	a0,6
8040a9e8:	02202821 	move	a1,s1
8040a9ec:	00003021 	move	a2,zero
8040a9f0:	0c102963 	jal	8040a58c <cfi_flash_command>
8040a9f4:	00003821 	move	a3,zero
8040a9f8:	02202021 	move	a0,s1
8040a9fc:	00002821 	move	a1,zero
8040aa00:	3406ffff 	li	a2,0xffff
8040aa04:	0c102a36 	jal	8040a8d8 <cfi_flash_wait>
8040aa08:	26100001 	addiu	s0,s0,1
8040aa0c:	10400003 	beqz	v0,8040aa1c <cfi_flash_sector_erase_int+0x50>
8040aa10:	2a030003 	slti	v1,s0,3
8040aa14:	1460fff4 	bnez	v1,8040a9e8 <cfi_flash_sector_erase_int+0x1c>
8040aa18:	24040006 	li	a0,6
8040aa1c:	8fbf0018 	lw	ra,24(sp)
8040aa20:	8fb10014 	lw	s1,20(sp)
8040aa24:	8fb00010 	lw	s0,16(sp)
8040aa28:	24020001 	li	v0,1
8040aa2c:	03e00008 	jr	ra
8040aa30:	27bd0020 	addiu	sp,sp,32

8040aa34 <cfi_flash_get_cfi>:
8040aa34:	27bdffe0 	addiu	sp,sp,-32
8040aa38:	afb20018 	sw	s2,24(sp)
8040aa3c:	afb10014 	sw	s1,20(sp)
8040aa40:	afb00010 	sw	s0,16(sp)
8040aa44:	00003821 	move	a3,zero
8040aa48:	00a08021 	move	s0,a1
8040aa4c:	00808821 	move	s1,a0
8040aa50:	00c09021 	move	s2,a2
8040aa54:	24040002 	li	a0,2
8040aa58:	00002821 	move	a1,zero
8040aa5c:	afbf001c 	sw	ra,28(sp)
8040aa60:	0c102963 	jal	8040a58c <cfi_flash_command>
8040aa64:	00003021 	move	a2,zero
8040aa68:	16000004 	bnez	s0,8040aa7c <cfi_flash_get_cfi+0x48>
8040aa6c:	02003821 	move	a3,s0
8040aa70:	0c102952 	jal	8040a548 <cfi_flash_get_memptr>
8040aa74:	00002021 	move	a0,zero
8040aa78:	00403821 	move	a3,v0
8040aa7c:	02201021 	move	v0,s1
8040aa80:	24080007 	li	t0,7
8040aa84:	2508ffff 	addiu	t0,t0,-1
8040aa88:	ac400008 	sw	zero,8(v0)
8040aa8c:	ac40000c 	sw	zero,12(v0)
8040aa90:	0501fffc 	bgez	t0,8040aa84 <cfi_flash_get_cfi+0x50>
8040aa94:	24420008 	addiu	v0,v0,8
8040aa98:	94e20020 	lhu	v0,32(a3)
8040aa9c:	24030051 	li	v1,81
8040aaa0:	3042ffff 	andi	v0,v0,0xffff
8040aaa4:	10430011 	beq	v0,v1,8040aaec <cfi_flash_get_cfi+0xb8>
8040aaa8:	00000000 	nop
8040aaac:	94e20022 	lhu	v0,34(a3)
8040aab0:	24030052 	li	v1,82
8040aab4:	3042ffff 	andi	v0,v0,0xffff
8040aab8:	1043000c 	beq	v0,v1,8040aaec <cfi_flash_get_cfi+0xb8>
8040aabc:	00000000 	nop
8040aac0:	94e20024 	lhu	v0,36(a3)
8040aac4:	24030059 	li	v1,89
8040aac8:	3042ffff 	andi	v0,v0,0xffff
8040aacc:	10430007 	beq	v0,v1,8040aaec <cfi_flash_get_cfi+0xb8>
8040aad0:	00002021 	move	a0,zero
8040aad4:	00002821 	move	a1,zero
8040aad8:	00003021 	move	a2,zero
8040aadc:	0c102963 	jal	8040a58c <cfi_flash_command>
8040aae0:	00003821 	move	a3,zero
8040aae4:	08102ae5 	j	8040ab94 <cfi_flash_get_cfi+0x160>
8040aae8:	2402ffff 	li	v0,-1
8040aaec:	94e2004e 	lhu	v0,78(a3)
8040aaf0:	94e30058 	lhu	v1,88(a3)
8040aaf4:	24040001 	li	a0,1
8040aaf8:	00441004 	sllv	v0,a0,v0
8040aafc:	3063ffff 	andi	v1,v1,0xffff
8040ab00:	ae220004 	sw	v0,4(s1)
8040ab04:	24020003 	li	v0,3
8040ab08:	16420002 	bne	s2,v0,8040ab14 <cfi_flash_get_cfi+0xe0>
8040ab0c:	ae230000 	sw	v1,0(s1)
8040ab10:	ae240000 	sw	a0,0(s1)
8040ab14:	8e220000 	lw	v0,0(s1)
8040ab18:	18400018 	blez	v0,8040ab7c <cfi_flash_get_cfi+0x148>
8040ab1c:	00004021 	move	t0,zero
8040ab20:	000830c0 	sll	a2,t0,0x3
8040ab24:	00c72821 	addu	a1,a2,a3
8040ab28:	94a2005a 	lhu	v0,90(a1)
8040ab2c:	94a3005c 	lhu	v1,92(a1)
8040ab30:	94a40060 	lhu	a0,96(a1)
8040ab34:	3042ffff 	andi	v0,v0,0xffff
8040ab38:	3063ffff 	andi	v1,v1,0xffff
8040ab3c:	00031a00 	sll	v1,v1,0x8
8040ab40:	00431021 	addu	v0,v0,v1
8040ab44:	24420001 	addiu	v0,v0,1
8040ab48:	00d13021 	addu	a2,a2,s1
8040ab4c:	94a3005e 	lhu	v1,94(a1)
8040ab50:	acc2000c 	sw	v0,12(a2)
8040ab54:	3084ffff 	andi	a0,a0,0xffff
8040ab58:	8e220000 	lw	v0,0(s1)
8040ab5c:	00042200 	sll	a0,a0,0x8
8040ab60:	3063ffff 	andi	v1,v1,0xffff
8040ab64:	00832021 	addu	a0,a0,v1
8040ab68:	25080001 	addiu	t0,t0,1
8040ab6c:	00042200 	sll	a0,a0,0x8
8040ab70:	0102102a 	slt	v0,t0,v0
8040ab74:	1440ffea 	bnez	v0,8040ab20 <cfi_flash_get_cfi+0xec>
8040ab78:	acc40008 	sw	a0,8(a2)
8040ab7c:	00002021 	move	a0,zero
8040ab80:	00002821 	move	a1,zero
8040ab84:	00003021 	move	a2,zero
8040ab88:	0c102963 	jal	8040a58c <cfi_flash_command>
8040ab8c:	00003821 	move	a3,zero
8040ab90:	24020001 	li	v0,1
8040ab94:	8fbf001c 	lw	ra,28(sp)
8040ab98:	8fb20018 	lw	s2,24(sp)
8040ab9c:	8fb10014 	lw	s1,20(sp)
8040aba0:	8fb00010 	lw	s0,16(sp)
8040aba4:	03e00008 	jr	ra
8040aba8:	27bd0020 	addiu	sp,sp,32

8040abac <cfi_flash_init>:
8040abac:	27bdfc78 	addiu	sp,sp,-904
8040abb0:	3c028042 	lui	v0,0x8042
8040abb4:	afb40380 	sw	s4,896(sp)
8040abb8:	2446968c 	addiu	a2,v0,-26996
8040abbc:	27b40010 	addiu	s4,sp,16
8040abc0:	afbf0384 	sw	ra,900(sp)
8040abc4:	afb3037c 	sw	s3,892(sp)
8040abc8:	afb20378 	sw	s2,888(sp)
8040abcc:	afb10374 	sw	s1,884(sp)
8040abd0:	afb00370 	sw	s0,880(sp)
8040abd4:	00804821 	move	t1,a0
8040abd8:	02803821 	move	a3,s4
8040abdc:	24c80360 	addiu	t0,a2,864
8040abe0:	88c20000 	lwl	v0,0(a2)
8040abe4:	88c30004 	lwl	v1,4(a2)
8040abe8:	88c40008 	lwl	a0,8(a2)
8040abec:	88c5000c 	lwl	a1,12(a2)
8040abf0:	98c20003 	lwr	v0,3(a2)
8040abf4:	98c30007 	lwr	v1,7(a2)
8040abf8:	98c4000b 	lwr	a0,11(a2)
8040abfc:	98c5000f 	lwr	a1,15(a2)
8040ac00:	24c60010 	addiu	a2,a2,16
8040ac04:	ace20000 	sw	v0,0(a3)
8040ac08:	ace30004 	sw	v1,4(a3)
8040ac0c:	ace40008 	sw	a0,8(a3)
8040ac10:	ace5000c 	sw	a1,12(a3)
8040ac14:	14c8fff2 	bne	a2,t0,8040abe0 <cfi_flash_init+0x34>
8040ac18:	24e70010 	addiu	a3,a3,16
8040ac1c:	3c138042 	lui	s3,0x8042
8040ac20:	3c028042 	lui	v0,0x8042
8040ac24:	2442ee60 	addiu	v0,v0,-4512
8040ac28:	24080001 	li	t0,1
8040ac2c:	24032000 	li	v1,8192
8040ac30:	2672d6d0 	addiu	s2,s3,-10544
8040ac34:	ad320000 	sw	s2,0(t1)
8040ac38:	00002821 	move	a1,zero
8040ac3c:	00003021 	move	a2,zero
8040ac40:	00003821 	move	a3,zero
8040ac44:	ac480020 	sw	t0,32(v0)
8040ac48:	ac430018 	sw	v1,24(v0)
8040ac4c:	ac48000c 	sw	t0,12(v0)
8040ac50:	00002021 	move	a0,zero
8040ac54:	ac400004 	sw	zero,4(v0)
8040ac58:	ac400008 	sw	zero,8(v0)
8040ac5c:	ac400010 	sw	zero,16(v0)
8040ac60:	ac400014 	sw	zero,20(v0)
8040ac64:	0c102963 	jal	8040a58c <cfi_flash_command>
8040ac68:	ac40001c 	sw	zero,28(v0)
8040ac6c:	0c102952 	jal	8040a548 <cfi_flash_get_memptr>
8040ac70:	00002021 	move	a0,zero
8040ac74:	00408021 	move	s0,v0
8040ac78:	24040001 	li	a0,1
8040ac7c:	00002821 	move	a1,zero
8040ac80:	00003021 	move	a2,zero
8040ac84:	0c102963 	jal	8040a58c <cfi_flash_command>
8040ac88:	00003821 	move	a3,zero
8040ac8c:	96020002 	lhu	v0,2(s0)
8040ac90:	3051ffff 	andi	s1,v0,0xffff
8040ac94:	2402227e 	li	v0,8830
8040ac98:	16220005 	bne	s1,v0,8040acb0 <cfi_flash_init+0x104>
8040ac9c:	00002021 	move	a0,zero
8040aca0:	9602001c 	lhu	v0,28(s0)
8040aca4:	9602001e 	lhu	v0,30(s0)
8040aca8:	3051ffff 	andi	s1,v0,0xffff
8040acac:	00002021 	move	a0,zero
8040acb0:	00002821 	move	a1,zero
8040acb4:	00003021 	move	a2,zero
8040acb8:	0c102963 	jal	8040a58c <cfi_flash_command>
8040acbc:	00003821 	move	a3,zero
8040acc0:	3230ffff 	andi	s0,s1,0xffff
8040acc4:	240222cb 	li	v0,8907
8040acc8:	a671d6d0 	sh	s1,-10544(s3)
8040accc:	1202004a 	beq	s0,v0,8040adf8 <cfi_flash_init+0x24c>
8040acd0:	a2400002 	sb	zero,2(s2)
8040acd4:	2a0222cc 	slti	v0,s0,8908
8040acd8:	10400020 	beqz	v0,8040ad5c <cfi_flash_init+0x1b0>
8040acdc:	2a022782 	slti	v0,s0,10114
8040ace0:	2402225b 	li	v0,8795
8040ace4:	12020047 	beq	s0,v0,8040ae04 <cfi_flash_init+0x258>
8040ace8:	24020001 	li	v0,1
8040acec:	2a02225c 	slti	v0,s0,8796
8040acf0:	1040000b 	beqz	v0,8040ad20 <cfi_flash_init+0x174>
8040acf4:	240222ba 	li	v0,8890
8040acf8:	2402223b 	li	v0,8763
8040acfc:	12020041 	beq	s0,v0,8040ae04 <cfi_flash_init+0x258>
8040ad00:	24020001 	li	v0,1
8040ad04:	2a02223c 	slti	v0,s0,8764
8040ad08:	10400003 	beqz	v0,8040ad18 <cfi_flash_init+0x16c>
8040ad0c:	00000000 	nop
8040ad10:	08102b4e 	j	8040ad38 <cfi_flash_init+0x18c>
8040ad14:	2602de00 	addiu	v0,s0,-8704
8040ad18:	08102b4e 	j	8040ad38 <cfi_flash_init+0x18c>
8040ad1c:	2602ddb7 	addiu	v0,s0,-8777
8040ad20:	12020038 	beq	s0,v0,8040ae04 <cfi_flash_init+0x258>
8040ad24:	24020001 	li	v0,1
8040ad28:	2a0222bb 	slti	v0,s0,8891
8040ad2c:	10400007 	beqz	v0,8040ad4c <cfi_flash_init+0x1a0>
8040ad30:	240222c4 	li	v0,8900
8040ad34:	2602dd59 	addiu	v0,s0,-8871
8040ad38:	2c420002 	sltiu	v0,v0,2
8040ad3c:	104000ab 	beqz	v0,8040afec <cfi_flash_init+0x440>
8040ad40:	00000000 	nop
8040ad44:	08102b81 	j	8040ae04 <cfi_flash_init+0x258>
8040ad48:	24020001 	li	v0,1
8040ad4c:	1202002a 	beq	s0,v0,8040adf8 <cfi_flash_init+0x24c>
8040ad50:	00000000 	nop
8040ad54:	08102b66 	j	8040ad98 <cfi_flash_init+0x1ec>
8040ad58:	240222c9 	li	v0,8905
8040ad5c:	10400016 	beqz	v0,8040adb8 <cfi_flash_init+0x20c>
8040ad60:	340288c5 	li	v0,0x88c5
8040ad64:	2a022780 	slti	v0,s0,10112
8040ad68:	10400026 	beqz	v0,8040ae04 <cfi_flash_init+0x258>
8040ad6c:	24020003 	li	v0,3
8040ad70:	240222f9 	li	v0,8953
8040ad74:	12020023 	beq	s0,v0,8040ae04 <cfi_flash_init+0x258>
8040ad78:	24020001 	li	v0,1
8040ad7c:	2a0222fa 	slti	v0,s0,8954
8040ad80:	10400009 	beqz	v0,8040ada8 <cfi_flash_init+0x1fc>
8040ad84:	2402234b 	li	v0,9035
8040ad88:	240222da 	li	v0,8922
8040ad8c:	1202001d 	beq	s0,v0,8040ae04 <cfi_flash_init+0x258>
8040ad90:	24020001 	li	v0,1
8040ad94:	240222f6 	li	v0,8950
8040ad98:	12020017 	beq	s0,v0,8040adf8 <cfi_flash_init+0x24c>
8040ad9c:	00000000 	nop
8040ada0:	08102c63 	j	8040b18c <cfi_flash_init+0x5e0>
8040ada4:	2402ffff 	li	v0,-1
8040ada8:	12020015 	beq	s0,v0,8040ae00 <cfi_flash_init+0x254>
8040adac:	2402235b 	li	v0,9051
8040adb0:	08102b76 	j	8040add8 <cfi_flash_init+0x22c>
8040adb4:	00000000 	nop
8040adb8:	0050102a 	slt	v0,v0,s0
8040adbc:	1440000a 	bnez	v0,8040ade8 <cfi_flash_init+0x23c>
8040adc0:	34028916 	li	v0,0x8916
8040adc4:	340288c2 	li	v0,0x88c2
8040adc8:	0202102a 	slt	v0,s0,v0
8040adcc:	1040000d 	beqz	v0,8040ae04 <cfi_flash_init+0x258>
8040add0:	24020002 	li	v0,2
8040add4:	24022789 	li	v0,10121
8040add8:	12020009 	beq	s0,v0,8040ae00 <cfi_flash_init+0x254>
8040addc:	2402ffff 	li	v0,-1
8040ade0:	08102c64 	j	8040b190 <cfi_flash_init+0x5e4>
8040ade4:	8fbf0384 	lw	ra,900(sp)
8040ade8:	16020080 	bne	s0,v0,8040afec <cfi_flash_init+0x440>
8040adec:	00000000 	nop
8040adf0:	08102b81 	j	8040ae04 <cfi_flash_init+0x258>
8040adf4:	24020002 	li	v0,2
8040adf8:	08102b81 	j	8040ae04 <cfi_flash_init+0x258>
8040adfc:	24020001 	li	v0,1
8040ae00:	24020003 	li	v0,3
8040ae04:	af8280f0 	sw	v0,-32528(gp)
8040ae08:	8f8680f0 	lw	a2,-32528(gp)
8040ae0c:	3c118042 	lui	s1,0x8042
8040ae10:	26241e78 	addiu	a0,s1,7800
8040ae14:	0c102a8d 	jal	8040aa34 <cfi_flash_get_cfi>
8040ae18:	00002821 	move	a1,zero
8040ae1c:	2403ffff 	li	v1,-1
8040ae20:	14430025 	bne	v0,v1,8040aeb8 <cfi_flash_init+0x30c>
8040ae24:	240222cb 	li	v0,8907
8040ae28:	24022249 	li	v0,8777
8040ae2c:	1202000d 	beq	s0,v0,8040ae64 <cfi_flash_init+0x2b8>
8040ae30:	8f8680f0 	lw	a2,-32528(gp)
8040ae34:	2a02224a 	slti	v0,s0,8778
8040ae38:	10400006 	beqz	v0,8040ae54 <cfi_flash_init+0x2a8>
8040ae3c:	2402225b 	li	v0,8795
8040ae40:	2402223b 	li	v0,8763
8040ae44:	1202000b 	beq	s0,v0,8040ae74 <cfi_flash_init+0x2c8>
8040ae48:	26241e78 	addiu	a0,s1,7800
8040ae4c:	08102c63 	j	8040b18c <cfi_flash_init+0x5e0>
8040ae50:	2402ffff 	li	v0,-1
8040ae54:	1202000d 	beq	s0,v0,8040ae8c <cfi_flash_init+0x2e0>
8040ae58:	240222c4 	li	v0,8900
8040ae5c:	16020063 	bne	s0,v0,8040afec <cfi_flash_init+0x440>
8040ae60:	8f8680f0 	lw	a2,-32528(gp)
8040ae64:	3c058042 	lui	a1,0x8042
8040ae68:	26241e78 	addiu	a0,s1,7800
8040ae6c:	08102b9f 	j	8040ae7c <cfi_flash_init+0x2d0>
8040ae70:	24a5d5d0 	addiu	a1,a1,-10800
8040ae74:	3c058042 	lui	a1,0x8042
8040ae78:	24a5d4d0 	addiu	a1,a1,-11056
8040ae7c:	0c102a8d 	jal	8040aa34 <cfi_flash_get_cfi>
8040ae80:	00000000 	nop
8040ae84:	08102bae 	j	8040aeb8 <cfi_flash_init+0x30c>
8040ae88:	240222cb 	li	v0,8907
8040ae8c:	8f8680f0 	lw	a2,-32528(gp)
8040ae90:	3c058042 	lui	a1,0x8042
8040ae94:	26241e78 	addiu	a0,s1,7800
8040ae98:	0c102a8d 	jal	8040aa34 <cfi_flash_get_cfi>
8040ae9c:	24a5d3d0 	addiu	a1,a1,-11312
8040aea0:	3c048042 	lui	a0,0x8042
8040aea4:	3c058042 	lui	a1,0x8042
8040aea8:	2484d6d2 	addiu	a0,a0,-10542
8040aeac:	0c10338e 	jal	8040ce38 <lib_strcpy>
8040aeb0:	24a5bdd4 	addiu	a1,a1,-16940
8040aeb4:	240222cb 	li	v0,8907
8040aeb8:	1202004e 	beq	s0,v0,8040aff4 <cfi_flash_init+0x448>
8040aebc:	00001021 	move	v0,zero
8040aec0:	2a0222cc 	slti	v0,s0,8908
8040aec4:	10400024 	beqz	v0,8040af58 <cfi_flash_init+0x3ac>
8040aec8:	2a022782 	slti	v0,s0,10114
8040aecc:	2402225b 	li	v0,8795
8040aed0:	12020048 	beq	s0,v0,8040aff4 <cfi_flash_init+0x448>
8040aed4:	00001021 	move	v0,zero
8040aed8:	2a02225c 	slti	v0,s0,8796
8040aedc:	10400010 	beqz	v0,8040af20 <cfi_flash_init+0x374>
8040aee0:	240222ba 	li	v0,8890
8040aee4:	2402223b 	li	v0,8763
8040aee8:	12020042 	beq	s0,v0,8040aff4 <cfi_flash_init+0x448>
8040aeec:	24020001 	li	v0,1
8040aef0:	2a02223c 	slti	v0,s0,8764
8040aef4:	10400006 	beqz	v0,8040af10 <cfi_flash_init+0x364>
8040aef8:	24022249 	li	v0,8777
8040aefc:	24022200 	li	v0,8704
8040af00:	12020036 	beq	s0,v0,8040afdc <cfi_flash_init+0x430>
8040af04:	00000000 	nop
8040af08:	08102be5 	j	8040af94 <cfi_flash_init+0x3e8>
8040af0c:	24022201 	li	v0,8705
8040af10:	12020032 	beq	s0,v0,8040afdc <cfi_flash_init+0x430>
8040af14:	00000000 	nop
8040af18:	08102be5 	j	8040af94 <cfi_flash_init+0x3e8>
8040af1c:	2402224a 	li	v0,8778
8040af20:	12020034 	beq	s0,v0,8040aff4 <cfi_flash_init+0x448>
8040af24:	00001021 	move	v0,zero
8040af28:	2a0222bb 	slti	v0,s0,8891
8040af2c:	10400006 	beqz	v0,8040af48 <cfi_flash_init+0x39c>
8040af30:	240222c4 	li	v0,8900
8040af34:	240222a7 	li	v0,8871
8040af38:	1202002a 	beq	s0,v0,8040afe4 <cfi_flash_init+0x438>
8040af3c:	00000000 	nop
8040af40:	08102bf5 	j	8040afd4 <cfi_flash_init+0x428>
8040af44:	240222a8 	li	v0,8872
8040af48:	12020026 	beq	s0,v0,8040afe4 <cfi_flash_init+0x438>
8040af4c:	00000000 	nop
8040af50:	08102be5 	j	8040af94 <cfi_flash_init+0x3e8>
8040af54:	240222c9 	li	v0,8905
8040af58:	10400016 	beqz	v0,8040afb4 <cfi_flash_init+0x408>
8040af5c:	340288c5 	li	v0,0x88c5
8040af60:	2a022780 	slti	v0,s0,10112
8040af64:	10400023 	beqz	v0,8040aff4 <cfi_flash_init+0x448>
8040af68:	00001021 	move	v0,zero
8040af6c:	240222f9 	li	v0,8953
8040af70:	12020020 	beq	s0,v0,8040aff4 <cfi_flash_init+0x448>
8040af74:	00001021 	move	v0,zero
8040af78:	2a0222fa 	slti	v0,s0,8954
8040af7c:	10400009 	beqz	v0,8040afa4 <cfi_flash_init+0x3f8>
8040af80:	2402234b 	li	v0,9035
8040af84:	240222da 	li	v0,8922
8040af88:	1202001a 	beq	s0,v0,8040aff4 <cfi_flash_init+0x448>
8040af8c:	24020001 	li	v0,1
8040af90:	240222f6 	li	v0,8950
8040af94:	12020013 	beq	s0,v0,8040afe4 <cfi_flash_init+0x438>
8040af98:	00000000 	nop
8040af9c:	08102c63 	j	8040b18c <cfi_flash_init+0x5e0>
8040afa0:	2402ffff 	li	v0,-1
8040afa4:	1202000f 	beq	s0,v0,8040afe4 <cfi_flash_init+0x438>
8040afa8:	00000000 	nop
8040afac:	08102bf5 	j	8040afd4 <cfi_flash_init+0x428>
8040afb0:	2402235b 	li	v0,9051
8040afb4:	0050102a 	slt	v0,v0,s0
8040afb8:	14400006 	bnez	v0,8040afd4 <cfi_flash_init+0x428>
8040afbc:	34028916 	li	v0,0x8916
8040afc0:	340288c2 	li	v0,0x88c2
8040afc4:	0202102a 	slt	v0,s0,v0
8040afc8:	10400004 	beqz	v0,8040afdc <cfi_flash_init+0x430>
8040afcc:	00000000 	nop
8040afd0:	24022789 	li	v0,10121
8040afd4:	16020005 	bne	s0,v0,8040afec <cfi_flash_init+0x440>
8040afd8:	00000000 	nop
8040afdc:	08102bfd 	j	8040aff4 <cfi_flash_init+0x448>
8040afe0:	00001021 	move	v0,zero
8040afe4:	08102bfd 	j	8040aff4 <cfi_flash_init+0x448>
8040afe8:	24020001 	li	v0,1
8040afec:	08102c63 	j	8040b18c <cfi_flash_init+0x5e0>
8040aff0:	2402ffff 	li	v0,-1
8040aff4:	00004021 	move	t0,zero
8040aff8:	00003021 	move	a2,zero
8040affc:	1440002a 	bnez	v0,8040b0a8 <cfi_flash_init+0x4fc>
8040b000:	3c038042 	lui	v1,0x8042
8040b004:	8c641e78 	lw	a0,7800(v1)
8040b008:	18800047 	blez	a0,8040b128 <cfi_flash_init+0x57c>
8040b00c:	00002821 	move	a1,zero
8040b010:	24631e78 	addiu	v1,v1,7800
8040b014:	8c620004 	lw	v0,4(v1)
8040b018:	18400043 	blez	v0,8040b128 <cfi_flash_init+0x57c>
8040b01c:	3c028042 	lui	v0,0x8042
8040b020:	00605021 	move	t2,v1
8040b024:	00804821 	move	t1,a0
8040b028:	244bee60 	addiu	t3,v0,-4512
8040b02c:	00003821 	move	a3,zero
8040b030:	000510c0 	sll	v0,a1,0x3
8040b034:	004a1021 	addu	v0,v0,t2
8040b038:	8c43000c 	lw	v1,12(v0)
8040b03c:	1860000b 	blez	v1,8040b06c <cfi_flash_init+0x4c0>
8040b040:	00000000 	nop
8040b044:	8c420008 	lw	v0,8(v0)
8040b048:	00eb2021 	addu	a0,a3,t3
8040b04c:	2463ffff 	addiu	v1,v1,-1
8040b050:	ac86001c 	sw	a2,28(a0)
8040b054:	ac820018 	sw	v0,24(a0)
8040b058:	00c23021 	addu	a2,a2,v0
8040b05c:	25080001 	addiu	t0,t0,1
8040b060:	24e7000c 	addiu	a3,a3,12
8040b064:	1460fff9 	bnez	v1,8040b04c <cfi_flash_init+0x4a0>
8040b068:	2484000c 	addiu	a0,a0,12
8040b06c:	24a50001 	addiu	a1,a1,1
8040b070:	00a9102a 	slt	v0,a1,t1
8040b074:	1040002d 	beqz	v0,8040b12c <cfi_flash_init+0x580>
8040b078:	00081040 	sll	v0,t0,0x1
8040b07c:	8d420004 	lw	v0,4(t2)
8040b080:	00c2102a 	slt	v0,a2,v0
8040b084:	1440ffea 	bnez	v0,8040b030 <cfi_flash_init+0x484>
8040b088:	00081040 	sll	v0,t0,0x1
8040b08c:	08102c4c 	j	8040b130 <cfi_flash_init+0x584>
8040b090:	00481021 	addu	v0,v0,t0
8040b094:	2484d6d2 	addiu	a0,a0,-10542
8040b098:	0c10338e 	jal	8040ce38 <lib_strcpy>
8040b09c:	24a50002 	addiu	a1,a1,2
8040b0a0:	08102c63 	j	8040b18c <cfi_flash_init+0x5e0>
8040b0a4:	24020001 	li	v0,1
8040b0a8:	8c621e78 	lw	v0,7800(v1)
8040b0ac:	2445ffff 	addiu	a1,v0,-1
8040b0b0:	04a0001d 	bltz	a1,8040b128 <cfi_flash_init+0x57c>
8040b0b4:	24631e78 	addiu	v1,v1,7800
8040b0b8:	8c620004 	lw	v0,4(v1)
8040b0bc:	1840001a 	blez	v0,8040b128 <cfi_flash_init+0x57c>
8040b0c0:	3c028042 	lui	v0,0x8042
8040b0c4:	00604821 	move	t1,v1
8040b0c8:	244aee60 	addiu	t2,v0,-4512
8040b0cc:	00003821 	move	a3,zero
8040b0d0:	000510c0 	sll	v0,a1,0x3
8040b0d4:	00491021 	addu	v0,v0,t1
8040b0d8:	8c43000c 	lw	v1,12(v0)
8040b0dc:	1860000b 	blez	v1,8040b10c <cfi_flash_init+0x560>
8040b0e0:	00000000 	nop
8040b0e4:	8c420008 	lw	v0,8(v0)
8040b0e8:	00ea2021 	addu	a0,a3,t2
8040b0ec:	2463ffff 	addiu	v1,v1,-1
8040b0f0:	ac86001c 	sw	a2,28(a0)
8040b0f4:	ac820018 	sw	v0,24(a0)
8040b0f8:	00c23021 	addu	a2,a2,v0
8040b0fc:	25080001 	addiu	t0,t0,1
8040b100:	24e7000c 	addiu	a3,a3,12
8040b104:	1460fff9 	bnez	v1,8040b0ec <cfi_flash_init+0x540>
8040b108:	2484000c 	addiu	a0,a0,12
8040b10c:	24a5ffff 	addiu	a1,a1,-1
8040b110:	04a00006 	bltz	a1,8040b12c <cfi_flash_init+0x580>
8040b114:	00081040 	sll	v0,t0,0x1
8040b118:	8d220004 	lw	v0,4(t1)
8040b11c:	00c2102a 	slt	v0,a2,v0
8040b120:	1440ffec 	bnez	v0,8040b0d4 <cfi_flash_init+0x528>
8040b124:	000510c0 	sll	v0,a1,0x3
8040b128:	00081040 	sll	v0,t0,0x1
8040b12c:	00481021 	addu	v0,v0,t0
8040b130:	3c038042 	lui	v1,0x8042
8040b134:	2463ee60 	addiu	v1,v1,-4512
8040b138:	00021080 	sll	v0,v0,0x2
8040b13c:	00431021 	addu	v0,v0,v1
8040b140:	8c45000c 	lw	a1,12(v0)
8040b144:	2664d6d0 	addiu	a0,s3,-10544
8040b148:	8c420010 	lw	v0,16(v0)
8040b14c:	80840002 	lb	a0,2(a0)
8040b150:	ac68000c 	sw	t0,12(v1)
8040b154:	00451021 	addu	v0,v0,a1
8040b158:	1480000b 	bnez	a0,8040b188 <cfi_flash_init+0x5dc>
8040b15c:	af8280ec 	sw	v0,-32532(gp)
8040b160:	97a20010 	lhu	v0,16(sp)
8040b164:	02802821 	move	a1,s4
8040b168:	10400008 	beqz	v0,8040b18c <cfi_flash_init+0x5e0>
8040b16c:	24020001 	li	v0,1
8040b170:	94a20000 	lhu	v0,0(a1)
8040b174:	1050ffc7 	beq	v0,s0,8040b094 <cfi_flash_init+0x4e8>
8040b178:	3c048042 	lui	a0,0x8042
8040b17c:	24a50020 	addiu	a1,a1,32
8040b180:	08102c5a 	j	8040b168 <cfi_flash_init+0x5bc>
8040b184:	94a20000 	lhu	v0,0(a1)
8040b188:	24020001 	li	v0,1
8040b18c:	8fbf0384 	lw	ra,900(sp)
8040b190:	8fb40380 	lw	s4,896(sp)
8040b194:	8fb3037c 	lw	s3,892(sp)
8040b198:	8fb20378 	lw	s2,888(sp)
8040b19c:	8fb10374 	lw	s1,884(sp)
8040b1a0:	8fb00370 	lw	s0,880(sp)
8040b1a4:	03e00008 	jr	ra
8040b1a8:	27bd0388 	addiu	sp,sp,904

8040b1ac <cfi_flash_read_buf>:
8040b1ac:	27bdffe0 	addiu	sp,sp,-32
8040b1b0:	3084ffff 	andi	a0,a0,0xffff
8040b1b4:	afb20018 	sw	s2,24(sp)
8040b1b8:	afb10014 	sw	s1,20(sp)
8040b1bc:	afb00010 	sw	s0,16(sp)
8040b1c0:	afbf001c 	sw	ra,28(sp)
8040b1c4:	00a09021 	move	s2,a1
8040b1c8:	00c08821 	move	s1,a2
8040b1cc:	0c102952 	jal	8040a548 <cfi_flash_get_memptr>
8040b1d0:	00e08021 	move	s0,a3
8040b1d4:	00401821 	move	v1,v0
8040b1d8:	12000007 	beqz	s0,8040b1f8 <cfi_flash_read_buf+0x4c>
8040b1dc:	00721021 	addu	v0,v1,s2
8040b1e0:	90420000 	lbu	v0,0(v0)
8040b1e4:	2610ffff 	addiu	s0,s0,-1
8040b1e8:	24630001 	addiu	v1,v1,1
8040b1ec:	a2220000 	sb	v0,0(s1)
8040b1f0:	08102c76 	j	8040b1d8 <cfi_flash_read_buf+0x2c>
8040b1f4:	26310001 	addiu	s1,s1,1
8040b1f8:	8fbf001c 	lw	ra,28(sp)
8040b1fc:	8fb20018 	lw	s2,24(sp)
8040b200:	8fb10014 	lw	s1,20(sp)
8040b204:	8fb00010 	lw	s0,16(sp)
8040b208:	24020001 	li	v0,1
8040b20c:	03e00008 	jr	ra
8040b210:	27bd0020 	addiu	sp,sp,32

8040b214 <cfi_flash_write_buf>:
8040b214:	27bdffc8 	addiu	sp,sp,-56
8040b218:	afb3001c 	sw	s3,28(sp)
8040b21c:	3093ffff 	andi	s3,a0,0xffff
8040b220:	02602021 	move	a0,s3
8040b224:	afbe0030 	sw	s8,48(sp)
8040b228:	afb7002c 	sw	s7,44(sp)
8040b22c:	afb60028 	sw	s6,40(sp)
8040b230:	afb50024 	sw	s5,36(sp)
8040b234:	afb40020 	sw	s4,32(sp)
8040b238:	00a0f021 	move	s8,a1
8040b23c:	afbf0034 	sw	ra,52(sp)
8040b240:	afb20018 	sw	s2,24(sp)
8040b244:	afb10014 	sw	s1,20(sp)
8040b248:	afb00010 	sw	s0,16(sp)
8040b24c:	00c0b021 	move	s6,a2
8040b250:	0c102952 	jal	8040a548 <cfi_flash_get_memptr>
8040b254:	00e0a021 	move	s4,a3
8040b258:	005eb821 	addu	s7,v0,s8
8040b25c:	0000a821 	move	s5,zero
8040b260:	029e1025 	or	v0,s4,s8
8040b264:	30420001 	andi	v0,v0,0x1
8040b268:	03c08021 	move	s0,s8
8040b26c:	02809021 	move	s2,s4
8040b270:	02c08821 	move	s1,s6
8040b274:	1440001d 	bnez	v0,8040b2ec <cfi_flash_write_buf+0xd8>
8040b278:	2403ffff 	li	v1,-1
8040b27c:	24040003 	li	a0,3
8040b280:	00002821 	move	a1,zero
8040b284:	00003021 	move	a2,zero
8040b288:	0c102963 	jal	8040a58c <cfi_flash_command>
8040b28c:	00003821 	move	a3,zero
8040b290:	1a800011 	blez	s4,8040b2d8 <cfi_flash_write_buf+0xc4>
8040b294:	24040005 	li	a0,5
8040b298:	96270000 	lhu	a3,0(s1)
8040b29c:	02003021 	move	a2,s0
8040b2a0:	24040004 	li	a0,4
8040b2a4:	0c102963 	jal	8040a58c <cfi_flash_command>
8040b2a8:	02602821 	move	a1,s3
8040b2ac:	96260000 	lhu	a2,0(s1)
8040b2b0:	02002821 	move	a1,s0
8040b2b4:	02602021 	move	a0,s3
8040b2b8:	2652fffe 	addiu	s2,s2,-2
8040b2bc:	0c102a36 	jal	8040a8d8 <cfi_flash_wait>
8040b2c0:	26100002 	addiu	s0,s0,2
8040b2c4:	14400004 	bnez	v0,8040b2d8 <cfi_flash_write_buf+0xc4>
8040b2c8:	24040005 	li	a0,5
8040b2cc:	1e40fff2 	bgtz	s2,8040b298 <cfi_flash_write_buf+0x84>
8040b2d0:	26310002 	addiu	s1,s1,2
8040b2d4:	24040005 	li	a0,5
8040b2d8:	00002821 	move	a1,zero
8040b2dc:	00003021 	move	a2,zero
8040b2e0:	0c102963 	jal	8040a58c <cfi_flash_command>
8040b2e4:	00003821 	move	a3,zero
8040b2e8:	02361823 	subu	v1,s1,s6
8040b2ec:	02e02021 	move	a0,s7
8040b2f0:	02c02821 	move	a1,s6
8040b2f4:	02803021 	move	a2,s4
8040b2f8:	0c10344d 	jal	8040d134 <lib_memcmp>
8040b2fc:	00608021 	move	s0,v1
8040b300:	10400006 	beqz	v0,8040b31c <cfi_flash_write_buf+0x108>
8040b304:	26b50001 	addiu	s5,s5,1
8040b308:	0c100f9c 	jal	80403e70 <flash_sector_erase_int>
8040b30c:	02602021 	move	a0,s3
8040b310:	2aa20003 	slti	v0,s5,3
8040b314:	1440ffd2 	bnez	v0,8040b260 <cfi_flash_write_buf+0x4c>
8040b318:	2410ffff 	li	s0,-1
8040b31c:	2402ffff 	li	v0,-1
8040b320:	16020005 	bne	s0,v0,8040b338 <cfi_flash_write_buf+0x124>
8040b324:	02001021 	move	v0,s0
8040b328:	3c048042 	lui	a0,0x8042
8040b32c:	0c10331a 	jal	8040cc68 <xprintf>
8040b330:	2484bde0 	addiu	a0,a0,-16928
8040b334:	02001021 	move	v0,s0
8040b338:	8fbf0034 	lw	ra,52(sp)
8040b33c:	8fbe0030 	lw	s8,48(sp)
8040b340:	8fb7002c 	lw	s7,44(sp)
8040b344:	8fb60028 	lw	s6,40(sp)
8040b348:	8fb50024 	lw	s5,36(sp)
8040b34c:	8fb40020 	lw	s4,32(sp)
8040b350:	8fb3001c 	lw	s3,28(sp)
8040b354:	8fb20018 	lw	s2,24(sp)
8040b358:	8fb10014 	lw	s1,20(sp)
8040b35c:	8fb00010 	lw	s0,16(sp)
8040b360:	03e00008 	jr	ra
8040b364:	27bd0038 	addiu	sp,sp,56

8040b368 <cfi_flash_get_numsectors>:
8040b368:	3c028042 	lui	v0,0x8042
8040b36c:	03e00008 	jr	ra
8040b370:	8c42ee6c 	lw	v0,-4500(v0)

8040b374 <cfi_flash_get_sector_size>:
8040b374:	3084ffff 	andi	a0,a0,0xffff
8040b378:	00041040 	sll	v0,a0,0x1
8040b37c:	00441021 	addu	v0,v0,a0
8040b380:	3c038042 	lui	v1,0x8042
8040b384:	2463ee60 	addiu	v1,v1,-4512
8040b388:	00021080 	sll	v0,v0,0x2
8040b38c:	00431021 	addu	v0,v0,v1
8040b390:	03e00008 	jr	ra
8040b394:	8c420018 	lw	v0,24(v0)

8040b398 <cfi_flash_get_blk>:
8040b398:	27bdffd8 	addiu	sp,sp,-40
8040b39c:	afb3001c 	sw	s3,28(sp)
8040b3a0:	afb20018 	sw	s2,24(sp)
8040b3a4:	afb10014 	sw	s1,20(sp)
8040b3a8:	afb00010 	sw	s0,16(sp)
8040b3ac:	afbf0020 	sw	ra,32(sp)
8040b3b0:	0c102cda 	jal	8040b368 <cfi_flash_get_numsectors>
8040b3b4:	00808021 	move	s0,a0
8040b3b8:	00409821 	move	s3,v0
8040b3bc:	3c02fffe 	lui	v0,0xfffe
8040b3c0:	34422000 	ori	v0,v0,0x2000
8040b3c4:	8c420000 	lw	v0,0(v0)
8040b3c8:	2403ff00 	li	v1,-256
8040b3cc:	00009021 	move	s2,zero
8040b3d0:	00431024 	and	v0,v0,v1
8040b3d4:	3c03a000 	lui	v1,0xa000
8040b3d8:	00431025 	or	v0,v0,v1
8040b3dc:	02028823 	subu	s1,s0,v0
8040b3e0:	1a20000c 	blez	s1,8040b414 <cfi_flash_get_blk+0x7c>
8040b3e4:	00008021 	move	s0,zero
8040b3e8:	1a60000b 	blez	s3,8040b418 <cfi_flash_get_blk+0x80>
8040b3ec:	0232102a 	slt	v0,s1,s2
8040b3f0:	0c102cdd 	jal	8040b374 <cfi_flash_get_sector_size>
8040b3f4:	3204ffff 	andi	a0,s0,0xffff
8040b3f8:	02429021 	addu	s2,s2,v0
8040b3fc:	26100001 	addiu	s0,s0,1
8040b400:	0251102a 	slt	v0,s2,s1
8040b404:	10400003 	beqz	v0,8040b414 <cfi_flash_get_blk+0x7c>
8040b408:	0213182a 	slt	v1,s0,s3
8040b40c:	1460fff8 	bnez	v1,8040b3f0 <cfi_flash_get_blk+0x58>
8040b410:	00000000 	nop
8040b414:	0232102a 	slt	v0,s1,s2
8040b418:	10400003 	beqz	v0,8040b428 <cfi_flash_get_blk+0x90>
8040b41c:	00000000 	nop
8040b420:	08102d10 	j	8040b440 <cfi_flash_get_blk+0xa8>
8040b424:	2610ffff 	addiu	s0,s0,-1
8040b428:	16130006 	bne	s0,s3,8040b444 <cfi_flash_get_blk+0xac>
8040b42c:	02001021 	move	v0,s0
8040b430:	3c048042 	lui	a0,0x8042
8040b434:	0c10331a 	jal	8040cc68 <xprintf>
8040b438:	2484be04 	addiu	a0,a0,-16892
8040b43c:	2410ffff 	li	s0,-1
8040b440:	02001021 	move	v0,s0
8040b444:	8fbf0020 	lw	ra,32(sp)
8040b448:	8fb3001c 	lw	s3,28(sp)
8040b44c:	8fb20018 	lw	s2,24(sp)
8040b450:	8fb10014 	lw	s1,20(sp)
8040b454:	8fb00010 	lw	s0,16(sp)
8040b458:	03e00008 	jr	ra
8040b45c:	27bd0028 	addiu	sp,sp,40

8040b460 <cfi_flash_get_total_size>:
8040b460:	03e00008 	jr	ra
8040b464:	8f8280ec 	lw	v0,-32532(gp)

8040b468 <exc_setup_hw_vector>:
8040b468:	30a3ffff 	andi	v1,a1,0xffff
8040b46c:	000313c2 	srl	v0,v1,0xf
8040b470:	00052c02 	srl	a1,a1,0x10
8040b474:	00a22821 	addu	a1,a1,v0
8040b478:	3c028000 	lui	v0,0x8000
8040b47c:	00822025 	or	a0,a0,v0
8040b480:	3c023c1b 	lui	v0,0x3c1b
8040b484:	00a22825 	or	a1,a1,v0
8040b488:	3c02277b 	lui	v0,0x277b
8040b48c:	00621825 	or	v1,v1,v0
8040b490:	3c02241a 	lui	v0,0x241a
8040b494:	00c23025 	or	a2,a2,v0
8040b498:	3c020360 	lui	v0,0x360
8040b49c:	34420008 	ori	v0,v0,0x8
8040b4a0:	ac86000c 	sw	a2,12(a0)
8040b4a4:	ac850000 	sw	a1,0(a0)
8040b4a8:	ac830004 	sw	v1,4(a0)
8040b4ac:	03e00008 	jr	ra
8040b4b0:	ac820008 	sw	v0,8(a0)

8040b4b4 <cfe_setup_exceptions>:
8040b4b4:	27bdffe8 	addiu	sp,sp,-24
8040b4b8:	afb00010 	sw	s0,16(sp)
8040b4bc:	3c108041 	lui	s0,0x8041
8040b4c0:	24040008 	li	a0,8
8040b4c4:	afbf0014 	sw	ra,20(sp)
8040b4c8:	0c10053e 	jal	804014f8 <_exc_setvector>
8040b4cc:	2605b724 	addiu	a1,s0,-18652
8040b4d0:	24040010 	li	a0,16
8040b4d4:	0c10053e 	jal	804014f8 <_exc_setvector>
8040b4d8:	2605b724 	addiu	a1,s0,-18652
8040b4dc:	3c058040 	lui	a1,0x8040
8040b4e0:	24a5152c 	addiu	a1,a1,5420
8040b4e4:	0c10053e 	jal	804014f8 <_exc_setvector>
8040b4e8:	24040018 	li	a0,24
8040b4ec:	24040020 	li	a0,32
8040b4f0:	0c10053e 	jal	804014f8 <_exc_setvector>
8040b4f4:	2605b724 	addiu	a1,s0,-18652
8040b4f8:	24040028 	li	a0,40
8040b4fc:	0c10053e 	jal	804014f8 <_exc_setvector>
8040b500:	2605b724 	addiu	a1,s0,-18652
8040b504:	2605b724 	addiu	a1,s0,-18652
8040b508:	0c10053e 	jal	804014f8 <_exc_setvector>
8040b50c:	24040030 	li	a0,48
8040b510:	3c038042 	lui	v1,0x8042
8040b514:	24622be4 	addiu	v0,v1,11236
8040b518:	ac622be4 	sw	v0,11236(v1)
8040b51c:	3c038042 	lui	v1,0x8042
8040b520:	ac602bdc 	sw	zero,11228(v1)
8040b524:	ac420004 	sw	v0,4(v0)
8040b528:	3c038000 	lui	v1,0x8000
8040b52c:	240203ff 	li	v0,1023
8040b530:	2442ffff 	addiu	v0,v0,-1
8040b534:	ac600000 	sw	zero,0(v1)
8040b538:	0441fffd 	bgez	v0,8040b530 <cfe_setup_exceptions+0x7c>
8040b53c:	24630004 	addiu	v1,v1,4
8040b540:	3c058041 	lui	a1,0x8041
8040b544:	3c108040 	lui	s0,0x8040
8040b548:	24a5bc90 	addiu	a1,a1,-17264
8040b54c:	00002021 	move	a0,zero
8040b550:	0c102d1a 	jal	8040b468 <exc_setup_hw_vector>
8040b554:	24060008 	li	a2,8
8040b558:	26051550 	addiu	a1,s0,5456
8040b55c:	24040080 	li	a0,128
8040b560:	0c102d1a 	jal	8040b468 <exc_setup_hw_vector>
8040b564:	24060010 	li	a2,16
8040b568:	26051550 	addiu	a1,s0,5456
8040b56c:	24040100 	li	a0,256
8040b570:	0c102d1a 	jal	8040b468 <exc_setup_hw_vector>
8040b574:	24060018 	li	a2,24
8040b578:	26051550 	addiu	a1,s0,5456
8040b57c:	24040180 	li	a0,384
8040b580:	0c102d1a 	jal	8040b468 <exc_setup_hw_vector>
8040b584:	24060020 	li	a2,32
8040b588:	26051550 	addiu	a1,s0,5456
8040b58c:	24040200 	li	a0,512
8040b590:	0c102d1a 	jal	8040b468 <exc_setup_hw_vector>
8040b594:	24060028 	li	a2,40
8040b598:	00002821 	move	a1,zero
8040b59c:	00003021 	move	a2,zero
8040b5a0:	0c1039ab 	jal	8040e6ac <cfe_flushcache>
8040b5a4:	24040003 	li	a0,3
8040b5a8:	0c10050f 	jal	8040143c <_exc_setup_locore>
8040b5ac:	3c04bfc0 	lui	a0,0xbfc0
8040b5b0:	0c1004e2 	jal	80401388 <_getstatus>
8040b5b4:	00000000 	nop
8040b5b8:	3c04ffbf 	lui	a0,0xffbf
8040b5bc:	3484ffff 	ori	a0,a0,0xffff
8040b5c0:	8fbf0014 	lw	ra,20(sp)
8040b5c4:	8fb00010 	lw	s0,16(sp)
8040b5c8:	00442024 	and	a0,v0,a0
8040b5cc:	081004e5 	j	80401394 <_setstatus>
8040b5d0:	27bd0018 	addiu	sp,sp,24

8040b5d4 <exc_initialize_block>:
8040b5d4:	3c048042 	lui	a0,0x8042
8040b5d8:	27bdffe8 	addiu	sp,sp,-24
8040b5dc:	24842bec 	addiu	a0,a0,11244
8040b5e0:	24050060 	li	a1,96
8040b5e4:	24030001 	li	v1,1
8040b5e8:	3c028042 	lui	v0,0x8042
8040b5ec:	00003021 	move	a2,zero
8040b5f0:	afb00010 	sw	s0,16(sp)
8040b5f4:	afbf0014 	sw	ra,20(sp)
8040b5f8:	0c103064 	jal	8040c190 <kmalloc>
8040b5fc:	ac432bdc 	sw	v1,11228(v0)
8040b600:	00408021 	move	s0,v0
8040b604:	3c048042 	lui	a0,0x8042
8040b608:	00402821 	move	a1,v0
8040b60c:	24842be4 	addiu	a0,a0,11236
8040b610:	12000004 	beqz	s0,8040b624 <exc_initialize_block+0x50>
8040b614:	00001021 	move	v0,zero
8040b618:	0c103341 	jal	8040cd04 <q_enqueue>
8040b61c:	00000000 	nop
8040b620:	02001021 	move	v0,s0
8040b624:	8fbf0014 	lw	ra,20(sp)
8040b628:	8fb00010 	lw	s0,16(sp)
8040b62c:	03e00008 	jr	ra
8040b630:	27bd0018 	addiu	sp,sp,24

8040b634 <exc_cleanup_block>:
8040b634:	27bdffe8 	addiu	sp,sp,-24
8040b638:	afb00010 	sw	s0,16(sp)
8040b63c:	00808021 	move	s0,a0
8040b640:	3c048042 	lui	a0,0x8042
8040b644:	afbf0014 	sw	ra,20(sp)
8040b648:	1200000e 	beqz	s0,8040b684 <exc_cleanup_block+0x50>
8040b64c:	24842be4 	addiu	a0,a0,11236
8040b650:	0c103377 	jal	8040cddc <q_count>
8040b654:	00000000 	nop
8040b658:	1840000a 	blez	v0,8040b684 <exc_cleanup_block+0x50>
8040b65c:	02002021 	move	a0,s0
8040b660:	0c103347 	jal	8040cd1c <q_dequeue>
8040b664:	00000000 	nop
8040b668:	3c048042 	lui	a0,0x8042
8040b66c:	02002821 	move	a1,s0
8040b670:	8fbf0014 	lw	ra,20(sp)
8040b674:	8fb00010 	lw	s0,16(sp)
8040b678:	24842bec 	addiu	a0,a0,11244
8040b67c:	08103031 	j	8040c0c4 <kfree>
8040b680:	27bd0018 	addiu	sp,sp,24
8040b684:	8fbf0014 	lw	ra,20(sp)
8040b688:	8fb00010 	lw	s0,16(sp)
8040b68c:	03e00008 	jr	ra
8040b690:	27bd0018 	addiu	sp,sp,24

8040b694 <exc_longjmp_handler>:
8040b694:	27bdffe8 	addiu	sp,sp,-24
8040b698:	afb00010 	sw	s0,16(sp)
8040b69c:	3c108042 	lui	s0,0x8042
8040b6a0:	afbf0014 	sw	ra,20(sp)
8040b6a4:	0c103377 	jal	8040cddc <q_count>
8040b6a8:	26042be4 	addiu	a0,s0,11236
8040b6ac:	3c048042 	lui	a0,0x8042
8040b6b0:	26102be4 	addiu	s0,s0,11236
8040b6b4:	18400009 	blez	v0,8040b6dc <exc_longjmp_handler+0x48>
8040b6b8:	2484bf84 	addiu	a0,a0,-16508
8040b6bc:	0c101f8e 	jal	80407e38 <cfe_ledstr>
8040b6c0:	8e100004 	lw	s0,4(s0)
8040b6c4:	8fbf0014 	lw	ra,20(sp)
8040b6c8:	26040008 	addiu	a0,s0,8
8040b6cc:	2405ffff 	li	a1,-1
8040b6d0:	8fb00010 	lw	s0,16(sp)
8040b6d4:	08103550 	j	8040d540 <lib_longjmp>
8040b6d8:	27bd0018 	addiu	sp,sp,24
8040b6dc:	8fbf0014 	lw	ra,20(sp)
8040b6e0:	8fb00010 	lw	s0,16(sp)
8040b6e4:	03e00008 	jr	ra
8040b6e8:	27bd0018 	addiu	sp,sp,24

8040b6ec <exc_cleanup_handler>:
8040b6ec:	27bdffe8 	addiu	sp,sp,-24
8040b6f0:	afb00010 	sw	s0,16(sp)
8040b6f4:	afbf0014 	sw	ra,20(sp)
8040b6f8:	0c102d8d 	jal	8040b634 <exc_cleanup_block>
8040b6fc:	00a08021 	move	s0,a1
8040b700:	24020001 	li	v0,1
8040b704:	16020004 	bne	s0,v0,8040b718 <exc_cleanup_handler+0x2c>
8040b708:	8fbf0014 	lw	ra,20(sp)
8040b70c:	8fb00010 	lw	s0,16(sp)
8040b710:	08102da5 	j	8040b694 <exc_longjmp_handler>
8040b714:	27bd0018 	addiu	sp,sp,24
8040b718:	8fb00010 	lw	s0,16(sp)
8040b71c:	03e00008 	jr	ra
8040b720:	27bd0018 	addiu	sp,sp,24

8040b724 <cfe_exception>:
8040b724:	27bdffd0 	addiu	sp,sp,-48
8040b728:	afb20028 	sw	s2,40(sp)
8040b72c:	00809021 	move	s2,a0
8040b730:	3c048042 	lui	a0,0x8042
8040b734:	afb10024 	sw	s1,36(sp)
8040b738:	2484bf8c 	addiu	a0,a0,-16500
8040b73c:	3c118042 	lui	s1,0x8042
8040b740:	afb00020 	sw	s0,32(sp)
8040b744:	afbf002c 	sw	ra,44(sp)
8040b748:	0c101f8e 	jal	80407e38 <cfe_ledstr>
8040b74c:	00a08021 	move	s0,a1
8040b750:	8e232bdc 	lw	v1,11228(s1)
8040b754:	24020001 	li	v0,1
8040b758:	14620007 	bne	v1,v0,8040b778 <cfe_exception+0x54>
8040b75c:	00000000 	nop
8040b760:	0c1005b2 	jal	804016c8 <_exc_clear_sr_exl>
8040b764:	00000000 	nop
8040b768:	0c1005bf 	jal	804016fc <_exc_clear_sr_erl>
8040b76c:	00000000 	nop
8040b770:	0c102da5 	jal	8040b694 <exc_longjmp_handler>
8040b774:	ae202bdc 	sw	zero,11228(s1)
8040b778:	8e07000c 	lw	a3,12(s0)
8040b77c:	8e060014 	lw	a2,20(s0)
8040b780:	3c048042 	lui	a0,0x8042
8040b784:	30e2007c 	andi	v0,a3,0x7c
8040b788:	00021082 	srl	v0,v0,0x2
8040b78c:	000218c0 	sll	v1,v0,0x3
8040b790:	00621821 	addu	v1,v1,v0
8040b794:	8f828074 	lw	v0,-32652(gp)
8040b798:	02402821 	move	a1,s2
8040b79c:	2484bf94 	addiu	a0,a0,-16492
8040b7a0:	00431021 	addu	v0,v0,v1
8040b7a4:	0c10331a 	jal	8040cc68 <xprintf>
8040b7a8:	afa20010 	sw	v0,16(sp)
8040b7ac:	8e05013c 	lw	a1,316(s0)
8040b7b0:	8e06001c 	lw	a2,28(s0)
8040b7b4:	3c048042 	lui	a0,0x8042
8040b7b8:	2484bfc0 	addiu	a0,a0,-16448
8040b7bc:	0c10331a 	jal	8040cc68 <xprintf>
8040b7c0:	3c128042 	lui	s2,0x8042
8040b7c4:	0c10331a 	jal	8040cc68 <xprintf>
8040b7c8:	2644a398 	addiu	a0,s2,-23656
8040b7cc:	00008821 	move	s1,zero
8040b7d0:	8f828070 	lw	v0,-32656(gp)
8040b7d4:	8e070044 	lw	a3,68(s0)
8040b7d8:	8e08004c 	lw	t0,76(s0)
8040b7dc:	00111840 	sll	v1,s1,0x1
8040b7e0:	00431021 	addu	v0,v0,v1
8040b7e4:	3c048042 	lui	a0,0x8042
8040b7e8:	26230001 	addiu	v1,s1,1
8040b7ec:	00402821 	move	a1,v0
8040b7f0:	02203021 	move	a2,s1
8040b7f4:	24420002 	addiu	v0,v0,2
8040b7f8:	2484bfe8 	addiu	a0,a0,-16408
8040b7fc:	26310002 	addiu	s1,s1,2
8040b800:	afa20010 	sw	v0,16(sp)
8040b804:	afa30014 	sw	v1,20(sp)
8040b808:	0c10331a 	jal	8040cc68 <xprintf>
8040b80c:	afa80018 	sw	t0,24(sp)
8040b810:	2a220020 	slti	v0,s1,32
8040b814:	1440ffee 	bnez	v0,8040b7d0 <cfe_exception+0xac>
8040b818:	26100010 	addiu	s0,s0,16
8040b81c:	0c10331a 	jal	8040cc68 <xprintf>
8040b820:	2644a398 	addiu	a0,s2,-23656
8040b824:	8fbf002c 	lw	ra,44(sp)
8040b828:	8fb20028 	lw	s2,40(sp)
8040b82c:	8fb10024 	lw	s1,36(sp)
8040b830:	8fb00020 	lw	s0,32(sp)
8040b834:	08100551 	j	80401544 <_exc_restart>
8040b838:	27bd0030 	addiu	sp,sp,48

8040b83c <mem_peek>:
8040b83c:	27bdffd8 	addiu	sp,sp,-40
8040b840:	afb3001c 	sw	s3,28(sp)
8040b844:	afb20018 	sw	s2,24(sp)
8040b848:	afb10014 	sw	s1,20(sp)
8040b84c:	afb00010 	sw	s0,16(sp)
8040b850:	afbf0020 	sw	ra,32(sp)
8040b854:	00809821 	move	s3,a0
8040b858:	00a09021 	move	s2,a1
8040b85c:	0c102d75 	jal	8040b5d4 <exc_initialize_block>
8040b860:	00c08021 	move	s0,a2
8040b864:	00408821 	move	s1,v0
8040b868:	1220002b 	beqz	s1,8040b918 <mem_peek+0xdc>
8040b86c:	2402fffb 	li	v0,-5
8040b870:	0c103542 	jal	8040d508 <lib_setjmp>
8040b874:	26240008 	addiu	a0,s1,8
8040b878:	1440001f 	bnez	v0,8040b8f8 <mem_peek+0xbc>
8040b87c:	00000000 	nop
8040b880:	24020002 	li	v0,2
8040b884:	12020011 	beq	s0,v0,8040b8cc <mem_peek+0x90>
8040b888:	2a020003 	slti	v0,s0,3
8040b88c:	10400006 	beqz	v0,8040b8a8 <mem_peek+0x6c>
8040b890:	24020003 	li	v0,3
8040b894:	24020001 	li	v0,1
8040b898:	12020009 	beq	s0,v0,8040b8c0 <mem_peek+0x84>
8040b89c:	2402fff8 	li	v0,-8
8040b8a0:	08102e47 	j	8040b91c <mem_peek+0xe0>
8040b8a4:	8fbf0020 	lw	ra,32(sp)
8040b8a8:	1202000b 	beq	s0,v0,8040b8d8 <mem_peek+0x9c>
8040b8ac:	24020004 	li	v0,4
8040b8b0:	1202000c 	beq	s0,v0,8040b8e4 <mem_peek+0xa8>
8040b8b4:	2402fff8 	li	v0,-8
8040b8b8:	08102e47 	j	8040b91c <mem_peek+0xe0>
8040b8bc:	8fbf0020 	lw	ra,32(sp)
8040b8c0:	92420000 	lbu	v0,0(s2)
8040b8c4:	08102e43 	j	8040b90c <mem_peek+0xd0>
8040b8c8:	a2620000 	sb	v0,0(s3)
8040b8cc:	96420000 	lhu	v0,0(s2)
8040b8d0:	08102e43 	j	8040b90c <mem_peek+0xd0>
8040b8d4:	a6620000 	sh	v0,0(s3)
8040b8d8:	8e420000 	lw	v0,0(s2)
8040b8dc:	08102e43 	j	8040b90c <mem_peek+0xd0>
8040b8e0:	ae620000 	sw	v0,0(s3)
8040b8e4:	8e430004 	lw	v1,4(s2)
8040b8e8:	8e420000 	lw	v0,0(s2)
8040b8ec:	ae630004 	sw	v1,4(s3)
8040b8f0:	08102e43 	j	8040b90c <mem_peek+0xd0>
8040b8f4:	ae620000 	sw	v0,0(s3)
8040b8f8:	02202021 	move	a0,s1
8040b8fc:	0c102dbb 	jal	8040b6ec <exc_cleanup_handler>
8040b900:	00002821 	move	a1,zero
8040b904:	08102e46 	j	8040b918 <mem_peek+0xdc>
8040b908:	2402ffdb 	li	v0,-37
8040b90c:	0c102d8d 	jal	8040b634 <exc_cleanup_block>
8040b910:	02202021 	move	a0,s1
8040b914:	00001021 	move	v0,zero
8040b918:	8fbf0020 	lw	ra,32(sp)
8040b91c:	8fb3001c 	lw	s3,28(sp)
8040b920:	8fb20018 	lw	s2,24(sp)
8040b924:	8fb10014 	lw	s1,20(sp)
8040b928:	8fb00010 	lw	s0,16(sp)
8040b92c:	03e00008 	jr	ra
8040b930:	27bd0028 	addiu	sp,sp,40

8040b934 <mem_poke>:
8040b934:	27bdffd8 	addiu	sp,sp,-40
8040b938:	afb40020 	sw	s4,32(sp)
8040b93c:	afb3001c 	sw	s3,28(sp)
8040b940:	afb20018 	sw	s2,24(sp)
8040b944:	afb10014 	sw	s1,20(sp)
8040b948:	afb00010 	sw	s0,16(sp)
8040b94c:	afbf0024 	sw	ra,36(sp)
8040b950:	0080a021 	move	s4,a0
8040b954:	00e08821 	move	s1,a3
8040b958:	00c08021 	move	s0,a2
8040b95c:	0c102d75 	jal	8040b5d4 <exc_initialize_block>
8040b960:	8fb30038 	lw	s3,56(sp)
8040b964:	00409021 	move	s2,v0
8040b968:	1240002a 	beqz	s2,8040ba14 <mem_poke+0xe0>
8040b96c:	2402fffb 	li	v0,-5
8040b970:	0c103542 	jal	8040d508 <lib_setjmp>
8040b974:	26440008 	addiu	a0,s2,8
8040b978:	1440001e 	bnez	v0,8040b9f4 <mem_poke+0xc0>
8040b97c:	00000000 	nop
8040b980:	24020002 	li	v0,2
8040b984:	12620011 	beq	s3,v0,8040b9cc <mem_poke+0x98>
8040b988:	2a620003 	slti	v0,s3,3
8040b98c:	10400006 	beqz	v0,8040b9a8 <mem_poke+0x74>
8040b990:	24020003 	li	v0,3
8040b994:	24020001 	li	v0,1
8040b998:	12620009 	beq	s3,v0,8040b9c0 <mem_poke+0x8c>
8040b99c:	2402fff8 	li	v0,-8
8040b9a0:	08102e86 	j	8040ba18 <mem_poke+0xe4>
8040b9a4:	8fbf0024 	lw	ra,36(sp)
8040b9a8:	1262000b 	beq	s3,v0,8040b9d8 <mem_poke+0xa4>
8040b9ac:	24020004 	li	v0,4
8040b9b0:	1262000c 	beq	s3,v0,8040b9e4 <mem_poke+0xb0>
8040b9b4:	2402fff8 	li	v0,-8
8040b9b8:	08102e86 	j	8040ba18 <mem_poke+0xe4>
8040b9bc:	8fbf0024 	lw	ra,36(sp)
8040b9c0:	a2910000 	sb	s1,0(s4)
8040b9c4:	08102e82 	j	8040ba08 <mem_poke+0xd4>
8040b9c8:	00000000 	nop
8040b9cc:	a6910000 	sh	s1,0(s4)
8040b9d0:	08102e82 	j	8040ba08 <mem_poke+0xd4>
8040b9d4:	00000000 	nop
8040b9d8:	ae910000 	sw	s1,0(s4)
8040b9dc:	08102e82 	j	8040ba08 <mem_poke+0xd4>
8040b9e0:	00000000 	nop
8040b9e4:	ae910004 	sw	s1,4(s4)
8040b9e8:	ae900000 	sw	s0,0(s4)
8040b9ec:	08102e82 	j	8040ba08 <mem_poke+0xd4>
8040b9f0:	00000000 	nop
8040b9f4:	02402021 	move	a0,s2
8040b9f8:	0c102dbb 	jal	8040b6ec <exc_cleanup_handler>
8040b9fc:	00002821 	move	a1,zero
8040ba00:	08102e85 	j	8040ba14 <mem_poke+0xe0>
8040ba04:	2402ffda 	li	v0,-38
8040ba08:	0c102d8d 	jal	8040b634 <exc_cleanup_block>
8040ba0c:	02402021 	move	a0,s2
8040ba10:	00001021 	move	v0,zero
8040ba14:	8fbf0024 	lw	ra,36(sp)
8040ba18:	8fb40020 	lw	s4,32(sp)
8040ba1c:	8fb3001c 	lw	s3,28(sp)
8040ba20:	8fb20018 	lw	s2,24(sp)
8040ba24:	8fb10014 	lw	s1,20(sp)
8040ba28:	8fb00010 	lw	s0,16(sp)
8040ba2c:	03e00008 	jr	ra
8040ba30:	27bd0028 	addiu	sp,sp,40

8040ba34 <cpuinit_table>:
8040ba34:	8040ba48 	lb	zero,-17848(v0)
8040ba38:	8040bd08 	lb	zero,-17144(v0)
8040ba3c:	80403f88 	lb	zero,16264(v0)
8040ba40:	8040bea0 	lb	zero,-16736(v0)
8040ba44:	8040be14 	lb	zero,-16876(v0)

8040ba48 <bcmcore_cp0_init>:
8040ba48:	40809000 	mtc0	zero,c0_watchlo
8040ba4c:	40809800 	mtc0	zero,c0_watchhi
8040ba50:	40806800 	mtc0	zero,c0_cause
8040ba54:	40026000 	mfc0	v0,c0_status
8040ba58:	3c010010 	lui	at,0x10
8040ba5c:	00411024 	and	v0,v0,at
8040ba60:	3c010040 	lui	at,0x40
8040ba64:	00411025 	or	v0,v0,at
8040ba68:	40826000 	mtc0	v0,c0_status
8040ba6c:	40028000 	mfc0	v0,c0_config
8040ba70:	000210c2 	srl	v0,v0,0x3
8040ba74:	000210c0 	sll	v0,v0,0x3
8040ba78:	34420003 	ori	v0,v0,0x3
8040ba7c:	40828000 	mtc0	v0,c0_config
8040ba80:	00000000 	nop
8040ba84:	40809000 	mtc0	zero,c0_watchlo
8040ba88:	40809800 	mtc0	zero,c0_watchhi
8040ba8c:	40805000 	mtc0	zero,c0_entryhi
8040ba90:	00000000 	nop
8040ba94:	2402ffff 	li	v0,-1
8040ba98:	40825800 	mtc0	v0,c0_compare
8040ba9c:	00000000 	nop
8040baa0:	40801000 	mtc0	zero,c0_entrylo0
8040baa4:	00000000 	nop
8040baa8:	40801800 	mtc0	zero,c0_entrylo1
8040baac:	00000000 	nop
8040bab0:	40802800 	mtc0	zero,c0_pagemask
8040bab4:	00000000 	nop
8040bab8:	3c08a000 	lui	t0,0xa000
8040babc:	2409001f 	li	t1,31
8040bac0:	00000000 	nop
8040bac4:	40885000 	mtc0	t0,c0_entryhi
8040bac8:	00000000 	nop
8040bacc:	40890000 	mtc0	t1,c0_index
8040bad0:	00000000 	nop
8040bad4:	25082000 	addiu	t0,t0,8192
8040bad8:	42000002 	tlbwi
8040badc:	1520fff9 	bnez	t1,8040bac4 <bcmcore_cp0_init+0x7c>
8040bae0:	2529ffff 	addiu	t1,t1,-1
8040bae4:	03e00008 	jr	ra
8040bae8:	00000000 	nop

8040baec <bcmcore_cpuinit>:
8040baec:	03e0f021 	move	s8,ra
8040baf0:	3c044350 	lui	a0,0x4350
8040baf4:	34845549 	ori	a0,a0,0x5549
8040baf8:	3c1b8041 	lui	k1,0x8041
8040bafc:	277bba34 	addiu	k1,k1,-17868
8040bb00:	3c01a000 	lui	at,0xa000
8040bb04:	0361d825 	or	k1,k1,at
8040bb08:	8f7b0008 	lw	k1,8(k1)
8040bb0c:	3c01a000 	lui	at,0xa000
8040bb10:	0361d825 	or	k1,k1,at
8040bb14:	0360f809 	jalr	k1
8040bb18:	00000000 	nop
8040bb1c:	3c1b8041 	lui	k1,0x8041
8040bb20:	277bba34 	addiu	k1,k1,-17868
8040bb24:	3c01a000 	lui	at,0xa000
8040bb28:	0361d825 	or	k1,k1,at
8040bb2c:	8f7b0000 	lw	k1,0(k1)
8040bb30:	3c01a000 	lui	at,0xa000
8040bb34:	0361d825 	or	k1,k1,at
8040bb38:	0360f809 	jalr	k1
8040bb3c:	00000000 	nop
8040bb40:	3c044c31 	lui	a0,0x4c31
8040bb44:	34844349 	ori	a0,a0,0x4349
8040bb48:	3c1b8041 	lui	k1,0x8041
8040bb4c:	277bba34 	addiu	k1,k1,-17868
8040bb50:	3c01a000 	lui	at,0xa000
8040bb54:	0361d825 	or	k1,k1,at
8040bb58:	8f7b0008 	lw	k1,8(k1)
8040bb5c:	3c01a000 	lui	at,0xa000
8040bb60:	0361d825 	or	k1,k1,at
8040bb64:	0360f809 	jalr	k1
8040bb68:	00000000 	nop
8040bb6c:	3c1b8041 	lui	k1,0x8041
8040bb70:	277bba34 	addiu	k1,k1,-17868
8040bb74:	3c01a000 	lui	at,0xa000
8040bb78:	0361d825 	or	k1,k1,at
8040bb7c:	8f7b0004 	lw	k1,4(k1)
8040bb80:	3c01a000 	lui	at,0xa000
8040bb84:	0361d825 	or	k1,k1,at
8040bb88:	0360f809 	jalr	k1
8040bb8c:	00000000 	nop
8040bb90:	03c0f821 	move	ra,s8
8040bb94:	03e00008 	jr	ra
8040bb98:	00000000 	nop

8040bb9c <bcmcore_kseg0_switch>:
8040bb9c:	3c011fff 	lui	at,0x1fff
8040bba0:	3421ffff 	ori	at,at,0xffff
8040bba4:	03e1f824 	and	ra,ra,at
8040bba8:	3c018000 	lui	at,0x8000
8040bbac:	03e1f825 	or	ra,ra,at
8040bbb0:	03e00008 	jr	ra
8040bbb4:	00000000 	nop

8040bbb8 <bcmcore_null>:
8040bbb8:	03e00008 	jr	ra
8040bbbc:	00000000 	nop

8040bbc0 <bcmcore_cpurestart>:
8040bbc0:	03e00008 	jr	ra
8040bbc4:	00000000 	nop

8040bbc8 <bcmcore_cacheops>:
8040bbc8:	03e08021 	move	s0,ra
8040bbcc:	00801821 	move	v1,a0
8040bbd0:	14600002 	bnez	v1,8040bbdc <bcmcore_cacheops+0x14>
8040bbd4:	00000000 	nop
8040bbd8:	24030003 	li	v1,3
8040bbdc:	30640001 	andi	a0,v1,0x1
8040bbe0:	1080000a 	beqz	a0,8040bc0c <bcmcore_cacheops+0x44>
8040bbe4:	00000000 	nop
8040bbe8:	3c1b8041 	lui	k1,0x8041
8040bbec:	277bba34 	addiu	k1,k1,-17868
8040bbf0:	3c01a000 	lui	at,0xa000
8040bbf4:	0361d825 	or	k1,k1,at
8040bbf8:	8f7b000c 	lw	k1,12(k1)
8040bbfc:	3c01a000 	lui	at,0xa000
8040bc00:	0361d825 	or	k1,k1,at
8040bc04:	0360f809 	jalr	k1
8040bc08:	00000000 	nop
8040bc0c:	30640002 	andi	a0,v1,0x2
8040bc10:	1080000a 	beqz	a0,8040bc3c <bcmcore_cacheops+0x74>
8040bc14:	00000000 	nop
8040bc18:	3c1b8041 	lui	k1,0x8041
8040bc1c:	277bba34 	addiu	k1,k1,-17868
8040bc20:	3c01a000 	lui	at,0xa000
8040bc24:	0361d825 	or	k1,k1,at
8040bc28:	8f7b0010 	lw	k1,16(k1)
8040bc2c:	3c01a000 	lui	at,0xa000
8040bc30:	0361d825 	or	k1,k1,at
8040bc34:	0360f809 	jalr	k1
8040bc38:	00000000 	nop
8040bc3c:	30640020 	andi	a0,v1,0x20
8040bc40:	10800007 	beqz	a0,8040bc60 <bcmcore_cacheops+0x98>
8040bc44:	00000000 	nop
8040bc48:	00a04021 	move	t0,a1
8040bc4c:	bd110000 	cache	0x11,0(t0)
8040bc50:	21080010 	addi	t0,t0,16
8040bc54:	0106082a 	slt	at,t0,a2
8040bc58:	1420fffc 	bnez	at,8040bc4c <bcmcore_cacheops+0x84>
8040bc5c:	00000000 	nop
8040bc60:	30640040 	andi	a0,v1,0x40
8040bc64:	10800007 	beqz	a0,8040bc84 <bcmcore_cacheops+0xbc>
8040bc68:	00000000 	nop
8040bc6c:	00a04021 	move	t0,a1
8040bc70:	bd150000 	cache	0x15,0(t0)
8040bc74:	21080010 	addi	t0,t0,16
8040bc78:	0106082a 	slt	at,t0,a2
8040bc7c:	1420fffc 	bnez	at,8040bc70 <bcmcore_cacheops+0xa8>
8040bc80:	00000000 	nop
8040bc84:	0200f821 	move	ra,s0
8040bc88:	03e00008 	jr	ra
8040bc8c:	00000000 	nop

8040bc90 <bcmcore_tlbhandler>:
8040bc90:	401a5000 	mfc0	k0,c0_entryhi
8040bc94:	401a2000 	mfc0	k0,c0_context
8040bc98:	001ad203 	sra	k0,k0,0x8
8040bc9c:	335a1fff 	andi	k0,k0,0x1fff
8040bca0:	241b1000 	li	k1,4096
8040bca4:	135b0007 	beq	k0,k1,8040bcc4 <bcmcore_tlbhandler+0x34>
8040bca8:	00000000 	nop
8040bcac:	241b1001 	li	k1,4097
8040bcb0:	135b0004 	beq	k0,k1,8040bcc4 <bcmcore_tlbhandler+0x34>
8040bcb4:	00000000 	nop
8040bcb8:	241a0008 	li	k0,8
8040bcbc:	08100554 	j	80401550 <_exc_entry>
8040bcc0:	00000000 	nop
8040bcc4:	401a2000 	mfc0	k0,c0_context
8040bcc8:	001ad343 	sra	k0,k0,0xd
8040bccc:	241b03ff 	li	k1,1023
8040bcd0:	0360d827 	nor	k1,k1,zero
8040bcd4:	035bd024 	and	k0,k0,k1
8040bcd8:	401b2000 	mfc0	k1,c0_context
8040bcdc:	337b03f0 	andi	k1,k1,0x3f0
8040bce0:	037ad825 	or	k1,k1,k0
8040bce4:	8f7a0000 	lw	k0,0(k1)
8040bce8:	8f7b0004 	lw	k1,4(k1)
8040bcec:	8f7b0008 	lw	k1,8(k1)
8040bcf0:	8f7c000c 	lw	gp,12(k1)
8040bcf4:	409a1000 	mtc0	k0,c0_entrylo0
8040bcf8:	409b1800 	mtc0	k1,c0_entrylo1
8040bcfc:	42000006 	tlbwr
8040bd00:	42000018 	eret
8040bd04:	00000000 	nop

8040bd08 <bcmcore_l1cache_init>:
8040bd08:	4080e000 	mtc0	zero,c0_taglo
8040bd0c:	4080e001 	mtc0	zero,c0_datalo
8040bd10:	3c048000 	lui	a0,0x8000
8040bd14:	400f8001 	mfc0	t7,c0_config1
8040bd18:	3c010038 	lui	at,0x38
8040bd1c:	01e14024 	and	t0,t7,at
8040bd20:	000844c2 	srl	t0,t0,0x13
8040bd24:	00003021 	move	a2,zero
8040bd28:	11000004 	beqz	t0,8040bd3c <bcmcore_l1cache_init+0x34>
8040bd2c:	00000000 	nop
8040bd30:	21080001 	addi	t0,t0,1
8040bd34:	24060001 	li	a2,1
8040bd38:	01063004 	sllv	a2,a2,t0
8040bd3c:	3c0101c0 	lui	at,0x1c0
8040bd40:	01e14024 	and	t0,t7,at
8040bd44:	00084582 	srl	t0,t0,0x16
8040bd48:	24050040 	li	a1,64
8040bd4c:	01052804 	sllv	a1,a1,t0
8040bd50:	3c010007 	lui	at,0x7
8040bd54:	01e14024 	and	t0,t7,at
8040bd58:	00084402 	srl	t0,t0,0x10
8040bd5c:	21080001 	addi	t0,t0,1
8040bd60:	00a80018 	mult	a1,t0
8040bd64:	00002812 	mflo	a1
8040bd68:	00a60018 	mult	a1,a2
8040bd6c:	00002812 	mflo	a1
8040bd70:	00854821 	addu	t1,a0,a1
8040bd74:	24caffff 	addiu	t2,a2,-1
8040bd78:	01405027 	nor	t2,t2,zero
8040bd7c:	008a4024 	and	t0,a0,t2
8040bd80:	2529ffff 	addiu	t1,t1,-1
8040bd84:	012a4824 	and	t1,t1,t2
8040bd88:	bd080000 	cache	0x8,0(t0)
8040bd8c:	1509fffe 	bne	t0,t1,8040bd88 <bcmcore_l1cache_init+0x80>
8040bd90:	01064021 	addu	t0,t0,a2
8040bd94:	3c048000 	lui	a0,0x8000
8040bd98:	400f8001 	mfc0	t7,c0_config1
8040bd9c:	31e81c00 	andi	t0,t7,0x1c00
8040bda0:	00084282 	srl	t0,t0,0xa
8040bda4:	00003021 	move	a2,zero
8040bda8:	11000004 	beqz	t0,8040bdbc <bcmcore_l1cache_init+0xb4>
8040bdac:	00000000 	nop
8040bdb0:	21080001 	addi	t0,t0,1
8040bdb4:	24060001 	li	a2,1
8040bdb8:	01063004 	sllv	a2,a2,t0
8040bdbc:	31e8e000 	andi	t0,t7,0xe000
8040bdc0:	00084342 	srl	t0,t0,0xd
8040bdc4:	24050040 	li	a1,64
8040bdc8:	01052804 	sllv	a1,a1,t0
8040bdcc:	31e80380 	andi	t0,t7,0x380
8040bdd0:	000841c2 	srl	t0,t0,0x7
8040bdd4:	21080001 	addi	t0,t0,1
8040bdd8:	00a80018 	mult	a1,t0
8040bddc:	00002812 	mflo	a1
8040bde0:	00a60018 	mult	a1,a2
8040bde4:	00002812 	mflo	a1
8040bde8:	00854821 	addu	t1,a0,a1
8040bdec:	24caffff 	addiu	t2,a2,-1
8040bdf0:	01405027 	nor	t2,t2,zero
8040bdf4:	008a4024 	and	t0,a0,t2
8040bdf8:	2529ffff 	addiu	t1,t1,-1
8040bdfc:	012a4824 	and	t1,t1,t2
8040be00:	bd090000 	cache	0x9,0(t0)
8040be04:	1509fffe 	bne	t0,t1,8040be00 <bcmcore_l1cache_init+0xf8>
8040be08:	01064021 	addu	t0,t0,a2
8040be0c:	03e00008 	jr	ra
8040be10:	00000000 	nop

8040be14 <bcmcore_l1cache_inval_i>:
8040be14:	3c048000 	lui	a0,0x8000
8040be18:	400f8001 	mfc0	t7,c0_config1
8040be1c:	3c010038 	lui	at,0x38
8040be20:	01e14024 	and	t0,t7,at
8040be24:	000844c2 	srl	t0,t0,0x13
8040be28:	00003021 	move	a2,zero
8040be2c:	11000004 	beqz	t0,8040be40 <bcmcore_l1cache_inval_i+0x2c>
8040be30:	00000000 	nop
8040be34:	21080001 	addi	t0,t0,1
8040be38:	24060001 	li	a2,1
8040be3c:	01063004 	sllv	a2,a2,t0
8040be40:	3c0101c0 	lui	at,0x1c0
8040be44:	01e14024 	and	t0,t7,at
8040be48:	00084582 	srl	t0,t0,0x16
8040be4c:	24050040 	li	a1,64
8040be50:	01052804 	sllv	a1,a1,t0
8040be54:	3c010007 	lui	at,0x7
8040be58:	01e14024 	and	t0,t7,at
8040be5c:	00084402 	srl	t0,t0,0x10
8040be60:	21080001 	addi	t0,t0,1
8040be64:	00a80018 	mult	a1,t0
8040be68:	00002812 	mflo	a1
8040be6c:	00a60018 	mult	a1,a2
8040be70:	00002812 	mflo	a1
8040be74:	00854821 	addu	t1,a0,a1
8040be78:	24caffff 	addiu	t2,a2,-1
8040be7c:	01405027 	nor	t2,t2,zero
8040be80:	008a4024 	and	t0,a0,t2
8040be84:	2529ffff 	addiu	t1,t1,-1
8040be88:	012a4824 	and	t1,t1,t2
8040be8c:	bd000000 	cache	0x0,0(t0)
8040be90:	1509fffe 	bne	t0,t1,8040be8c <bcmcore_l1cache_inval_i+0x78>
8040be94:	01064021 	addu	t0,t0,a2
8040be98:	03e00008 	jr	ra
8040be9c:	00000000 	nop

8040bea0 <bcmcore_l1cache_flush_d>:
8040bea0:	3c048000 	lui	a0,0x8000
8040bea4:	400f8001 	mfc0	t7,c0_config1
8040bea8:	31e81c00 	andi	t0,t7,0x1c00
8040beac:	00084282 	srl	t0,t0,0xa
8040beb0:	00003021 	move	a2,zero
8040beb4:	11000004 	beqz	t0,8040bec8 <bcmcore_l1cache_flush_d+0x28>
8040beb8:	00000000 	nop
8040bebc:	21080001 	addi	t0,t0,1
8040bec0:	24060001 	li	a2,1
8040bec4:	01063004 	sllv	a2,a2,t0
8040bec8:	31e8e000 	andi	t0,t7,0xe000
8040becc:	00084342 	srl	t0,t0,0xd
8040bed0:	24050040 	li	a1,64
8040bed4:	01052804 	sllv	a1,a1,t0
8040bed8:	31e80380 	andi	t0,t7,0x380
8040bedc:	000841c2 	srl	t0,t0,0x7
8040bee0:	21080001 	addi	t0,t0,1
8040bee4:	00a80018 	mult	a1,t0
8040bee8:	00002812 	mflo	a1
8040beec:	00a60018 	mult	a1,a2
8040bef0:	00002812 	mflo	a1
8040bef4:	00854821 	addu	t1,a0,a1
8040bef8:	24caffff 	addiu	t2,a2,-1
8040befc:	01405027 	nor	t2,t2,zero
8040bf00:	008a4024 	and	t0,a0,t2
8040bf04:	2529ffff 	addiu	t1,t1,-1
8040bf08:	012a4824 	and	t1,t1,t2
8040bf0c:	bd050000 	cache	0x5,0(t0)
	...
8040bf28:	400ae000 	mfc0	t2,c0_taglo
8040bf2c:	3c011f00 	lui	at,0x1f00
8040bf30:	01415024 	and	t2,t2,at
8040bf34:	3c0b1f00 	lui	t3,0x1f00
8040bf38:	154b0003 	bne	t2,t3,8040bf48 <bcmcore_l1cache_flush_d+0xa8>
8040bf3c:	00000000 	nop
8040bf40:	4080e000 	mtc0	zero,c0_taglo
8040bf44:	bd090000 	cache	0x9,0(t0)
8040bf48:	1509fff0 	bne	t0,t1,8040bf0c <bcmcore_l1cache_flush_d+0x6c>
8040bf4c:	01064021 	addu	t0,t0,a2
8040bf50:	00854821 	addu	t1,a0,a1
8040bf54:	24caffff 	addiu	t2,a2,-1
8040bf58:	01405027 	nor	t2,t2,zero
8040bf5c:	008a4024 	and	t0,a0,t2
8040bf60:	2529ffff 	addiu	t1,t1,-1
8040bf64:	012a4824 	and	t1,t1,t2
8040bf68:	bd010000 	cache	0x1,0(t0)
8040bf6c:	1509fffe 	bne	t0,t1,8040bf68 <bcmcore_l1cache_flush_d+0xc8>
8040bf70:	01064021 	addu	t0,t0,a2
8040bf74:	03e00008 	jr	ra
8040bf78:	00000000 	nop

8040bf7c <bcmcore_arena_init>:
8040bf7c:	27bdffd8 	addiu	sp,sp,-40
8040bf80:	afb00020 	sw	s0,32(sp)
8040bf84:	3c108042 	lui	s0,0x8042
8040bf88:	26042cf8 	addiu	a0,s0,11512
8040bf8c:	00003821 	move	a3,zero
8040bf90:	00003021 	move	a2,zero
8040bf94:	afbf0024 	sw	ra,36(sp)
8040bf98:	afa70014 	sw	a3,20(sp)
8040bf9c:	0c10355e 	jal	8040d578 <arena_init>
8040bfa0:	afa60010 	sw	a2,16(sp)
8040bfa4:	00001021 	move	v0,zero
8040bfa8:	26042cf8 	addiu	a0,s0,11512
8040bfac:	3c031000 	lui	v1,0x1000
8040bfb0:	afa20010 	sw	v0,16(sp)
8040bfb4:	00003821 	move	a3,zero
8040bfb8:	00003021 	move	a2,zero
8040bfbc:	24020002 	li	v0,2
8040bfc0:	afa30014 	sw	v1,20(sp)
8040bfc4:	afa20018 	sw	v0,24(sp)
8040bfc8:	0c103610 	jal	8040d840 <arena_markrange>
8040bfcc:	afa0001c 	sw	zero,28(sp)
8040bfd0:	8f84800c 	lw	a0,-32756(gp)
8040bfd4:	00003821 	move	a3,zero
8040bfd8:	00003021 	move	a2,zero
8040bfdc:	000417c3 	sra	v0,a0,0x1f
8040bfe0:	00801821 	move	v1,a0
8040bfe4:	00021500 	sll	v0,v0,0x14
8040bfe8:	00042302 	srl	a0,a0,0xc
8040bfec:	00441025 	or	v0,v0,a0
8040bff0:	00031d00 	sll	v1,v1,0x14
8040bff4:	26042cf8 	addiu	a0,s0,11512
8040bff8:	afa20010 	sw	v0,16(sp)
8040bffc:	24020001 	li	v0,1
8040c000:	afa30014 	sw	v1,20(sp)
8040c004:	afa20018 	sw	v0,24(sp)
8040c008:	0c103610 	jal	8040d840 <arena_markrange>
8040c00c:	afa0001c 	sw	zero,28(sp)
8040c010:	00001021 	move	v0,zero
8040c014:	afa20010 	sw	v0,16(sp)
8040c018:	26042cf8 	addiu	a0,s0,11512
8040c01c:	3c030020 	lui	v1,0x20
8040c020:	24020004 	li	v0,4
8040c024:	3c071fc0 	lui	a3,0x1fc0
8040c028:	00003021 	move	a2,zero
8040c02c:	afa30014 	sw	v1,20(sp)
8040c030:	afa20018 	sw	v0,24(sp)
8040c034:	0c103610 	jal	8040d840 <arena_markrange>
8040c038:	afa0001c 	sw	zero,28(sp)
8040c03c:	8fbf0024 	lw	ra,36(sp)
8040c040:	8fb00020 	lw	s0,32(sp)
8040c044:	03e00008 	jr	ra
8040c048:	27bd0028 	addiu	sp,sp,40

8040c04c <bcmcore_pagetable_init>:
8040c04c:	2406003f 	li	a2,63
8040c050:	00051182 	srl	v0,a1,0x6
8040c054:	3442001e 	ori	v0,v0,0x1e
8040c058:	00401821 	move	v1,v0
8040c05c:	24c6ffff 	addiu	a2,a2,-1
8040c060:	00001021 	move	v0,zero
8040c064:	ac830004 	sw	v1,4(a0)
8040c068:	ac820000 	sw	v0,0(a0)
8040c06c:	24a51000 	addiu	a1,a1,4096
8040c070:	04c1fff7 	bgez	a2,8040c050 <bcmcore_pagetable_init+0x4>
8040c074:	24840008 	addiu	a0,a0,8
8040c078:	03e00008 	jr	ra
8040c07c:	00000000 	nop

8040c080 <kmeminit>:
8040c080:	3c02faaf 	lui	v0,0xfaaf
8040c084:	24c3ffe8 	addiu	v1,a2,-24
8040c088:	24a70018 	addiu	a3,a1,24
8040c08c:	3442a123 	ori	v0,v0,0xa123
8040c090:	aca20000 	sw	v0,0(a1)
8040c094:	aca30008 	sw	v1,8(a1)
8040c098:	aca70010 	sw	a3,16(a1)
8040c09c:	ac850000 	sw	a1,0(a0)
8040c0a0:	ac860008 	sw	a2,8(a0)
8040c0a4:	ac850004 	sw	a1,4(a0)
8040c0a8:	aca0000c 	sw	zero,12(a1)
8040c0ac:	03e00008 	jr	ra
8040c0b0:	aca00004 	sw	zero,4(a1)

8040c0b4 <kmempoolbase>:
8040c0b4:	03e00008 	jr	ra
8040c0b8:	8c820004 	lw	v0,4(a0)

8040c0bc <kmempoolsize>:
8040c0bc:	03e00008 	jr	ra
8040c0c0:	8c820008 	lw	v0,8(a0)

8040c0c4 <kfree>:
8040c0c4:	8c830004 	lw	v1,4(a0)
8040c0c8:	00a3102b 	sltu	v0,a1,v1
8040c0cc:	1440002b 	bnez	v0,8040c17c <kfree+0xb8>
8040c0d0:	00804021 	move	t0,a0
8040c0d4:	8c820008 	lw	v0,8(a0)
8040c0d8:	00621021 	addu	v0,v1,v0
8040c0dc:	00a2102b 	sltu	v0,a1,v0
8040c0e0:	10400026 	beqz	v0,8040c17c <kfree+0xb8>
8040c0e4:	3c02faaf 	lui	v0,0xfaaf
8040c0e8:	8ca5fffc 	lw	a1,-4(a1)
8040c0ec:	3442a123 	ori	v0,v0,0xa123
8040c0f0:	8ca30000 	lw	v1,0(a1)
8040c0f4:	14620021 	bne	v1,v0,8040c17c <kfree+0xb8>
8040c0f8:	00000000 	nop
8040c0fc:	aca0000c 	sw	zero,12(a1)
8040c100:	3c0afaaf 	lui	t2,0xfaaf
8040c104:	8d050000 	lw	a1,0(t0)
8040c108:	10a0001c 	beqz	a1,8040c17c <kfree+0xb8>
8040c10c:	00003821 	move	a3,zero
8040c110:	3549a123 	ori	t1,t2,0xa123
8040c114:	8ca20000 	lw	v0,0(a1)
8040c118:	14490018 	bne	v0,t1,8040c17c <kfree+0xb8>
8040c11c:	00000000 	nop
8040c120:	8ca60004 	lw	a2,4(a1)
8040c124:	10c00010 	beqz	a2,8040c168 <kfree+0xa4>
8040c128:	00000000 	nop
8040c12c:	8ca2000c 	lw	v0,12(a1)
8040c130:	1440000d 	bnez	v0,8040c168 <kfree+0xa4>
8040c134:	00000000 	nop
8040c138:	8cc2000c 	lw	v0,12(a2)
8040c13c:	1440000a 	bnez	v0,8040c168 <kfree+0xa4>
8040c140:	00000000 	nop
8040c144:	8ca20008 	lw	v0,8(a1)
8040c148:	8cc30008 	lw	v1,8(a2)
8040c14c:	8cc40004 	lw	a0,4(a2)
8040c150:	24e70001 	addiu	a3,a3,1
8040c154:	00431021 	addu	v0,v0,v1
8040c158:	24420018 	addiu	v0,v0,24
8040c15c:	acc00000 	sw	zero,0(a2)
8040c160:	aca20008 	sw	v0,8(a1)
8040c164:	aca40004 	sw	a0,4(a1)
8040c168:	8ca50004 	lw	a1,4(a1)
8040c16c:	14a0ffe9 	bnez	a1,8040c114 <kfree+0x50>
8040c170:	00000000 	nop
8040c174:	1ce0ffe3 	bgtz	a3,8040c104 <kfree+0x40>
8040c178:	00000000 	nop
8040c17c:	03e00008 	jr	ra
8040c180:	00000000 	nop

8040c184 <lib_outofmemory>:
8040c184:	3c048042 	lui	a0,0x8042
8040c188:	0810331a 	j	8040cc68 <xprintf>
8040c18c:	2484c01c 	addiu	a0,a0,-16356

8040c190 <kmalloc>:
8040c190:	27bdffe8 	addiu	sp,sp,-24
8040c194:	2cc30004 	sltiu	v1,a2,4
8040c198:	24020008 	li	v0,8
8040c19c:	afbf0010 	sw	ra,16(sp)
8040c1a0:	14a00003 	bnez	a1,8040c1b0 <kmalloc+0x20>
8040c1a4:	0043300b 	movn	a2,v0,v1
8040c1a8:	08103071 	j	8040c1c4 <kmalloc+0x34>
8040c1ac:	24050004 	li	a1,4
8040c1b0:	30a20003 	andi	v0,a1,0x3
8040c1b4:	10400003 	beqz	v0,8040c1c4 <kmalloc+0x34>
8040c1b8:	2402fffc 	li	v0,-4
8040c1bc:	24a50004 	addiu	a1,a1,4
8040c1c0:	00a22824 	and	a1,a1,v0
8040c1c4:	8c880000 	lw	t0,0(a0)
8040c1c8:	11000016 	beqz	t0,8040c224 <kmalloc+0x94>
8040c1cc:	240a0001 	li	t2,1
8040c1d0:	24c9ffff 	addiu	t1,a2,-1
8040c1d4:	8d02000c 	lw	v0,12(t0)
8040c1d8:	25070018 	addiu	a3,t0,24
8040c1dc:	104a000a 	beq	v0,t2,8040c208 <kmalloc+0x78>
8040c1e0:	00e91824 	and	v1,a3,t1
8040c1e4:	00c31023 	subu	v0,a2,v1
8040c1e8:	10600002 	beqz	v1,8040c1f4 <kmalloc+0x64>
8040c1ec:	00002021 	move	a0,zero
8040c1f0:	00a22021 	addu	a0,a1,v0
8040c1f4:	8d020008 	lw	v0,8(t0)
8040c1f8:	00a42021 	addu	a0,a1,a0
8040c1fc:	0044102b 	sltu	v0,v0,a0
8040c200:	10400006 	beqz	v0,8040c21c <kmalloc+0x8c>
8040c204:	00000000 	nop
8040c208:	8d080004 	lw	t0,4(t0)
8040c20c:	1500fff1 	bnez	t0,8040c1d4 <kmalloc+0x44>
8040c210:	00000000 	nop
8040c214:	08103089 	j	8040c224 <kmalloc+0x94>
8040c218:	00000000 	nop
8040c21c:	15000005 	bnez	t0,8040c234 <kmalloc+0xa4>
8040c220:	24c3ffff 	addiu	v1,a2,-1
8040c224:	0c103061 	jal	8040c184 <lib_outofmemory>
8040c228:	00000000 	nop
8040c22c:	081030b3 	j	8040c2cc <kmalloc+0x13c>
8040c230:	00003021 	move	a2,zero
8040c234:	00e31024 	and	v0,a3,v1
8040c238:	10400003 	beqz	v0,8040c248 <kmalloc+0xb8>
8040c23c:	00031027 	nor	v0,zero,v1
8040c240:	00e63821 	addu	a3,a3,a2
8040c244:	00e23824 	and	a3,a3,v0
8040c248:	8d030008 	lw	v1,8(t0)
8040c24c:	24090001 	li	t1,1
8040c250:	ad070010 	sw	a3,16(t0)
8040c254:	00641023 	subu	v0,v1,a0
8040c258:	2c420040 	sltiu	v0,v0,64
8040c25c:	ad09000c 	sw	t1,12(t0)
8040c260:	ace8fffc 	sw	t0,-4(a3)
8040c264:	14400019 	bnez	v0,8040c2cc <kmalloc+0x13c>
8040c268:	00e03021 	move	a2,a3
8040c26c:	00e53821 	addu	a3,a3,a1
8040c270:	30e20003 	andi	v0,a3,0x3
8040c274:	10400005 	beqz	v0,8040c28c <kmalloc+0xfc>
8040c278:	24e20018 	addiu	v0,a3,24
8040c27c:	24e70004 	addiu	a3,a3,4
8040c280:	2402fffc 	li	v0,-4
8040c284:	00e23824 	and	a3,a3,v0
8040c288:	24e20018 	addiu	v0,a3,24
8040c28c:	ace20010 	sw	v0,16(a3)
8040c290:	00e81023 	subu	v0,a3,t0
8040c294:	8d040004 	lw	a0,4(t0)
8040c298:	2442ffe8 	addiu	v0,v0,-24
8040c29c:	ad020008 	sw	v0,8(t0)
8040c2a0:	01031821 	addu	v1,t0,v1
8040c2a4:	3c02faaf 	lui	v0,0xfaaf
8040c2a8:	8d060010 	lw	a2,16(t0)
8040c2ac:	00671823 	subu	v1,v1,a3
8040c2b0:	3442a123 	ori	v0,v0,0xa123
8040c2b4:	ace40004 	sw	a0,4(a3)
8040c2b8:	ad09000c 	sw	t1,12(t0)
8040c2bc:	ace20000 	sw	v0,0(a3)
8040c2c0:	ace30008 	sw	v1,8(a3)
8040c2c4:	ace0000c 	sw	zero,12(a3)
8040c2c8:	ad070004 	sw	a3,4(t0)
8040c2cc:	8fbf0010 	lw	ra,16(sp)
8040c2d0:	00c01021 	move	v0,a2
8040c2d4:	03e00008 	jr	ra
8040c2d8:	27bd0018 	addiu	sp,sp,24

8040c2dc <kmemstats>:
8040c2dc:	8c820008 	lw	v0,8(a0)
8040c2e0:	8c860000 	lw	a2,0(a0)
8040c2e4:	aca00004 	sw	zero,4(a1)
8040c2e8:	aca20000 	sw	v0,0(a1)
8040c2ec:	aca00008 	sw	zero,8(a1)
8040c2f0:	aca0000c 	sw	zero,12(a1)
8040c2f4:	aca00010 	sw	zero,16(a1)
8040c2f8:	10c00037 	beqz	a2,8040c3d8 <kmemstats+0xfc>
8040c2fc:	aca00014 	sw	zero,20(a1)
8040c300:	3c02faaf 	lui	v0,0xfaaf
8040c304:	3449a123 	ori	t1,v0,0xa123
8040c308:	24080001 	li	t0,1
8040c30c:	8cc7000c 	lw	a3,12(a2)
8040c310:	10e00009 	beqz	a3,8040c338 <kmemstats+0x5c>
8040c314:	00000000 	nop
8040c318:	8ca2000c 	lw	v0,12(a1)
8040c31c:	8ca30004 	lw	v1,4(a1)
8040c320:	24420001 	addiu	v0,v0,1
8040c324:	aca2000c 	sw	v0,12(a1)
8040c328:	8cc20008 	lw	v0,8(a2)
8040c32c:	00621821 	addu	v1,v1,v0
8040c330:	081030db 	j	8040c36c <kmemstats+0x90>
8040c334:	aca30004 	sw	v1,4(a1)
8040c338:	8ca20010 	lw	v0,16(a1)
8040c33c:	8ca30008 	lw	v1,8(a1)
8040c340:	8ca40014 	lw	a0,20(a1)
8040c344:	24420001 	addiu	v0,v0,1
8040c348:	aca20010 	sw	v0,16(a1)
8040c34c:	8cc20008 	lw	v0,8(a2)
8040c350:	00621821 	addu	v1,v1,v0
8040c354:	aca30008 	sw	v1,8(a1)
8040c358:	8cc20008 	lw	v0,8(a2)
8040c35c:	0082202b 	sltu	a0,a0,v0
8040c360:	10800002 	beqz	a0,8040c36c <kmemstats+0x90>
8040c364:	00000000 	nop
8040c368:	aca20014 	sw	v0,20(a1)
8040c36c:	8cc20000 	lw	v0,0(a2)
8040c370:	14490015 	bne	v0,t1,8040c3c8 <kmemstats+0xec>
8040c374:	24c40018 	addiu	a0,a2,24
8040c378:	8cc30004 	lw	v1,4(a2)
8040c37c:	10600009 	beqz	v1,8040c3a4 <kmemstats+0xc8>
8040c380:	00000000 	nop
8040c384:	8cc20008 	lw	v0,8(a2)
8040c388:	00821021 	addu	v0,a0,v0
8040c38c:	1443000e 	bne	v0,v1,8040c3c8 <kmemstats+0xec>
8040c390:	00000000 	nop
8040c394:	10600003 	beqz	v1,8040c3a4 <kmemstats+0xc8>
8040c398:	0066102b 	sltu	v0,v1,a2
8040c39c:	1440000a 	bnez	v0,8040c3c8 <kmemstats+0xec>
8040c3a0:	00000000 	nop
8040c3a4:	8cc40010 	lw	a0,16(a2)
8040c3a8:	0086102b 	sltu	v0,a0,a2
8040c3ac:	14400006 	bnez	v0,8040c3c8 <kmemstats+0xec>
8040c3b0:	00000000 	nop
8040c3b4:	14e80006 	bne	a3,t0,8040c3d0 <kmemstats+0xf4>
8040c3b8:	00000000 	nop
8040c3bc:	8c82fffc 	lw	v0,-4(a0)
8040c3c0:	10460003 	beq	v0,a2,8040c3d0 <kmemstats+0xf4>
8040c3c4:	00000000 	nop
8040c3c8:	03e00008 	jr	ra
8040c3cc:	2402ffff 	li	v0,-1
8040c3d0:	1460ffce 	bnez	v1,8040c30c <kmemstats+0x30>
8040c3d4:	00603021 	move	a2,v1
8040c3d8:	03e00008 	jr	ra
8040c3dc:	00001021 	move	v0,zero

8040c3e0 <__atox>:
8040c3e0:	27bdfff0 	addiu	sp,sp,-16
8040c3e4:	8faa0020 	lw	t2,32(sp)
8040c3e8:	03a04021 	move	t0,sp
8040c3ec:	00004821 	move	t1,zero
8040c3f0:	00a6001b 	divu	zero,a1,a2
8040c3f4:	14c00002 	bnez	a2,8040c400 <__atox+0x20>
8040c3f8:	00000000 	nop
8040c3fc:	000001cd 	break	0x7
8040c400:	25290001 	addiu	t1,t1,1
8040c404:	00001010 	mfhi	v0
8040c408:	01421021 	addu	v0,t2,v0
8040c40c:	90420000 	lbu	v0,0(v0)
8040c410:	00001812 	mflo	v1
8040c414:	a1020000 	sb	v0,0(t0)
8040c418:	00002812 	mflo	a1
8040c41c:	1460fff4 	bnez	v1,8040c3f0 <__atox+0x10>
8040c420:	25080001 	addiu	t0,t0,1
8040c424:	10e0000b 	beqz	a3,8040c454 <__atox+0x74>
8040c428:	0127102a 	slt	v0,t1,a3
8040c42c:	10400009 	beqz	v0,8040c454 <__atox+0x74>
8040c430:	00000000 	nop
8040c434:	00e93823 	subu	a3,a3,t1
8040c438:	10e00006 	beqz	a3,8040c454 <__atox+0x74>
8040c43c:	24020030 	li	v0,48
8040c440:	24e7ffff 	addiu	a3,a3,-1
8040c444:	a1020000 	sb	v0,0(t0)
8040c448:	25290001 	addiu	t1,t1,1
8040c44c:	14e0fffc 	bnez	a3,8040c440 <__atox+0x60>
8040c450:	25080001 	addiu	t0,t0,1
8040c454:	111d0005 	beq	t0,sp,8040c46c <__atox+0x8c>
8040c458:	2508ffff 	addiu	t0,t0,-1
8040c45c:	91020000 	lbu	v0,0(t0)
8040c460:	a0820000 	sb	v0,0(a0)
8040c464:	08103115 	j	8040c454 <__atox+0x74>
8040c468:	24840001 	addiu	a0,a0,1
8040c46c:	01201021 	move	v0,t1
8040c470:	03e00008 	jr	ra
8040c474:	27bd0010 	addiu	sp,sp,16

8040c478 <__llatox>:
8040c478:	27bdfff0 	addiu	sp,sp,-16
8040c47c:	8fa50024 	lw	a1,36(sp)
8040c480:	8faa0028 	lw	t2,40(sp)
8040c484:	03a04021 	move	t0,sp
8040c488:	00004821 	move	t1,zero
8040c48c:	30e2000f 	andi	v0,a3,0xf
8040c490:	01421021 	addu	v0,t2,v0
8040c494:	00061f00 	sll	v1,a2,0x1c
8040c498:	90420000 	lbu	v0,0(v0)
8040c49c:	00073902 	srl	a3,a3,0x4
8040c4a0:	00e33825 	or	a3,a3,v1
8040c4a4:	00063102 	srl	a2,a2,0x4
8040c4a8:	00c71825 	or	v1,a2,a3
8040c4ac:	a1020000 	sb	v0,0(t0)
8040c4b0:	25290001 	addiu	t1,t1,1
8040c4b4:	1460fff5 	bnez	v1,8040c48c <__llatox+0x14>
8040c4b8:	25080001 	addiu	t0,t0,1
8040c4bc:	10a0000b 	beqz	a1,8040c4ec <__llatox+0x74>
8040c4c0:	0125102a 	slt	v0,t1,a1
8040c4c4:	10400009 	beqz	v0,8040c4ec <__llatox+0x74>
8040c4c8:	00000000 	nop
8040c4cc:	00a92823 	subu	a1,a1,t1
8040c4d0:	10a00006 	beqz	a1,8040c4ec <__llatox+0x74>
8040c4d4:	24020030 	li	v0,48
8040c4d8:	24a5ffff 	addiu	a1,a1,-1
8040c4dc:	a1020000 	sb	v0,0(t0)
8040c4e0:	25290001 	addiu	t1,t1,1
8040c4e4:	14a0fffc 	bnez	a1,8040c4d8 <__llatox+0x60>
8040c4e8:	25080001 	addiu	t0,t0,1
8040c4ec:	111d0005 	beq	t0,sp,8040c504 <__llatox+0x8c>
8040c4f0:	2508ffff 	addiu	t0,t0,-1
8040c4f4:	91020000 	lbu	v0,0(t0)
8040c4f8:	a0820000 	sb	v0,0(a0)
8040c4fc:	0810313b 	j	8040c4ec <__llatox+0x74>
8040c500:	24840001 	addiu	a0,a0,1
8040c504:	01201021 	move	v0,t1
8040c508:	03e00008 	jr	ra
8040c50c:	27bd0010 	addiu	sp,sp,16

8040c510 <xvsprintf>:
8040c510:	27bdffb8 	addiu	sp,sp,-72
8040c514:	afb7003c 	sw	s7,60(sp)
8040c518:	afb60038 	sw	s6,56(sp)
8040c51c:	afb50034 	sw	s5,52(sp)
8040c520:	afb40030 	sw	s4,48(sp)
8040c524:	afb3002c 	sw	s3,44(sp)
8040c528:	afbf0040 	sw	ra,64(sp)
8040c52c:	afb20028 	sw	s2,40(sp)
8040c530:	afb10024 	sw	s1,36(sp)
8040c534:	afb00020 	sw	s0,32(sp)
8040c538:	90a70000 	lbu	a3,0(a1)
8040c53c:	00a0a821 	move	s5,a1
8040c540:	0080b821 	move	s7,a0
8040c544:	00c0a021 	move	s4,a2
8040c548:	0000b021 	move	s6,zero
8040c54c:	00809821 	move	s3,a0
8040c550:	10e001af 	beqz	a3,8040cc10 <xvsprintf+0x700>
8040c554:	00071e00 	sll	v1,a3,0x18
8040c558:	00031e03 	sra	v1,v1,0x18
8040c55c:	24020025 	li	v0,37
8040c560:	10620005 	beq	v1,v0,8040c578 <xvsprintf+0x68>
8040c564:	26a50001 	addiu	a1,s5,1
8040c568:	a2670000 	sb	a3,0(s3)
8040c56c:	00a0a821 	move	s5,a1
8040c570:	08103302 	j	8040cc08 <xvsprintf+0x6f8>
8040c574:	26730001 	addiu	s3,s3,1
8040c578:	80a20000 	lb	v0,0(a1)
8040c57c:	24a30001 	addiu	v1,a1,1
8040c580:	00a0a821 	move	s5,a1
8040c584:	38420023 	xori	v0,v0,0x23
8040c588:	0062a80a 	movz	s5,v1,v0
8040c58c:	82a20000 	lb	v0,0(s5)
8040c590:	26a30001 	addiu	v1,s5,1
8040c594:	00004021 	move	t0,zero
8040c598:	3842002d 	xori	v0,v0,0x2d
8040c59c:	08103174 	j	8040c5d0 <xvsprintf+0xc0>
8040c5a0:	0062a80a 	movz	s5,v1,v0
8040c5a4:	2488ffd0 	addiu	t0,a0,-48
8040c5a8:	00081080 	sll	v0,t0,0x2
8040c5ac:	26b50001 	addiu	s5,s5,1
8040c5b0:	00481821 	addu	v1,v0,t0
8040c5b4:	92a20000 	lbu	v0,0(s5)
8040c5b8:	2442ffd0 	addiu	v0,v0,-48
8040c5bc:	304200ff 	andi	v0,v0,0xff
8040c5c0:	2c42000a 	sltiu	v0,v0,10
8040c5c4:	10400002 	beqz	v0,8040c5d0 <xvsprintf+0xc0>
8040c5c8:	00000000 	nop
8040c5cc:	00034040 	sll	t0,v1,0x1
8040c5d0:	82a30000 	lb	v1,0(s5)
8040c5d4:	2462ffd0 	addiu	v0,v1,-48
8040c5d8:	304200ff 	andi	v0,v0,0xff
8040c5dc:	2c42000a 	sltiu	v0,v0,10
8040c5e0:	1440fff0 	bnez	v0,8040c5a4 <xvsprintf+0x94>
8040c5e4:	01032021 	addu	a0,t0,v1
8040c5e8:	2402002e 	li	v0,46
8040c5ec:	14620015 	bne	v1,v0,8040c644 <xvsprintf+0x134>
8040c5f0:	00000000 	nop
8040c5f4:	26b50001 	addiu	s5,s5,1
8040c5f8:	92a20000 	lbu	v0,0(s5)
8040c5fc:	2442ffd0 	addiu	v0,v0,-48
8040c600:	304200ff 	andi	v0,v0,0xff
8040c604:	2c42000a 	sltiu	v0,v0,10
8040c608:	1040000e 	beqz	v0,8040c644 <xvsprintf+0x134>
8040c60c:	0000b021 	move	s6,zero
8040c610:	82a20000 	lb	v0,0(s5)
8040c614:	26b50001 	addiu	s5,s5,1
8040c618:	92a30000 	lbu	v1,0(s5)
8040c61c:	02c21021 	addu	v0,s6,v0
8040c620:	2456ffd0 	addiu	s6,v0,-48
8040c624:	2463ffd0 	addiu	v1,v1,-48
8040c628:	306300ff 	andi	v1,v1,0xff
8040c62c:	00161080 	sll	v0,s6,0x2
8040c630:	2c63000a 	sltiu	v1,v1,10
8040c634:	10600003 	beqz	v1,8040c644 <xvsprintf+0x134>
8040c638:	00561021 	addu	v0,v0,s6
8040c63c:	08103184 	j	8040c610 <xvsprintf+0x100>
8040c640:	0002b040 	sll	s6,v0,0x1
8040c644:	82a20000 	lb	v0,0(s5)
8040c648:	2403006c 	li	v1,108
8040c64c:	14430004 	bne	v0,v1,8040c660 <xvsprintf+0x150>
8040c650:	00002021 	move	a0,zero
8040c654:	26b50001 	addiu	s5,s5,1
8040c658:	24040001 	li	a0,1
8040c65c:	82a20000 	lb	v0,0(s5)
8040c660:	14430003 	bne	v0,v1,8040c670 <xvsprintf+0x160>
8040c664:	00000000 	nop
8040c668:	24840001 	addiu	a0,a0,1
8040c66c:	26b50001 	addiu	s5,s5,1
8040c670:	92a50000 	lbu	a1,0(s5)
8040c674:	24020063 	li	v0,99
8040c678:	00051e00 	sll	v1,a1,0x18
8040c67c:	00031e03 	sra	v1,v1,0x18
8040c680:	10620159 	beq	v1,v0,8040cbe8 <xvsprintf+0x6d8>
8040c684:	28620064 	slti	v0,v1,100
8040c688:	10400013 	beqz	v0,8040c6d8 <xvsprintf+0x1c8>
8040c68c:	24020073 	li	v0,115
8040c690:	24020058 	li	v0,88
8040c694:	106200df 	beq	v1,v0,8040ca14 <xvsprintf+0x504>
8040c698:	28620059 	slti	v0,v1,89
8040c69c:	10400006 	beqz	v0,8040c6b8 <xvsprintf+0x1a8>
8040c6a0:	24020061 	li	v0,97
8040c6a4:	24020049 	li	v0,73
8040c6a8:	10620023 	beq	v1,v0,8040c738 <xvsprintf+0x228>
8040c6ac:	24020050 	li	v0,80
8040c6b0:	081031bd 	j	8040c6f4 <xvsprintf+0x1e4>
8040c6b4:	00000000 	nop
8040c6b8:	1062006f 	beq	v1,v0,8040c878 <xvsprintf+0x368>
8040c6bc:	28620062 	slti	v0,v1,98
8040c6c0:	10400126 	beqz	v0,8040cb5c <xvsprintf+0x64c>
8040c6c4:	2402005a 	li	v0,90
8040c6c8:	10620133 	beq	v1,v0,8040cb98 <xvsprintf+0x688>
8040c6cc:	2404fffc 	li	a0,-4
8040c6d0:	08103300 	j	8040cc00 <xvsprintf+0x6f0>
8040c6d4:	a2650000 	sb	a1,0(s3)
8040c6d8:	10620042 	beq	v1,v0,8040c7e4 <xvsprintf+0x2d4>
8040c6dc:	28620074 	slti	v0,v1,116
8040c6e0:	10400008 	beqz	v0,8040c704 <xvsprintf+0x1f4>
8040c6e4:	24020077 	li	v0,119
8040c6e8:	24020064 	li	v0,100
8040c6ec:	1062007d 	beq	v1,v0,8040c8e4 <xvsprintf+0x3d4>
8040c6f0:	24020070 	li	v0,112
8040c6f4:	106200f9 	beq	v1,v0,8040cadc <xvsprintf+0x5cc>
8040c6f8:	26830003 	addiu	v1,s4,3
8040c6fc:	08103300 	j	8040cc00 <xvsprintf+0x6f0>
8040c700:	a2650000 	sb	a1,0(s3)
8040c704:	1062010c 	beq	v1,v0,8040cb38 <xvsprintf+0x628>
8040c708:	28620078 	slti	v0,v1,120
8040c70c:	10400006 	beqz	v0,8040c728 <xvsprintf+0x218>
8040c710:	24020078 	li	v0,120
8040c714:	24020075 	li	v0,117
8040c718:	1062009e 	beq	v1,v0,8040c994 <xvsprintf+0x484>
8040c71c:	00000000 	nop
8040c720:	08103300 	j	8040cc00 <xvsprintf+0x6f0>
8040c724:	a2650000 	sb	a1,0(s3)
8040c728:	106200ba 	beq	v1,v0,8040ca14 <xvsprintf+0x504>
8040c72c:	00000000 	nop
8040c730:	08103300 	j	8040cc00 <xvsprintf+0x6f0>
8040c734:	a2650000 	sb	a1,0(s3)
8040c738:	26830003 	addiu	v1,s4,3
8040c73c:	2402fffc 	li	v0,-4
8040c740:	0062a024 	and	s4,v1,v0
8040c744:	8e920000 	lw	s2,0(s4)
8040c748:	3c118042 	lui	s1,0x8042
8040c74c:	26319a00 	addiu	s1,s1,-26112
8040c750:	92450000 	lbu	a1,0(s2)
8040c754:	02602021 	move	a0,s3
8040c758:	2406000a 	li	a2,10
8040c75c:	00003821 	move	a3,zero
8040c760:	0c1030f8 	jal	8040c3e0 <__atox>
8040c764:	afb10010 	sw	s1,16(sp)
8040c768:	02629821 	addu	s3,s3,v0
8040c76c:	2410002e 	li	s0,46
8040c770:	a2700000 	sb	s0,0(s3)
8040c774:	26520001 	addiu	s2,s2,1
8040c778:	92450000 	lbu	a1,0(s2)
8040c77c:	26730001 	addiu	s3,s3,1
8040c780:	02602021 	move	a0,s3
8040c784:	2406000a 	li	a2,10
8040c788:	00003821 	move	a3,zero
8040c78c:	0c1030f8 	jal	8040c3e0 <__atox>
8040c790:	afb10010 	sw	s1,16(sp)
8040c794:	02629821 	addu	s3,s3,v0
8040c798:	a2700000 	sb	s0,0(s3)
8040c79c:	26520001 	addiu	s2,s2,1
8040c7a0:	92450000 	lbu	a1,0(s2)
8040c7a4:	26730001 	addiu	s3,s3,1
8040c7a8:	02602021 	move	a0,s3
8040c7ac:	2406000a 	li	a2,10
8040c7b0:	00003821 	move	a3,zero
8040c7b4:	0c1030f8 	jal	8040c3e0 <__atox>
8040c7b8:	afb10010 	sw	s1,16(sp)
8040c7bc:	02629821 	addu	s3,s3,v0
8040c7c0:	a2700000 	sb	s0,0(s3)
8040c7c4:	26520001 	addiu	s2,s2,1
8040c7c8:	92450000 	lbu	a1,0(s2)
8040c7cc:	26730001 	addiu	s3,s3,1
8040c7d0:	02602021 	move	a0,s3
8040c7d4:	2406000a 	li	a2,10
8040c7d8:	00003821 	move	a3,zero
8040c7dc:	081032e2 	j	8040cb88 <xvsprintf+0x678>
8040c7e0:	afb10010 	sw	s1,16(sp)
8040c7e4:	26820003 	addiu	v0,s4,3
8040c7e8:	2403fffc 	li	v1,-4
8040c7ec:	0043a024 	and	s4,v0,v1
8040c7f0:	8e920000 	lw	s2,0(s4)
8040c7f4:	16400003 	bnez	s2,8040c804 <xvsprintf+0x2f4>
8040c7f8:	26940004 	addiu	s4,s4,4
8040c7fc:	3c028042 	lui	v0,0x8042
8040c800:	2452c034 	addiu	s2,v0,-16332
8040c804:	2d020001 	sltiu	v0,t0,1
8040c808:	2ec30001 	sltiu	v1,s6,1
8040c80c:	00431024 	and	v0,v0,v1
8040c810:	10400008 	beqz	v0,8040c834 <xvsprintf+0x324>
8040c814:	00000000 	nop
8040c818:	92420000 	lbu	v0,0(s2)
8040c81c:	104000f9 	beqz	v0,8040cc04 <xvsprintf+0x6f4>
8040c820:	26520001 	addiu	s2,s2,1
8040c824:	a2620000 	sb	v0,0(s3)
8040c828:	92420000 	lbu	v0,0(s2)
8040c82c:	08103207 	j	8040c81c <xvsprintf+0x30c>
8040c830:	26730001 	addiu	s3,s3,1
8040c834:	110000f3 	beqz	t0,8040cc04 <xvsprintf+0x6f4>
8040c838:	00000000 	nop
8040c83c:	92420000 	lbu	v0,0(s2)
8040c840:	10400005 	beqz	v0,8040c858 <xvsprintf+0x348>
8040c844:	26520001 	addiu	s2,s2,1
8040c848:	a2620000 	sb	v0,0(s3)
8040c84c:	2508ffff 	addiu	t0,t0,-1
8040c850:	0810320d 	j	8040c834 <xvsprintf+0x324>
8040c854:	26730001 	addiu	s3,s3,1
8040c858:	110000ea 	beqz	t0,8040cc04 <xvsprintf+0x6f4>
8040c85c:	24020020 	li	v0,32
8040c860:	2508ffff 	addiu	t0,t0,-1
8040c864:	a2620000 	sb	v0,0(s3)
8040c868:	1500fffd 	bnez	t0,8040c860 <xvsprintf+0x350>
8040c86c:	26730001 	addiu	s3,s3,1
8040c870:	08103302 	j	8040cc08 <xvsprintf+0x6f8>
8040c874:	26b50001 	addiu	s5,s5,1
8040c878:	26820003 	addiu	v0,s4,3
8040c87c:	2403fffc 	li	v1,-4
8040c880:	0043a024 	and	s4,v0,v1
8040c884:	8e920000 	lw	s2,0(s4)
8040c888:	24100004 	li	s0,4
8040c88c:	26940004 	addiu	s4,s4,4
8040c890:	92450000 	lbu	a1,0(s2)
8040c894:	3c028042 	lui	v0,0x8042
8040c898:	24519a00 	addiu	s1,v0,-26112
8040c89c:	02602021 	move	a0,s3
8040c8a0:	24060010 	li	a2,16
8040c8a4:	24070002 	li	a3,2
8040c8a8:	0c1030f8 	jal	8040c3e0 <__atox>
8040c8ac:	afb10010 	sw	s1,16(sp)
8040c8b0:	02629821 	addu	s3,s3,v0
8040c8b4:	2610ffff 	addiu	s0,s0,-1
8040c8b8:	2402002d 	li	v0,45
8040c8bc:	a2620000 	sb	v0,0(s3)
8040c8c0:	26520001 	addiu	s2,s2,1
8040c8c4:	0601fff2 	bgez	s0,8040c890 <xvsprintf+0x380>
8040c8c8:	26730001 	addiu	s3,s3,1
8040c8cc:	92450000 	lbu	a1,0(s2)
8040c8d0:	02602021 	move	a0,s3
8040c8d4:	24060010 	li	a2,16
8040c8d8:	24070002 	li	a3,2
8040c8dc:	081032ca 	j	8040cb28 <xvsprintf+0x618>
8040c8e0:	afb10010 	sw	s1,16(sp)
8040c8e4:	048000c7 	bltz	a0,8040cc04 <xvsprintf+0x6f4>
8040c8e8:	28820002 	slti	v0,a0,2
8040c8ec:	14400006 	bnez	v0,8040c908 <xvsprintf+0x3f8>
8040c8f0:	26820003 	addiu	v0,s4,3
8040c8f4:	24020002 	li	v0,2
8040c8f8:	10820012 	beq	a0,v0,8040c944 <xvsprintf+0x434>
8040c8fc:	26820007 	addiu	v0,s4,7
8040c900:	08103302 	j	8040cc08 <xvsprintf+0x6f8>
8040c904:	26b50001 	addiu	s5,s5,1
8040c908:	2403fffc 	li	v1,-4
8040c90c:	0043a024 	and	s4,v0,v1
8040c910:	8e850000 	lw	a1,0(s4)
8040c914:	04a10005 	bgez	a1,8040c92c <xvsprintf+0x41c>
8040c918:	26940004 	addiu	s4,s4,4
8040c91c:	2402002d 	li	v0,45
8040c920:	a2620000 	sb	v0,0(s3)
8040c924:	00052823 	negu	a1,a1
8040c928:	26730001 	addiu	s3,s3,1
8040c92c:	3c028042 	lui	v0,0x8042
8040c930:	01003821 	move	a3,t0
8040c934:	02602021 	move	a0,s3
8040c938:	2406000a 	li	a2,10
8040c93c:	081032c9 	j	8040cb24 <xvsprintf+0x614>
8040c940:	24429a00 	addiu	v0,v0,-26112
8040c944:	2403fff8 	li	v1,-8
8040c948:	0043a024 	and	s4,v0,v1
8040c94c:	8e860000 	lw	a2,0(s4)
8040c950:	8e870004 	lw	a3,4(s4)
8040c954:	04c10008 	bgez	a2,8040c978 <xvsprintf+0x468>
8040c958:	26940008 	addiu	s4,s4,8
8040c95c:	2402002d 	li	v0,45
8040c960:	a2620000 	sb	v0,0(s3)
8040c964:	00073823 	negu	a3,a3
8040c968:	00063023 	negu	a2,a2
8040c96c:	0007102b 	sltu	v0,zero,a3
8040c970:	00c23023 	subu	a2,a2,v0
8040c974:	26730001 	addiu	s3,s3,1
8040c978:	2402000a 	li	v0,10
8040c97c:	afa20010 	sw	v0,16(sp)
8040c980:	3c028042 	lui	v0,0x8042
8040c984:	02602021 	move	a0,s3
8040c988:	24429a00 	addiu	v0,v0,-26112
8040c98c:	081032b3 	j	8040cacc <xvsprintf+0x5bc>
8040c990:	afa80014 	sw	t0,20(sp)
8040c994:	0480009b 	bltz	a0,8040cc04 <xvsprintf+0x6f4>
8040c998:	28820002 	slti	v0,a0,2
8040c99c:	14400005 	bnez	v0,8040c9b4 <xvsprintf+0x4a4>
8040c9a0:	24020002 	li	v0,2
8040c9a4:	1082000c 	beq	a0,v0,8040c9d8 <xvsprintf+0x4c8>
8040c9a8:	26830007 	addiu	v1,s4,7
8040c9ac:	08103302 	j	8040cc08 <xvsprintf+0x6f8>
8040c9b0:	26b50001 	addiu	s5,s5,1
8040c9b4:	26830003 	addiu	v1,s4,3
8040c9b8:	2402fffc 	li	v0,-4
8040c9bc:	0062a024 	and	s4,v1,v0
8040c9c0:	8e900000 	lw	s0,0(s4)
8040c9c4:	01003821 	move	a3,t0
8040c9c8:	02602021 	move	a0,s3
8040c9cc:	02002821 	move	a1,s0
8040c9d0:	081032df 	j	8040cb7c <xvsprintf+0x66c>
8040c9d4:	2406000a 	li	a2,10
8040c9d8:	2402fff8 	li	v0,-8
8040c9dc:	0062a024 	and	s4,v1,v0
8040c9e0:	8e870004 	lw	a3,4(s4)
8040c9e4:	8e860000 	lw	a2,0(s4)
8040c9e8:	2402000a 	li	v0,10
8040c9ec:	afa20010 	sw	v0,16(sp)
8040c9f0:	3c028042 	lui	v0,0x8042
8040c9f4:	02602021 	move	a0,s3
8040c9f8:	24429a00 	addiu	v0,v0,-26112
8040c9fc:	afa80014 	sw	t0,20(sp)
8040ca00:	0c10311e 	jal	8040c478 <__llatox>
8040ca04:	afa20018 	sw	v0,24(sp)
8040ca08:	02629821 	addu	s3,s3,v0
8040ca0c:	08103301 	j	8040cc04 <xvsprintf+0x6f4>
8040ca10:	26940008 	addiu	s4,s4,8
8040ca14:	0480007b 	bltz	a0,8040cc04 <xvsprintf+0x6f4>
8040ca18:	28820002 	slti	v0,a0,2
8040ca1c:	14400006 	bnez	v0,8040ca38 <xvsprintf+0x528>
8040ca20:	26830003 	addiu	v1,s4,3
8040ca24:	24020002 	li	v0,2
8040ca28:	10820016 	beq	a0,v0,8040ca84 <xvsprintf+0x574>
8040ca2c:	26830007 	addiu	v1,s4,7
8040ca30:	08103302 	j	8040cc08 <xvsprintf+0x6f8>
8040ca34:	26b50001 	addiu	s5,s5,1
8040ca38:	2402fffc 	li	v0,-4
8040ca3c:	0062a024 	and	s4,v1,v0
8040ca40:	02801021 	move	v0,s4
8040ca44:	00051e00 	sll	v1,a1,0x18
8040ca48:	8c500000 	lw	s0,0(v0)
8040ca4c:	00031e03 	sra	v1,v1,0x18
8040ca50:	24020058 	li	v0,88
8040ca54:	14620004 	bne	v1,v0,8040ca68 <xvsprintf+0x558>
8040ca58:	26940004 	addiu	s4,s4,4
8040ca5c:	3c028042 	lui	v0,0x8042
8040ca60:	0810329c 	j	8040ca70 <xvsprintf+0x560>
8040ca64:	24429a00 	addiu	v0,v0,-26112
8040ca68:	3c028042 	lui	v0,0x8042
8040ca6c:	244299ec 	addiu	v0,v0,-26132
8040ca70:	02002821 	move	a1,s0
8040ca74:	01003821 	move	a3,t0
8040ca78:	02602021 	move	a0,s3
8040ca7c:	081032c9 	j	8040cb24 <xvsprintf+0x614>
8040ca80:	24060010 	li	a2,16
8040ca84:	2402fff8 	li	v0,-8
8040ca88:	0062a024 	and	s4,v1,v0
8040ca8c:	24020010 	li	v0,16
8040ca90:	00051e00 	sll	v1,a1,0x18
8040ca94:	8e870004 	lw	a3,4(s4)
8040ca98:	8e860000 	lw	a2,0(s4)
8040ca9c:	00031e03 	sra	v1,v1,0x18
8040caa0:	afa20010 	sw	v0,16(sp)
8040caa4:	24020058 	li	v0,88
8040caa8:	afa80014 	sw	t0,20(sp)
8040caac:	14620004 	bne	v1,v0,8040cac0 <xvsprintf+0x5b0>
8040cab0:	26940008 	addiu	s4,s4,8
8040cab4:	3c028042 	lui	v0,0x8042
8040cab8:	081032b2 	j	8040cac8 <xvsprintf+0x5b8>
8040cabc:	24429a00 	addiu	v0,v0,-26112
8040cac0:	3c028042 	lui	v0,0x8042
8040cac4:	244299ec 	addiu	v0,v0,-26132
8040cac8:	02602021 	move	a0,s3
8040cacc:	0c10311e 	jal	8040c478 <__llatox>
8040cad0:	afa20018 	sw	v0,24(sp)
8040cad4:	08103301 	j	8040cc04 <xvsprintf+0x6f4>
8040cad8:	02629821 	addu	s3,s3,v0
8040cadc:	2402fffc 	li	v0,-4
8040cae0:	0062a024 	and	s4,v1,v0
8040cae4:	02801021 	move	v0,s4
8040cae8:	00051e00 	sll	v1,a1,0x18
8040caec:	8c500000 	lw	s0,0(v0)
8040caf0:	00031e03 	sra	v1,v1,0x18
8040caf4:	24020050 	li	v0,80
8040caf8:	14620004 	bne	v1,v0,8040cb0c <xvsprintf+0x5fc>
8040cafc:	26940004 	addiu	s4,s4,4
8040cb00:	3c028042 	lui	v0,0x8042
8040cb04:	081032c5 	j	8040cb14 <xvsprintf+0x604>
8040cb08:	24429a00 	addiu	v0,v0,-26112
8040cb0c:	3c028042 	lui	v0,0x8042
8040cb10:	244299ec 	addiu	v0,v0,-26132
8040cb14:	02002821 	move	a1,s0
8040cb18:	02602021 	move	a0,s3
8040cb1c:	24060010 	li	a2,16
8040cb20:	24070008 	li	a3,8
8040cb24:	afa20010 	sw	v0,16(sp)
8040cb28:	0c1030f8 	jal	8040c3e0 <__atox>
8040cb2c:	00000000 	nop
8040cb30:	08103301 	j	8040cc04 <xvsprintf+0x6f4>
8040cb34:	02629821 	addu	s3,s3,v0
8040cb38:	26830003 	addiu	v1,s4,3
8040cb3c:	2402fffc 	li	v0,-4
8040cb40:	0062a024 	and	s4,v1,v0
8040cb44:	96900002 	lhu	s0,2(s4)
8040cb48:	02602021 	move	a0,s3
8040cb4c:	24060010 	li	a2,16
8040cb50:	02002821 	move	a1,s0
8040cb54:	081032df 	j	8040cb7c <xvsprintf+0x66c>
8040cb58:	24070004 	li	a3,4
8040cb5c:	26830003 	addiu	v1,s4,3
8040cb60:	2402fffc 	li	v0,-4
8040cb64:	0062a024 	and	s4,v1,v0
8040cb68:	92900003 	lbu	s0,3(s4)
8040cb6c:	02602021 	move	a0,s3
8040cb70:	24060010 	li	a2,16
8040cb74:	02002821 	move	a1,s0
8040cb78:	24070002 	li	a3,2
8040cb7c:	3c028042 	lui	v0,0x8042
8040cb80:	24429a00 	addiu	v0,v0,-26112
8040cb84:	afa20010 	sw	v0,16(sp)
8040cb88:	0c1030f8 	jal	8040c3e0 <__atox>
8040cb8c:	26940004 	addiu	s4,s4,4
8040cb90:	08103301 	j	8040cc04 <xvsprintf+0x6f4>
8040cb94:	02629821 	addu	s3,s3,v0
8040cb98:	26820003 	addiu	v0,s4,3
8040cb9c:	0044a024 	and	s4,v0,a0
8040cba0:	26830007 	addiu	v1,s4,7
8040cba4:	8e900000 	lw	s0,0(s4)
8040cba8:	0064a024 	and	s4,v1,a0
8040cbac:	8e920000 	lw	s2,0(s4)
8040cbb0:	26940004 	addiu	s4,s4,4
8040cbb4:	12000013 	beqz	s0,8040cc04 <xvsprintf+0x6f4>
8040cbb8:	3c028042 	lui	v0,0x8042
8040cbbc:	92450000 	lbu	a1,0(s2)
8040cbc0:	02602021 	move	a0,s3
8040cbc4:	24429a00 	addiu	v0,v0,-26112
8040cbc8:	24060010 	li	a2,16
8040cbcc:	24070002 	li	a3,2
8040cbd0:	0c1030f8 	jal	8040c3e0 <__atox>
8040cbd4:	afa20010 	sw	v0,16(sp)
8040cbd8:	2610ffff 	addiu	s0,s0,-1
8040cbdc:	02629821 	addu	s3,s3,v0
8040cbe0:	081032ed 	j	8040cbb4 <xvsprintf+0x6a4>
8040cbe4:	26520001 	addiu	s2,s2,1
8040cbe8:	26820003 	addiu	v0,s4,3
8040cbec:	2403fffc 	li	v1,-4
8040cbf0:	0043a024 	and	s4,v0,v1
8040cbf4:	8e900000 	lw	s0,0(s4)
8040cbf8:	26940004 	addiu	s4,s4,4
8040cbfc:	a2700000 	sb	s0,0(s3)
8040cc00:	26730001 	addiu	s3,s3,1
8040cc04:	26b50001 	addiu	s5,s5,1
8040cc08:	08103154 	j	8040c550 <xvsprintf+0x40>
8040cc0c:	92a70000 	lbu	a3,0(s5)
8040cc10:	02771023 	subu	v0,s3,s7
8040cc14:	a2600000 	sb	zero,0(s3)
8040cc18:	8fbf0040 	lw	ra,64(sp)
8040cc1c:	8fb7003c 	lw	s7,60(sp)
8040cc20:	8fb60038 	lw	s6,56(sp)
8040cc24:	8fb50034 	lw	s5,52(sp)
8040cc28:	8fb40030 	lw	s4,48(sp)
8040cc2c:	8fb3002c 	lw	s3,44(sp)
8040cc30:	8fb20028 	lw	s2,40(sp)
8040cc34:	8fb10024 	lw	s1,36(sp)
8040cc38:	8fb00020 	lw	s0,32(sp)
8040cc3c:	03e00008 	jr	ra
8040cc40:	27bd0048 	addiu	sp,sp,72

8040cc44 <xsprintf>:
8040cc44:	27bdffe8 	addiu	sp,sp,-24
8040cc48:	afa60020 	sw	a2,32(sp)
8040cc4c:	27a60020 	addiu	a2,sp,32
8040cc50:	afbf0010 	sw	ra,16(sp)
8040cc54:	0c103144 	jal	8040c510 <xvsprintf>
8040cc58:	afa70024 	sw	a3,36(sp)
8040cc5c:	8fbf0010 	lw	ra,16(sp)
8040cc60:	03e00008 	jr	ra
8040cc64:	27bd0018 	addiu	sp,sp,24

8040cc68 <xprintf>:
8040cc68:	27bdfde8 	addiu	sp,sp,-536
8040cc6c:	afa5021c 	sw	a1,540(sp)
8040cc70:	afa60220 	sw	a2,544(sp)
8040cc74:	00802821 	move	a1,a0
8040cc78:	27a6021c 	addiu	a2,sp,540
8040cc7c:	27a40010 	addiu	a0,sp,16
8040cc80:	afb00210 	sw	s0,528(sp)
8040cc84:	afbf0214 	sw	ra,532(sp)
8040cc88:	0c103144 	jal	8040c510 <xvsprintf>
8040cc8c:	afa70224 	sw	a3,548(sp)
8040cc90:	00408021 	move	s0,v0
8040cc94:	8f8280f4 	lw	v0,-32524(gp)
8040cc98:	10400003 	beqz	v0,8040cca8 <xprintf+0x40>
8040cc9c:	27a40010 	addiu	a0,sp,16
8040cca0:	0040f809 	jalr	v0
8040cca4:	00000000 	nop
8040cca8:	02001021 	move	v0,s0
8040ccac:	8fbf0214 	lw	ra,532(sp)
8040ccb0:	8fb00210 	lw	s0,528(sp)
8040ccb4:	03e00008 	jr	ra
8040ccb8:	27bd0218 	addiu	sp,sp,536

8040ccbc <xvprintf>:
8040ccbc:	27bdfde8 	addiu	sp,sp,-536
8040ccc0:	00a03021 	move	a2,a1
8040ccc4:	00802821 	move	a1,a0
8040ccc8:	afb00210 	sw	s0,528(sp)
8040cccc:	afbf0214 	sw	ra,532(sp)
8040ccd0:	0c103144 	jal	8040c510 <xvsprintf>
8040ccd4:	27a40010 	addiu	a0,sp,16
8040ccd8:	00408021 	move	s0,v0
8040ccdc:	8f8280f4 	lw	v0,-32524(gp)
8040cce0:	10400003 	beqz	v0,8040ccf0 <xvprintf+0x34>
8040cce4:	27a40010 	addiu	a0,sp,16
8040cce8:	0040f809 	jalr	v0
8040ccec:	00000000 	nop
8040ccf0:	02001021 	move	v0,s0
8040ccf4:	8fbf0214 	lw	ra,532(sp)
8040ccf8:	8fb00210 	lw	s0,528(sp)
8040ccfc:	03e00008 	jr	ra
8040cd00:	27bd0218 	addiu	sp,sp,536

8040cd04 <q_enqueue>:
8040cd04:	8c820004 	lw	v0,4(a0)
8040cd08:	aca20004 	sw	v0,4(a1)
8040cd0c:	ac450000 	sw	a1,0(v0)
8040cd10:	ac850004 	sw	a1,4(a0)
8040cd14:	03e00008 	jr	ra
8040cd18:	aca40000 	sw	a0,0(a1)

8040cd1c <q_dequeue>:
8040cd1c:	8c830004 	lw	v1,4(a0)
8040cd20:	8c820000 	lw	v0,0(a0)
8040cd24:	ac620000 	sw	v0,0(v1)
8040cd28:	8c820000 	lw	v0,0(a0)
8040cd2c:	03e00008 	jr	ra
8040cd30:	ac430004 	sw	v1,4(v0)

8040cd34 <q_deqnext>:
8040cd34:	8c850000 	lw	a1,0(a0)
8040cd38:	10a40007 	beq	a1,a0,8040cd58 <q_deqnext+0x24>
8040cd3c:	00003021 	move	a2,zero
8040cd40:	8ca30004 	lw	v1,4(a1)
8040cd44:	8ca20000 	lw	v0,0(a1)
8040cd48:	00a03021 	move	a2,a1
8040cd4c:	ac620000 	sw	v0,0(v1)
8040cd50:	8ca20000 	lw	v0,0(a1)
8040cd54:	ac430004 	sw	v1,4(v0)
8040cd58:	03e00008 	jr	ra
8040cd5c:	00c01021 	move	v0,a2

8040cd60 <q_map>:
8040cd60:	27bdffd8 	addiu	sp,sp,-40
8040cd64:	afb40020 	sw	s4,32(sp)
8040cd68:	afb3001c 	sw	s3,28(sp)
8040cd6c:	afb20018 	sw	s2,24(sp)
8040cd70:	afb10014 	sw	s1,20(sp)
8040cd74:	afbf0024 	sw	ra,36(sp)
8040cd78:	afb00010 	sw	s0,16(sp)
8040cd7c:	8c830000 	lw	v1,0(a0)
8040cd80:	00808821 	move	s1,a0
8040cd84:	00a0a021 	move	s4,a1
8040cd88:	00c09821 	move	s3,a2
8040cd8c:	1064000a 	beq	v1,a0,8040cdb8 <q_map+0x58>
8040cd90:	00e09021 	move	s2,a3
8040cd94:	8c700000 	lw	s0,0(v1)
8040cd98:	00602021 	move	a0,v1
8040cd9c:	02602821 	move	a1,s3
8040cda0:	0280f809 	jalr	s4
8040cda4:	02403021 	move	a2,s2
8040cda8:	14400004 	bnez	v0,8040cdbc <q_map+0x5c>
8040cdac:	02001821 	move	v1,s0
8040cdb0:	1611fff8 	bne	s0,s1,8040cd94 <q_map+0x34>
8040cdb4:	00000000 	nop
8040cdb8:	00001021 	move	v0,zero
8040cdbc:	8fbf0024 	lw	ra,36(sp)
8040cdc0:	8fb40020 	lw	s4,32(sp)
8040cdc4:	8fb3001c 	lw	s3,28(sp)
8040cdc8:	8fb20018 	lw	s2,24(sp)
8040cdcc:	8fb10014 	lw	s1,20(sp)
8040cdd0:	8fb00010 	lw	s0,16(sp)
8040cdd4:	03e00008 	jr	ra
8040cdd8:	27bd0028 	addiu	sp,sp,40

8040cddc <q_count>:
8040cddc:	8c820000 	lw	v0,0(a0)
8040cde0:	00002821 	move	a1,zero
8040cde4:	00801821 	move	v1,a0
8040cde8:	10440005 	beq	v0,a0,8040ce00 <q_count+0x24>
8040cdec:	00000000 	nop
8040cdf0:	8c630000 	lw	v1,0(v1)
8040cdf4:	24a50001 	addiu	a1,a1,1
8040cdf8:	0810337a 	j	8040cde8 <q_count+0xc>
8040cdfc:	8c620000 	lw	v0,0(v1)
8040ce00:	03e00008 	jr	ra
8040ce04:	00a01021 	move	v0,a1

8040ce08 <q_find>:
8040ce08:	8c830000 	lw	v1,0(a0)
8040ce0c:	24020001 	li	v0,1
8040ce10:	10650007 	beq	v1,a1,8040ce30 <q_find+0x28>
8040ce14:	00000000 	nop
8040ce18:	14640003 	bne	v1,a0,8040ce28 <q_find+0x20>
8040ce1c:	24420001 	addiu	v0,v0,1
8040ce20:	03e00008 	jr	ra
8040ce24:	00001021 	move	v0,zero
8040ce28:	08103384 	j	8040ce10 <q_find+0x8>
8040ce2c:	8c630000 	lw	v1,0(v1)
8040ce30:	03e00008 	jr	ra
8040ce34:	00000000 	nop

8040ce38 <lib_strcpy>:
8040ce38:	90a30000 	lbu	v1,0(a1)
8040ce3c:	00801021 	move	v0,a0
8040ce40:	00803021 	move	a2,a0
8040ce44:	10600005 	beqz	v1,8040ce5c <lib_strcpy+0x24>
8040ce48:	24a50001 	addiu	a1,a1,1
8040ce4c:	a0c30000 	sb	v1,0(a2)
8040ce50:	90a30000 	lbu	v1,0(a1)
8040ce54:	08103391 	j	8040ce44 <lib_strcpy+0xc>
8040ce58:	24c60001 	addiu	a2,a2,1
8040ce5c:	03e00008 	jr	ra
8040ce60:	a0c00000 	sb	zero,0(a2)

8040ce64 <lib_strncpy>:
8040ce64:	90a30000 	lbu	v1,0(a1)
8040ce68:	00801021 	move	v0,a0
8040ce6c:	1060000d 	beqz	v1,8040cea4 <lib_strncpy+0x40>
8040ce70:	00803821 	move	a3,a0
8040ce74:	18c0000e 	blez	a2,8040ceb0 <lib_strncpy+0x4c>
8040ce78:	00000000 	nop
8040ce7c:	a0e30000 	sb	v1,0(a3)
8040ce80:	24a50001 	addiu	a1,a1,1
8040ce84:	90a30000 	lbu	v1,0(a1)
8040ce88:	24c6ffff 	addiu	a2,a2,-1
8040ce8c:	10600005 	beqz	v1,8040cea4 <lib_strncpy+0x40>
8040ce90:	24e70001 	addiu	a3,a3,1
8040ce94:	1cc0fff9 	bgtz	a2,8040ce7c <lib_strncpy+0x18>
8040ce98:	00000000 	nop
8040ce9c:	03e00008 	jr	ra
8040cea0:	00000000 	nop
8040cea4:	18c00002 	blez	a2,8040ceb0 <lib_strncpy+0x4c>
8040cea8:	00000000 	nop
8040ceac:	a0e00000 	sb	zero,0(a3)
8040ceb0:	03e00008 	jr	ra
8040ceb4:	00000000 	nop

8040ceb8 <lib_xstrncpy>:
8040ceb8:	90a30000 	lbu	v1,0(a1)
8040cebc:	1060000c 	beqz	v1,8040cef0 <lib_xstrncpy+0x38>
8040cec0:	00003821 	move	a3,zero
8040cec4:	28c20002 	slti	v0,a2,2
8040cec8:	1440000a 	bnez	v0,8040cef4 <lib_xstrncpy+0x3c>
8040cecc:	00e01021 	move	v0,a3
8040ced0:	a0830000 	sb	v1,0(a0)
8040ced4:	24a50001 	addiu	a1,a1,1
8040ced8:	90a30000 	lbu	v1,0(a1)
8040cedc:	24c6ffff 	addiu	a2,a2,-1
8040cee0:	28c20002 	slti	v0,a2,2
8040cee4:	24840001 	addiu	a0,a0,1
8040cee8:	1460fff7 	bnez	v1,8040cec8 <lib_xstrncpy+0x10>
8040ceec:	24e70001 	addiu	a3,a3,1
8040cef0:	00e01021 	move	v0,a3
8040cef4:	03e00008 	jr	ra
8040cef8:	a0800000 	sb	zero,0(a0)

8040cefc <lib_strlen>:
8040cefc:	80820000 	lb	v0,0(a0)
8040cf00:	00001821 	move	v1,zero
8040cf04:	10400004 	beqz	v0,8040cf18 <lib_strlen+0x1c>
8040cf08:	24840001 	addiu	a0,a0,1
8040cf0c:	80820000 	lb	v0,0(a0)
8040cf10:	081033c1 	j	8040cf04 <lib_strlen+0x8>
8040cf14:	24630001 	addiu	v1,v1,1
8040cf18:	03e00008 	jr	ra
8040cf1c:	00601021 	move	v0,v1

8040cf20 <lib_strcmp>:
8040cf20:	081033d5 	j	8040cf54 <lib_strcmp+0x34>
8040cf24:	80a30000 	lb	v1,0(a1)
8040cf28:	90820000 	lbu	v0,0(a0)
8040cf2c:	1040000b 	beqz	v0,8040cf5c <lib_strcmp+0x3c>
8040cf30:	00021600 	sll	v0,v0,0x18
8040cf34:	00021603 	sra	v0,v0,0x18
8040cf38:	0062302a 	slt	a2,v1,v0
8040cf3c:	0043102a 	slt	v0,v0,v1
8040cf40:	14400013 	bnez	v0,8040cf90 <lib_strcmp+0x70>
8040cf44:	24a50001 	addiu	a1,a1,1
8040cf48:	14c00013 	bnez	a2,8040cf98 <lib_strcmp+0x78>
8040cf4c:	24840001 	addiu	a0,a0,1
8040cf50:	80a30000 	lb	v1,0(a1)
8040cf54:	1460fff4 	bnez	v1,8040cf28 <lib_strcmp+0x8>
8040cf58:	00000000 	nop
8040cf5c:	90840000 	lbu	a0,0(a0)
8040cf60:	10800004 	beqz	a0,8040cf74 <lib_strcmp+0x54>
8040cf64:	00000000 	nop
8040cf68:	80a20000 	lb	v0,0(a1)
8040cf6c:	1040000b 	beqz	v0,8040cf9c <lib_strcmp+0x7c>
8040cf70:	24030001 	li	v1,1
8040cf74:	14800009 	bnez	a0,8040cf9c <lib_strcmp+0x7c>
8040cf78:	00001821 	move	v1,zero
8040cf7c:	80a20000 	lb	v0,0(a1)
8040cf80:	14400006 	bnez	v0,8040cf9c <lib_strcmp+0x7c>
8040cf84:	2403ffff 	li	v1,-1
8040cf88:	081033e7 	j	8040cf9c <lib_strcmp+0x7c>
8040cf8c:	00001821 	move	v1,zero
8040cf90:	081033e7 	j	8040cf9c <lib_strcmp+0x7c>
8040cf94:	2403ffff 	li	v1,-1
8040cf98:	24030001 	li	v1,1
8040cf9c:	03e00008 	jr	ra
8040cfa0:	00601021 	move	v0,v1

8040cfa4 <lib_toupper>:
8040cfa4:	00042600 	sll	a0,a0,0x18
8040cfa8:	00042603 	sra	a0,a0,0x18
8040cfac:	2482ff9f 	addiu	v0,a0,-97
8040cfb0:	2c42001a 	sltiu	v0,v0,26
8040cfb4:	10400004 	beqz	v0,8040cfc8 <lib_toupper+0x24>
8040cfb8:	00000000 	nop
8040cfbc:	2482ffe0 	addiu	v0,a0,-32
8040cfc0:	00022600 	sll	a0,v0,0x18
8040cfc4:	00042603 	sra	a0,a0,0x18
8040cfc8:	03e00008 	jr	ra
8040cfcc:	00801021 	move	v0,a0

8040cfd0 <lib_strcmpi>:
8040cfd0:	80a20000 	lb	v0,0(a1)
8040cfd4:	27bdffe0 	addiu	sp,sp,-32
8040cfd8:	afb20018 	sw	s2,24(sp)
8040cfdc:	afb10014 	sw	s1,20(sp)
8040cfe0:	00809021 	move	s2,a0
8040cfe4:	00a08821 	move	s1,a1
8040cfe8:	afbf001c 	sw	ra,28(sp)
8040cfec:	0810340d 	j	8040d034 <lib_strcmpi+0x64>
8040cff0:	afb00010 	sw	s0,16(sp)
8040cff4:	92440000 	lbu	a0,0(s2)
8040cff8:	10800010 	beqz	a0,8040d03c <lib_strcmpi+0x6c>
8040cffc:	00042600 	sll	a0,a0,0x18
8040d000:	0c1033e9 	jal	8040cfa4 <lib_toupper>
8040d004:	00042603 	sra	a0,a0,0x18
8040d008:	82240000 	lb	a0,0(s1)
8040d00c:	00408021 	move	s0,v0
8040d010:	0c1033e9 	jal	8040cfa4 <lib_toupper>
8040d014:	26310001 	addiu	s1,s1,1
8040d018:	0050182a 	slt	v1,v0,s0
8040d01c:	0202802a 	slt	s0,s0,v0
8040d020:	16000013 	bnez	s0,8040d070 <lib_strcmpi+0xa0>
8040d024:	26520001 	addiu	s2,s2,1
8040d028:	14600012 	bnez	v1,8040d074 <lib_strcmpi+0xa4>
8040d02c:	24030001 	li	v1,1
8040d030:	82220000 	lb	v0,0(s1)
8040d034:	1440ffef 	bnez	v0,8040cff4 <lib_strcmpi+0x24>
8040d038:	00000000 	nop
8040d03c:	92440000 	lbu	a0,0(s2)
8040d040:	10800004 	beqz	a0,8040d054 <lib_strcmpi+0x84>
8040d044:	00000000 	nop
8040d048:	82220000 	lb	v0,0(s1)
8040d04c:	10400009 	beqz	v0,8040d074 <lib_strcmpi+0xa4>
8040d050:	24030001 	li	v1,1
8040d054:	14800007 	bnez	a0,8040d074 <lib_strcmpi+0xa4>
8040d058:	00001821 	move	v1,zero
8040d05c:	82220000 	lb	v0,0(s1)
8040d060:	14400004 	bnez	v0,8040d074 <lib_strcmpi+0xa4>
8040d064:	2403ffff 	li	v1,-1
8040d068:	0810341d 	j	8040d074 <lib_strcmpi+0xa4>
8040d06c:	00001821 	move	v1,zero
8040d070:	2403ffff 	li	v1,-1
8040d074:	8fbf001c 	lw	ra,28(sp)
8040d078:	8fb20018 	lw	s2,24(sp)
8040d07c:	8fb10014 	lw	s1,20(sp)
8040d080:	8fb00010 	lw	s0,16(sp)
8040d084:	00601021 	move	v0,v1
8040d088:	03e00008 	jr	ra
8040d08c:	27bd0020 	addiu	sp,sp,32

8040d090 <lib_strchr>:
8040d090:	90820000 	lbu	v0,0(a0)
8040d094:	10400009 	beqz	v0,8040d0bc <lib_strchr+0x2c>
8040d098:	00000000 	nop
8040d09c:	00021600 	sll	v0,v0,0x18
8040d0a0:	00021603 	sra	v0,v0,0x18
8040d0a4:	14450003 	bne	v0,a1,8040d0b4 <lib_strchr+0x24>
8040d0a8:	00801021 	move	v0,a0
8040d0ac:	03e00008 	jr	ra
8040d0b0:	00000000 	nop
8040d0b4:	08103424 	j	8040d090 <lib_strchr>
8040d0b8:	24840001 	addiu	a0,a0,1
8040d0bc:	03e00008 	jr	ra
8040d0c0:	00001021 	move	v0,zero

8040d0c4 <lib_strnchr>:
8040d0c4:	80830000 	lb	v1,0(a0)
8040d0c8:	0810343b 	j	8040d0ec <lib_strnchr+0x28>
8040d0cc:	00801021 	move	v0,a0
8040d0d0:	18c00008 	blez	a2,8040d0f4 <lib_strnchr+0x30>
8040d0d4:	00000000 	nop
8040d0d8:	10650007 	beq	v1,a1,8040d0f8 <lib_strnchr+0x34>
8040d0dc:	00000000 	nop
8040d0e0:	24420001 	addiu	v0,v0,1
8040d0e4:	80430000 	lb	v1,0(v0)
8040d0e8:	24c6ffff 	addiu	a2,a2,-1
8040d0ec:	1460fff8 	bnez	v1,8040d0d0 <lib_strnchr+0xc>
8040d0f0:	00000000 	nop
8040d0f4:	00001021 	move	v0,zero
8040d0f8:	03e00008 	jr	ra
8040d0fc:	00000000 	nop

8040d100 <lib_strrchr>:
8040d100:	90820000 	lbu	v0,0(a0)
8040d104:	00001821 	move	v1,zero
8040d108:	10400008 	beqz	v0,8040d12c <lib_strrchr+0x2c>
8040d10c:	00000000 	nop
8040d110:	00021600 	sll	v0,v0,0x18
8040d114:	00021603 	sra	v0,v0,0x18
8040d118:	00451026 	xor	v0,v0,a1
8040d11c:	0082180a 	movz	v1,a0,v0
8040d120:	24840001 	addiu	a0,a0,1
8040d124:	08103442 	j	8040d108 <lib_strrchr+0x8>
8040d128:	90820000 	lbu	v0,0(a0)
8040d12c:	03e00008 	jr	ra
8040d130:	00601021 	move	v0,v1

8040d134 <lib_memcmp>:
8040d134:	10c0000e 	beqz	a2,8040d170 <lib_memcmp+0x3c>
8040d138:	24c6ffff 	addiu	a2,a2,-1
8040d13c:	90820000 	lbu	v0,0(a0)
8040d140:	90a30000 	lbu	v1,0(a1)
8040d144:	24840001 	addiu	a0,a0,1
8040d148:	0062382b 	sltu	a3,v1,v0
8040d14c:	0043102b 	sltu	v0,v0,v1
8040d150:	10400003 	beqz	v0,8040d160 <lib_memcmp+0x2c>
8040d154:	24a50001 	addiu	a1,a1,1
8040d158:	03e00008 	jr	ra
8040d15c:	2402ffff 	li	v0,-1
8040d160:	10e0fff4 	beqz	a3,8040d134 <lib_memcmp>
8040d164:	24020001 	li	v0,1
8040d168:	03e00008 	jr	ra
8040d16c:	00000000 	nop
8040d170:	03e00008 	jr	ra
8040d174:	00001021 	move	v0,zero

8040d178 <lib_memcpy>:
8040d178:	00801821 	move	v1,a0
8040d17c:	10c00006 	beqz	a2,8040d198 <lib_memcpy+0x20>
8040d180:	24c6ffff 	addiu	a2,a2,-1
8040d184:	90a20000 	lbu	v0,0(a1)
8040d188:	24a50001 	addiu	a1,a1,1
8040d18c:	a0620000 	sb	v0,0(v1)
8040d190:	0810345f 	j	8040d17c <lib_memcpy+0x4>
8040d194:	24630001 	addiu	v1,v1,1
8040d198:	03e00008 	jr	ra
8040d19c:	00801021 	move	v0,a0

8040d1a0 <lib_memset>:
8040d1a0:	00801021 	move	v0,a0
8040d1a4:	10c00004 	beqz	a2,8040d1b8 <lib_memset+0x18>
8040d1a8:	24c6ffff 	addiu	a2,a2,-1
8040d1ac:	a0450000 	sb	a1,0(v0)
8040d1b0:	08103469 	j	8040d1a4 <lib_memset+0x4>
8040d1b4:	24420001 	addiu	v0,v0,1
8040d1b8:	03e00008 	jr	ra
8040d1bc:	00000000 	nop

8040d1c0 <lib_strupr>:
8040d1c0:	27bdffe8 	addiu	sp,sp,-24
8040d1c4:	afb00010 	sw	s0,16(sp)
8040d1c8:	afbf0014 	sw	ra,20(sp)
8040d1cc:	00808021 	move	s0,a0
8040d1d0:	92040000 	lbu	a0,0(s0)
8040d1d4:	10800006 	beqz	a0,8040d1f0 <lib_strupr+0x30>
8040d1d8:	00042600 	sll	a0,a0,0x18
8040d1dc:	0c1033e9 	jal	8040cfa4 <lib_toupper>
8040d1e0:	00042603 	sra	a0,a0,0x18
8040d1e4:	a2020000 	sb	v0,0(s0)
8040d1e8:	08103474 	j	8040d1d0 <lib_strupr+0x10>
8040d1ec:	26100001 	addiu	s0,s0,1
8040d1f0:	8fbf0014 	lw	ra,20(sp)
8040d1f4:	8fb00010 	lw	s0,16(sp)
8040d1f8:	03e00008 	jr	ra
8040d1fc:	27bd0018 	addiu	sp,sp,24

8040d200 <lib_strcat>:
8040d200:	80820000 	lb	v0,0(a0)
8040d204:	00801821 	move	v1,a0
8040d208:	10400004 	beqz	v0,8040d21c <lib_strcat+0x1c>
8040d20c:	00000000 	nop
8040d210:	24630001 	addiu	v1,v1,1
8040d214:	08103482 	j	8040d208 <lib_strcat+0x8>
8040d218:	80620000 	lb	v0,0(v1)
8040d21c:	90a20000 	lbu	v0,0(a1)
8040d220:	10400005 	beqz	v0,8040d238 <lib_strcat+0x38>
8040d224:	24a50001 	addiu	a1,a1,1
8040d228:	a0620000 	sb	v0,0(v1)
8040d22c:	90a20000 	lbu	v0,0(a1)
8040d230:	08103488 	j	8040d220 <lib_strcat+0x20>
8040d234:	24630001 	addiu	v1,v1,1
8040d238:	00801021 	move	v0,a0
8040d23c:	03e00008 	jr	ra
8040d240:	a0600000 	sb	zero,0(v1)

8040d244 <lib_gettoken>:
8040d244:	8c830000 	lw	v1,0(a0)
8040d248:	80650000 	lb	a1,0(v1)
8040d24c:	10a00010 	beqz	a1,8040d290 <lib_gettoken+0x4c>
8040d250:	24020020 	li	v0,32
8040d254:	10a20003 	beq	a1,v0,8040d264 <lib_gettoken+0x20>
8040d258:	24020009 	li	v0,9
8040d25c:	14a2000c 	bne	a1,v0,8040d290 <lib_gettoken+0x4c>
8040d260:	00000000 	nop
8040d264:	24060020 	li	a2,32
8040d268:	24050009 	li	a1,9
8040d26c:	24630001 	addiu	v1,v1,1
8040d270:	80620000 	lb	v0,0(v1)
8040d274:	10400007 	beqz	v0,8040d294 <lib_gettoken+0x50>
8040d278:	00000000 	nop
8040d27c:	1046fffb 	beq	v0,a2,8040d26c <lib_gettoken+0x28>
8040d280:	00000000 	nop
8040d284:	1045fffa 	beq	v0,a1,8040d270 <lib_gettoken+0x2c>
8040d288:	24630001 	addiu	v1,v1,1
8040d28c:	2463ffff 	addiu	v1,v1,-1
8040d290:	80620000 	lb	v0,0(v1)
8040d294:	14400003 	bnez	v0,8040d2a4 <lib_gettoken+0x60>
8040d298:	00602821 	move	a1,v1
8040d29c:	03e00008 	jr	ra
8040d2a0:	ac830000 	sw	v1,0(a0)
8040d2a4:	24090020 	li	t1,32
8040d2a8:	24080009 	li	t0,9
8040d2ac:	24070022 	li	a3,34
8040d2b0:	80620000 	lb	v0,0(v1)
8040d2b4:	1049001a 	beq	v0,t1,8040d320 <lib_gettoken+0xdc>
8040d2b8:	00000000 	nop
8040d2bc:	10480018 	beq	v0,t0,8040d320 <lib_gettoken+0xdc>
8040d2c0:	00000000 	nop
8040d2c4:	14470012 	bne	v0,a3,8040d310 <lib_gettoken+0xcc>
8040d2c8:	00000000 	nop
8040d2cc:	24650001 	addiu	a1,v1,1
8040d2d0:	80a20000 	lb	v0,0(a1)
8040d2d4:	1040000a 	beqz	v0,8040d300 <lib_gettoken+0xbc>
8040d2d8:	00a01821 	move	v1,a1
8040d2dc:	10470008 	beq	v0,a3,8040d300 <lib_gettoken+0xbc>
8040d2e0:	00000000 	nop
8040d2e4:	24060022 	li	a2,34
8040d2e8:	24630001 	addiu	v1,v1,1
8040d2ec:	80620000 	lb	v0,0(v1)
8040d2f0:	10400004 	beqz	v0,8040d304 <lib_gettoken+0xc0>
8040d2f4:	00000000 	nop
8040d2f8:	1446fffb 	bne	v0,a2,8040d2e8 <lib_gettoken+0xa4>
8040d2fc:	00000000 	nop
8040d300:	80620000 	lb	v0,0(v1)
8040d304:	14470002 	bne	v0,a3,8040d310 <lib_gettoken+0xcc>
8040d308:	00000000 	nop
8040d30c:	a0600000 	sb	zero,0(v1)
8040d310:	24630001 	addiu	v1,v1,1
8040d314:	80620000 	lb	v0,0(v1)
8040d318:	1440ffe6 	bnez	v0,8040d2b4 <lib_gettoken+0x70>
8040d31c:	00000000 	nop
8040d320:	10400003 	beqz	v0,8040d330 <lib_gettoken+0xec>
8040d324:	00000000 	nop
8040d328:	a0600000 	sb	zero,0(v1)
8040d32c:	24630001 	addiu	v1,v1,1
8040d330:	00a01021 	move	v0,a1
8040d334:	03e00008 	jr	ra
8040d338:	ac830000 	sw	v1,0(a0)

8040d33c <lib_xtoi>:
8040d33c:	80830000 	lb	v1,0(a0)
8040d340:	24020030 	li	v0,48
8040d344:	00803021 	move	a2,a0
8040d348:	14620005 	bne	v1,v0,8040d360 <lib_xtoi+0x24>
8040d34c:	00004021 	move	t0,zero
8040d350:	80820001 	lb	v0,1(a0)
8040d354:	24830002 	addiu	v1,a0,2
8040d358:	38420078 	xori	v0,v0,0x78
8040d35c:	0062300a 	movz	a2,v1,v0
8040d360:	90c50000 	lbu	a1,0(a2)
8040d364:	10a0001a 	beqz	a1,8040d3d0 <lib_xtoi+0x94>
8040d368:	24a3ffbf 	addiu	v1,a1,-65
8040d36c:	24a2ffd0 	addiu	v0,a1,-48
8040d370:	304200ff 	andi	v0,v0,0xff
8040d374:	00052600 	sll	a0,a1,0x18
8040d378:	306300ff 	andi	v1,v1,0xff
8040d37c:	00042603 	sra	a0,a0,0x18
8040d380:	2c42000a 	sltiu	v0,v0,10
8040d384:	2c670006 	sltiu	a3,v1,6
8040d388:	1440000c 	bnez	v0,8040d3bc <lib_xtoi+0x80>
8040d38c:	2483ffd0 	addiu	v1,a0,-48
8040d390:	24a2ff9f 	addiu	v0,a1,-97
8040d394:	00051e00 	sll	v1,a1,0x18
8040d398:	00031e03 	sra	v1,v1,0x18
8040d39c:	304200ff 	andi	v0,v0,0xff
8040d3a0:	00052600 	sll	a0,a1,0x18
8040d3a4:	2463ffc9 	addiu	v1,v1,-55
8040d3a8:	2c420006 	sltiu	v0,v0,6
8040d3ac:	14e00003 	bnez	a3,8040d3bc <lib_xtoi+0x80>
8040d3b0:	00042603 	sra	a0,a0,0x18
8040d3b4:	10400006 	beqz	v0,8040d3d0 <lib_xtoi+0x94>
8040d3b8:	2483ffa9 	addiu	v1,a0,-87
8040d3bc:	24c60001 	addiu	a2,a2,1
8040d3c0:	90c50000 	lbu	a1,0(a2)
8040d3c4:	00084100 	sll	t0,t0,0x4
8040d3c8:	081034d9 	j	8040d364 <lib_xtoi+0x28>
8040d3cc:	01034021 	addu	t0,t0,v1
8040d3d0:	03e00008 	jr	ra
8040d3d4:	01001021 	move	v0,t0

8040d3d8 <lib_atoi>:
8040d3d8:	90850000 	lbu	a1,0(a0)
8040d3dc:	24020030 	li	v0,48
8040d3e0:	00051e00 	sll	v1,a1,0x18
8040d3e4:	00031e03 	sra	v1,v1,0x18
8040d3e8:	14620007 	bne	v1,v0,8040d408 <lib_atoi+0x30>
8040d3ec:	00003021 	move	a2,zero
8040d3f0:	80830001 	lb	v1,1(a0)
8040d3f4:	24020078 	li	v0,120
8040d3f8:	14620003 	bne	v1,v0,8040d408 <lib_atoi+0x30>
8040d3fc:	00000000 	nop
8040d400:	081034cf 	j	8040d33c <lib_xtoi>
8040d404:	24840002 	addiu	a0,a0,2
8040d408:	10a0000e 	beqz	a1,8040d444 <lib_atoi+0x6c>
8040d40c:	00051e00 	sll	v1,a1,0x18
8040d410:	00061080 	sll	v0,a2,0x2
8040d414:	00463821 	addu	a3,v0,a2
8040d418:	24a2ffd0 	addiu	v0,a1,-48
8040d41c:	304200ff 	andi	v0,v0,0xff
8040d420:	00031e03 	sra	v1,v1,0x18
8040d424:	2c42000a 	sltiu	v0,v0,10
8040d428:	24840001 	addiu	a0,a0,1
8040d42c:	10400005 	beqz	v0,8040d444 <lib_atoi+0x6c>
8040d430:	2463ffd0 	addiu	v1,v1,-48
8040d434:	90850000 	lbu	a1,0(a0)
8040d438:	00073040 	sll	a2,a3,0x1
8040d43c:	08103502 	j	8040d408 <lib_atoi+0x30>
8040d440:	00c33021 	addu	a2,a2,v1
8040d444:	03e00008 	jr	ra
8040d448:	00c01021 	move	v0,a2

8040d44c <lib_xtoq>:
8040d44c:	80830000 	lb	v1,0(a0)
8040d450:	24020030 	li	v0,48
8040d454:	00803021 	move	a2,a0
8040d458:	00004821 	move	t1,zero
8040d45c:	14620005 	bne	v1,v0,8040d474 <lib_xtoq+0x28>
8040d460:	00004021 	move	t0,zero
8040d464:	80820001 	lb	v0,1(a0)
8040d468:	24830002 	addiu	v1,a0,2
8040d46c:	38420078 	xori	v0,v0,0x78
8040d470:	0062300a 	movz	a2,v1,v0
8040d474:	90c50000 	lbu	a1,0(a2)
8040d478:	10a00020 	beqz	a1,8040d4fc <lib_xtoq+0xb0>
8040d47c:	00052600 	sll	a0,a1,0x18
8040d480:	24a2ffd0 	addiu	v0,a1,-48
8040d484:	24a3ffbf 	addiu	v1,a1,-65
8040d488:	304200ff 	andi	v0,v0,0xff
8040d48c:	306300ff 	andi	v1,v1,0xff
8040d490:	00042603 	sra	a0,a0,0x18
8040d494:	2c42000a 	sltiu	v0,v0,10
8040d498:	2c670006 	sltiu	a3,v1,6
8040d49c:	1440000a 	bnez	v0,8040d4c8 <lib_xtoq+0x7c>
8040d4a0:	2484ffd0 	addiu	a0,a0,-48
8040d4a4:	24a2ff9f 	addiu	v0,a1,-97
8040d4a8:	00051e00 	sll	v1,a1,0x18
8040d4ac:	00031e03 	sra	v1,v1,0x18
8040d4b0:	304200ff 	andi	v0,v0,0xff
8040d4b4:	2464ffc9 	addiu	a0,v1,-55
8040d4b8:	14e00003 	bnez	a3,8040d4c8 <lib_xtoq+0x7c>
8040d4bc:	2c420006 	sltiu	v0,v0,6
8040d4c0:	1040000e 	beqz	v0,8040d4fc <lib_xtoq+0xb0>
8040d4c4:	2464ffa9 	addiu	a0,v1,-87
8040d4c8:	00801821 	move	v1,a0
8040d4cc:	24c60001 	addiu	a2,a2,1
8040d4d0:	00092702 	srl	a0,t1,0x1c
8040d4d4:	00084100 	sll	t0,t0,0x4
8040d4d8:	00094900 	sll	t1,t1,0x4
8040d4dc:	01044025 	or	t0,t0,a0
8040d4e0:	00001021 	move	v0,zero
8040d4e4:	01234821 	addu	t1,t1,v1
8040d4e8:	90c50000 	lbu	a1,0(a2)
8040d4ec:	0123202b 	sltu	a0,t1,v1
8040d4f0:	01024021 	addu	t0,t0,v0
8040d4f4:	0810351e 	j	8040d478 <lib_xtoq+0x2c>
8040d4f8:	01044021 	addu	t0,t0,a0
8040d4fc:	01201821 	move	v1,t1
8040d500:	03e00008 	jr	ra
8040d504:	01001021 	move	v0,t0

8040d508 <lib_setjmp>:
8040d508:	ac900000 	sw	s0,0(a0)
8040d50c:	ac910008 	sw	s1,8(a0)
8040d510:	ac920010 	sw	s2,16(a0)
8040d514:	ac930018 	sw	s3,24(a0)
8040d518:	ac940020 	sw	s4,32(a0)
8040d51c:	ac950028 	sw	s5,40(a0)
8040d520:	ac960030 	sw	s6,48(a0)
8040d524:	ac970038 	sw	s7,56(a0)
8040d528:	ac9e0040 	sw	s8,64(a0)
8040d52c:	ac9d0048 	sw	sp,72(a0)
8040d530:	ac9f0050 	sw	ra,80(a0)
8040d534:	00001021 	move	v0,zero
8040d538:	03e00008 	jr	ra
8040d53c:	00000000 	nop

8040d540 <lib_longjmp>:
8040d540:	8c900000 	lw	s0,0(a0)
8040d544:	8c910008 	lw	s1,8(a0)
8040d548:	8c920010 	lw	s2,16(a0)
8040d54c:	8c930018 	lw	s3,24(a0)
8040d550:	8c940020 	lw	s4,32(a0)
8040d554:	8c950028 	lw	s5,40(a0)
8040d558:	8c960030 	lw	s6,48(a0)
8040d55c:	8c970038 	lw	s7,56(a0)
8040d560:	8c9e0040 	lw	s8,64(a0)
8040d564:	8c9d0048 	lw	sp,72(a0)
8040d568:	8c9f0050 	lw	ra,80(a0)
8040d56c:	00a01021 	move	v0,a1
8040d570:	03e00008 	jr	ra
8040d574:	00000000 	nop

8040d578 <arena_init>:
8040d578:	27bdffd8 	addiu	sp,sp,-40
8040d57c:	afb30018 	sw	s3,24(sp)
8040d580:	afb20014 	sw	s2,20(sp)
8040d584:	8fb3003c 	lw	s3,60(sp)
8040d588:	8fb20038 	lw	s2,56(sp)
8040d58c:	afb00010 	sw	s0,16(sp)
8040d590:	00808021 	move	s0,a0
8040d594:	3c048042 	lui	a0,0x8042
8040d598:	afb4001c 	sw	s4,28(sp)
8040d59c:	24842bec 	addiu	a0,a0,11244
8040d5a0:	00c0a021 	move	s4,a2
8040d5a4:	24050020 	li	a1,32
8040d5a8:	24060008 	li	a2,8
8040d5ac:	afbf0024 	sw	ra,36(sp)
8040d5b0:	afb50020 	sw	s5,32(sp)
8040d5b4:	0c103064 	jal	8040c190 <kmalloc>
8040d5b8:	00e0a821 	move	s5,a3
8040d5bc:	ac400018 	sw	zero,24(v0)
8040d5c0:	ae15000c 	sw	s5,12(s0)
8040d5c4:	ae140008 	sw	s4,8(s0)
8040d5c8:	ae130014 	sw	s3,20(s0)
8040d5cc:	ae120010 	sw	s2,16(s0)
8040d5d0:	ae100004 	sw	s0,4(s0)
8040d5d4:	ac55000c 	sw	s5,12(v0)
8040d5d8:	ac540008 	sw	s4,8(v0)
8040d5dc:	ac530014 	sw	s3,20(v0)
8040d5e0:	ac520010 	sw	s2,16(v0)
8040d5e4:	ae100000 	sw	s0,0(s0)
8040d5e8:	02002021 	move	a0,s0
8040d5ec:	8fbf0024 	lw	ra,36(sp)
8040d5f0:	8fb50020 	lw	s5,32(sp)
8040d5f4:	8fb4001c 	lw	s4,28(sp)
8040d5f8:	8fb30018 	lw	s3,24(sp)
8040d5fc:	8fb20014 	lw	s2,20(sp)
8040d600:	8fb00010 	lw	s0,16(sp)
8040d604:	ac40001c 	sw	zero,28(v0)
8040d608:	00402821 	move	a1,v0
8040d60c:	08103341 	j	8040cd04 <q_enqueue>
8040d610:	27bd0028 	addiu	sp,sp,40

8040d614 <arena_split>:
8040d614:	27bdffe0 	addiu	sp,sp,-32
8040d618:	afb30018 	sw	s3,24(sp)
8040d61c:	afb20014 	sw	s2,20(sp)
8040d620:	afbf001c 	sw	ra,28(sp)
8040d624:	afb00010 	sw	s0,16(sp)
8040d628:	8c850014 	lw	a1,20(a0)
8040d62c:	8c83000c 	lw	v1,12(a0)
8040d630:	8c820008 	lw	v0,8(a0)
8040d634:	00804021 	move	t0,a0
8040d638:	8c840010 	lw	a0,16(a0)
8040d63c:	00651821 	addu	v1,v1,a1
8040d640:	00c09021 	move	s2,a2
8040d644:	00441021 	addu	v0,v0,a0
8040d648:	0065302b 	sltu	a2,v1,a1
8040d64c:	00461021 	addu	v0,v0,a2
8040d650:	16420003 	bne	s2,v0,8040d660 <arena_split+0x4c>
8040d654:	00e09821 	move	s3,a3
8040d658:	10e30046 	beq	a3,v1,8040d774 <arena_split+0x160>
8040d65c:	00002021 	move	a0,zero
8040d660:	8d070000 	lw	a3,0(t0)
8040d664:	10e8001e 	beq	a3,t0,8040d6e0 <arena_split+0xcc>
8040d668:	00000000 	nop
8040d66c:	8ce30008 	lw	v1,8(a3)
8040d670:	0243102b 	sltu	v0,s2,v1
8040d674:	14400016 	bnez	v0,8040d6d0 <arena_split+0xbc>
8040d678:	00000000 	nop
8040d67c:	14720005 	bne	v1,s2,8040d694 <arena_split+0x80>
8040d680:	00000000 	nop
8040d684:	8ce2000c 	lw	v0,12(a3)
8040d688:	0262102b 	sltu	v0,s3,v0
8040d68c:	14400010 	bnez	v0,8040d6d0 <arena_split+0xbc>
8040d690:	00000000 	nop
8040d694:	8ce30014 	lw	v1,20(a3)
8040d698:	8ce5000c 	lw	a1,12(a3)
8040d69c:	8ce20010 	lw	v0,16(a3)
8040d6a0:	8ce40008 	lw	a0,8(a3)
8040d6a4:	00a32821 	addu	a1,a1,v1
8040d6a8:	00a3302b 	sltu	a2,a1,v1
8040d6ac:	00822021 	addu	a0,a0,v0
8040d6b0:	00862021 	addu	a0,a0,a2
8040d6b4:	0244102b 	sltu	v0,s2,a0
8040d6b8:	14400007 	bnez	v0,8040d6d8 <arena_split+0xc4>
8040d6bc:	0265182b 	sltu	v1,s3,a1
8040d6c0:	14920003 	bne	a0,s2,8040d6d0 <arena_split+0xbc>
8040d6c4:	00000000 	nop
8040d6c8:	14600003 	bnez	v1,8040d6d8 <arena_split+0xc4>
8040d6cc:	00000000 	nop
8040d6d0:	08103599 	j	8040d664 <arena_split+0x50>
8040d6d4:	8ce70000 	lw	a3,0(a3)
8040d6d8:	14e00003 	bnez	a3,8040d6e8 <arena_split+0xd4>
8040d6dc:	00e08021 	move	s0,a3
8040d6e0:	081035dd 	j	8040d774 <arena_split+0x160>
8040d6e4:	2404ffff 	li	a0,-1
8040d6e8:	8ce20008 	lw	v0,8(a3)
8040d6ec:	14520005 	bne	v0,s2,8040d704 <arena_split+0xf0>
8040d6f0:	3c048042 	lui	a0,0x8042
8040d6f4:	8ce2000c 	lw	v0,12(a3)
8040d6f8:	1053001e 	beq	v0,s3,8040d774 <arena_split+0x160>
8040d6fc:	00002021 	move	a0,zero
8040d700:	3c048042 	lui	a0,0x8042
8040d704:	24842bec 	addiu	a0,a0,11244
8040d708:	24050020 	li	a1,32
8040d70c:	0c103064 	jal	8040c190 <kmalloc>
8040d710:	24060008 	li	a2,8
8040d714:	8e09000c 	lw	t1,12(s0)
8040d718:	8e080008 	lw	t0,8(s0)
8040d71c:	8e070014 	lw	a3,20(s0)
8040d720:	8e060010 	lw	a2,16(s0)
8040d724:	0269202b 	sltu	a0,s3,t1
8040d728:	02484023 	subu	t0,s2,t0
8040d72c:	02694823 	subu	t1,s3,t1
8040d730:	01044023 	subu	t0,t0,a0
8040d734:	8e030018 	lw	v1,24(s0)
8040d738:	00e9282b 	sltu	a1,a3,t1
8040d73c:	8e040000 	lw	a0,0(s0)
8040d740:	00c83023 	subu	a2,a2,t0
8040d744:	00c53023 	subu	a2,a2,a1
8040d748:	00e93823 	subu	a3,a3,t1
8040d74c:	ac470014 	sw	a3,20(v0)
8040d750:	ac460010 	sw	a2,16(v0)
8040d754:	ac53000c 	sw	s3,12(v0)
8040d758:	ac520008 	sw	s2,8(v0)
8040d75c:	ae090014 	sw	t1,20(s0)
8040d760:	ae080010 	sw	t0,16(s0)
8040d764:	ac430018 	sw	v1,24(v0)
8040d768:	0c103341 	jal	8040cd04 <q_enqueue>
8040d76c:	00402821 	move	a1,v0
8040d770:	00002021 	move	a0,zero
8040d774:	8fbf001c 	lw	ra,28(sp)
8040d778:	8fb30018 	lw	s3,24(sp)
8040d77c:	8fb20014 	lw	s2,20(sp)
8040d780:	8fb00010 	lw	s0,16(sp)
8040d784:	00801021 	move	v0,a0
8040d788:	03e00008 	jr	ra
8040d78c:	27bd0020 	addiu	sp,sp,32

8040d790 <arena_coalesce>:
8040d790:	27bdffd8 	addiu	sp,sp,-40
8040d794:	afb20018 	sw	s2,24(sp)
8040d798:	afbf0020 	sw	ra,32(sp)
8040d79c:	afb3001c 	sw	s3,28(sp)
8040d7a0:	afb10014 	sw	s1,20(sp)
8040d7a4:	afb00010 	sw	s0,16(sp)
8040d7a8:	00809021 	move	s2,a0
8040d7ac:	8e500000 	lw	s0,0(s2)
8040d7b0:	00009821 	move	s3,zero
8040d7b4:	1212001a 	beq	s0,s2,8040d820 <arena_coalesce+0x90>
8040d7b8:	00000000 	nop
8040d7bc:	8e110000 	lw	s1,0(s0)
8040d7c0:	12320017 	beq	s1,s2,8040d820 <arena_coalesce+0x90>
8040d7c4:	02202021 	move	a0,s1
8040d7c8:	8e030018 	lw	v1,24(s0)
8040d7cc:	8e220018 	lw	v0,24(s1)
8040d7d0:	14620011 	bne	v1,v0,8040d818 <arena_coalesce+0x88>
8040d7d4:	00000000 	nop
8040d7d8:	8e270014 	lw	a3,20(s1)
8040d7dc:	8e030014 	lw	v1,20(s0)
8040d7e0:	8e260010 	lw	a2,16(s1)
8040d7e4:	8e020010 	lw	v0,16(s0)
8040d7e8:	00671821 	addu	v1,v1,a3
8040d7ec:	0067282b 	sltu	a1,v1,a3
8040d7f0:	00461021 	addu	v0,v0,a2
8040d7f4:	00451021 	addu	v0,v0,a1
8040d7f8:	ae030014 	sw	v1,20(s0)
8040d7fc:	0c103347 	jal	8040cd1c <q_dequeue>
8040d800:	ae020010 	sw	v0,16(s0)
8040d804:	3c048042 	lui	a0,0x8042
8040d808:	24842bec 	addiu	a0,a0,11244
8040d80c:	02202821 	move	a1,s1
8040d810:	0c103031 	jal	8040c0c4 <kfree>
8040d814:	26730001 	addiu	s3,s3,1
8040d818:	081035ed 	j	8040d7b4 <arena_coalesce+0x24>
8040d81c:	8e100000 	lw	s0,0(s0)
8040d820:	1e60ffe2 	bgtz	s3,8040d7ac <arena_coalesce+0x1c>
8040d824:	8fbf0020 	lw	ra,32(sp)
8040d828:	8fb3001c 	lw	s3,28(sp)
8040d82c:	8fb20018 	lw	s2,24(sp)
8040d830:	8fb10014 	lw	s1,20(sp)
8040d834:	8fb00010 	lw	s0,16(sp)
8040d838:	03e00008 	jr	ra
8040d83c:	27bd0028 	addiu	sp,sp,40

8040d840 <arena_markrange>:
8040d840:	27bdffd0 	addiu	sp,sp,-48
8040d844:	afb60028 	sw	s6,40(sp)
8040d848:	afb50024 	sw	s5,36(sp)
8040d84c:	afb40020 	sw	s4,32(sp)
8040d850:	afb3001c 	sw	s3,28(sp)
8040d854:	afb20018 	sw	s2,24(sp)
8040d858:	afb10014 	sw	s1,20(sp)
8040d85c:	afb00010 	sw	s0,16(sp)
8040d860:	afbf002c 	sw	ra,44(sp)
8040d864:	8c830008 	lw	v1,8(a0)
8040d868:	00809021 	move	s2,a0
8040d86c:	00e08821 	move	s1,a3
8040d870:	00c3102b 	sltu	v0,a2,v1
8040d874:	00c08021 	move	s0,a2
8040d878:	8fb50044 	lw	s5,68(sp)
8040d87c:	8fb40040 	lw	s4,64(sp)
8040d880:	8fb60048 	lw	s6,72(sp)
8040d884:	1440002b 	bnez	v0,8040d934 <arena_markrange+0xf4>
8040d888:	8fb3004c 	lw	s3,76(sp)
8040d88c:	14660005 	bne	v1,a2,8040d8a4 <arena_markrange+0x64>
8040d890:	00000000 	nop
8040d894:	8c82000c 	lw	v0,12(a0)
8040d898:	00e2102b 	sltu	v0,a3,v0
8040d89c:	1440004c 	bnez	v0,8040d9d0 <arena_markrange+0x190>
8040d8a0:	2403ffff 	li	v1,-1
8040d8a4:	8e430014 	lw	v1,20(s2)
8040d8a8:	8e45000c 	lw	a1,12(s2)
8040d8ac:	8e420010 	lw	v0,16(s2)
8040d8b0:	8e440008 	lw	a0,8(s2)
8040d8b4:	02354821 	addu	t1,s1,s5
8040d8b8:	0135302b 	sltu	a2,t1,s5
8040d8bc:	02144021 	addu	t0,s0,s4
8040d8c0:	00a32821 	addu	a1,a1,v1
8040d8c4:	01064021 	addu	t0,t0,a2
8040d8c8:	00822021 	addu	a0,a0,v0
8040d8cc:	00a3302b 	sltu	a2,a1,v1
8040d8d0:	00862021 	addu	a0,a0,a2
8040d8d4:	0088102b 	sltu	v0,a0,t0
8040d8d8:	14400016 	bnez	v0,8040d934 <arena_markrange+0xf4>
8040d8dc:	00000000 	nop
8040d8e0:	15040005 	bne	t0,a0,8040d8f8 <arena_markrange+0xb8>
8040d8e4:	02402021 	move	a0,s2
8040d8e8:	00a9102b 	sltu	v0,a1,t1
8040d8ec:	14400038 	bnez	v0,8040d9d0 <arena_markrange+0x190>
8040d8f0:	2403ffff 	li	v1,-1
8040d8f4:	02402021 	move	a0,s2
8040d8f8:	02203821 	move	a3,s1
8040d8fc:	0c103585 	jal	8040d614 <arena_split>
8040d900:	02003021 	move	a2,s0
8040d904:	04400032 	bltz	v0,8040d9d0 <arena_markrange+0x190>
8040d908:	2403ffff 	li	v1,-1
8040d90c:	02353821 	addu	a3,s1,s5
8040d910:	00f5102b 	sltu	v0,a3,s5
8040d914:	02143021 	addu	a2,s0,s4
8040d918:	00c23021 	addu	a2,a2,v0
8040d91c:	0c103585 	jal	8040d614 <arena_split>
8040d920:	02402021 	move	a0,s2
8040d924:	04410005 	bgez	v0,8040d93c <arena_markrange+0xfc>
8040d928:	00000000 	nop
8040d92c:	0c1035e4 	jal	8040d790 <arena_coalesce>
8040d930:	02402021 	move	a0,s2
8040d934:	08103674 	j	8040d9d0 <arena_markrange+0x190>
8040d938:	2403ffff 	li	v1,-1
8040d93c:	8e470000 	lw	a3,0(s2)
8040d940:	10f20020 	beq	a3,s2,8040d9c4 <arena_markrange+0x184>
8040d944:	00000000 	nop
8040d948:	8ce30008 	lw	v1,8(a3)
8040d94c:	0070102b 	sltu	v0,v1,s0
8040d950:	1440001a 	bnez	v0,8040d9bc <arena_markrange+0x17c>
8040d954:	02144021 	addu	t0,s0,s4
8040d958:	02354821 	addu	t1,s1,s5
8040d95c:	0135102b 	sltu	v0,t1,s5
8040d960:	14700005 	bne	v1,s0,8040d978 <arena_markrange+0x138>
8040d964:	01024021 	addu	t0,t0,v0
8040d968:	8ce2000c 	lw	v0,12(a3)
8040d96c:	0051102b 	sltu	v0,v0,s1
8040d970:	14400012 	bnez	v0,8040d9bc <arena_markrange+0x17c>
8040d974:	00000000 	nop
8040d978:	8ce30014 	lw	v1,20(a3)
8040d97c:	8ce5000c 	lw	a1,12(a3)
8040d980:	8ce20010 	lw	v0,16(a3)
8040d984:	8ce40008 	lw	a0,8(a3)
8040d988:	00a32821 	addu	a1,a1,v1
8040d98c:	00a3302b 	sltu	a2,a1,v1
8040d990:	00822021 	addu	a0,a0,v0
8040d994:	00862021 	addu	a0,a0,a2
8040d998:	0104102b 	sltu	v0,t0,a0
8040d99c:	14400007 	bnez	v0,8040d9bc <arena_markrange+0x17c>
8040d9a0:	00000000 	nop
8040d9a4:	14880003 	bne	a0,t0,8040d9b4 <arena_markrange+0x174>
8040d9a8:	0125102b 	sltu	v0,t1,a1
8040d9ac:	14400003 	bnez	v0,8040d9bc <arena_markrange+0x17c>
8040d9b0:	00000000 	nop
8040d9b4:	acf60018 	sw	s6,24(a3)
8040d9b8:	acf3001c 	sw	s3,28(a3)
8040d9bc:	08103650 	j	8040d940 <arena_markrange+0x100>
8040d9c0:	8ce70000 	lw	a3,0(a3)
8040d9c4:	0c1035e4 	jal	8040d790 <arena_coalesce>
8040d9c8:	02402021 	move	a0,s2
8040d9cc:	00001821 	move	v1,zero
8040d9d0:	8fbf002c 	lw	ra,44(sp)
8040d9d4:	8fb60028 	lw	s6,40(sp)
8040d9d8:	8fb50024 	lw	s5,36(sp)
8040d9dc:	8fb40020 	lw	s4,32(sp)
8040d9e0:	8fb3001c 	lw	s3,28(sp)
8040d9e4:	8fb20018 	lw	s2,24(sp)
8040d9e8:	8fb10014 	lw	s1,20(sp)
8040d9ec:	8fb00010 	lw	s0,16(sp)
8040d9f0:	00601021 	move	v0,v1
8040d9f4:	03e00008 	jr	ra
8040d9f8:	27bd0030 	addiu	sp,sp,48

8040d9fc <cfe_finddev>:
8040d9fc:	27bdffe0 	addiu	sp,sp,-32
8040da00:	afb00010 	sw	s0,16(sp)
8040da04:	8f908078 	lw	s0,-32648(gp)
8040da08:	afb20018 	sw	s2,24(sp)
8040da0c:	afb10014 	sw	s1,20(sp)
8040da10:	afbf001c 	sw	ra,28(sp)
8040da14:	27918078 	addiu	s1,gp,-32648
8040da18:	00809021 	move	s2,a0
8040da1c:	12110008 	beq	s0,s1,8040da40 <cfe_finddev+0x44>
8040da20:	00001021 	move	v0,zero
8040da24:	8e040008 	lw	a0,8(s0)
8040da28:	0c1033c8 	jal	8040cf20 <lib_strcmp>
8040da2c:	02402821 	move	a1,s2
8040da30:	10400003 	beqz	v0,8040da40 <cfe_finddev+0x44>
8040da34:	02001021 	move	v0,s0
8040da38:	08103687 	j	8040da1c <cfe_finddev+0x20>
8040da3c:	8e100000 	lw	s0,0(s0)
8040da40:	8fbf001c 	lw	ra,28(sp)
8040da44:	8fb20018 	lw	s2,24(sp)
8040da48:	8fb10014 	lw	s1,20(sp)
8040da4c:	8fb00010 	lw	s0,16(sp)
8040da50:	03e00008 	jr	ra
8040da54:	27bd0020 	addiu	sp,sp,32

8040da58 <cfe_device_reset>:
8040da58:	27bdffe0 	addiu	sp,sp,-32
8040da5c:	afb00010 	sw	s0,16(sp)
8040da60:	8f908078 	lw	s0,-32648(gp)
8040da64:	afb10014 	sw	s1,20(sp)
8040da68:	afbf0018 	sw	ra,24(sp)
8040da6c:	27918078 	addiu	s1,gp,-32648
8040da70:	12110009 	beq	s0,s1,8040da98 <cfe_device_reset+0x40>
8040da74:	8fbf0018 	lw	ra,24(sp)
8040da78:	8e020014 	lw	v0,20(s0)
8040da7c:	8c42001c 	lw	v0,28(v0)
8040da80:	10400003 	beqz	v0,8040da90 <cfe_device_reset+0x38>
8040da84:	00000000 	nop
8040da88:	0040f809 	jalr	v0
8040da8c:	8e04000c 	lw	a0,12(s0)
8040da90:	0810369c 	j	8040da70 <cfe_device_reset+0x18>
8040da94:	8e100000 	lw	s0,0(s0)
8040da98:	8fb10014 	lw	s1,20(sp)
8040da9c:	8fb00010 	lw	s0,16(sp)
8040daa0:	03e00008 	jr	ra
8040daa4:	27bd0020 	addiu	sp,sp,32

8040daa8 <cfe_attach_idx>:
8040daa8:	27bdff98 	addiu	sp,sp,-104
8040daac:	afb3005c 	sw	s3,92(sp)
8040dab0:	afb20058 	sw	s2,88(sp)
8040dab4:	afb10054 	sw	s1,84(sp)
8040dab8:	afb00050 	sw	s0,80(sp)
8040dabc:	afbf0060 	sw	ra,96(sp)
8040dac0:	00c09821 	move	s3,a2
8040dac4:	8c860004 	lw	a2,4(a0)
8040dac8:	00a01021 	move	v0,a1
8040dacc:	3c058042 	lui	a1,0x8042
8040dad0:	24a5c03c 	addiu	a1,a1,-16324
8040dad4:	00808821 	move	s1,a0
8040dad8:	00e08021 	move	s0,a3
8040dadc:	27a40010 	addiu	a0,sp,16
8040dae0:	00403821 	move	a3,v0
8040dae4:	0c103311 	jal	8040cc44 <xsprintf>
8040dae8:	8fb20078 	lw	s2,120(sp)
8040daec:	3c058042 	lui	a1,0x8042
8040daf0:	24a5bc48 	addiu	a1,a1,-17336
8040daf4:	12000006 	beqz	s0,8040db10 <cfe_attach_idx+0x68>
8040daf8:	27a40010 	addiu	a0,sp,16
8040dafc:	0c103480 	jal	8040d200 <lib_strcat>
8040db00:	00000000 	nop
8040db04:	02002821 	move	a1,s0
8040db08:	0c103480 	jal	8040d200 <lib_strcat>
8040db0c:	27a40010 	addiu	a0,sp,16
8040db10:	0c10367f 	jal	8040d9fc <cfe_finddev>
8040db14:	27a40010 	addiu	a0,sp,16
8040db18:	3c048042 	lui	a0,0x8042
8040db1c:	24842bec 	addiu	a0,a0,11244
8040db20:	24050020 	li	a1,32
8040db24:	00003021 	move	a2,zero
8040db28:	1440001a 	bnez	v0,8040db94 <cfe_attach_idx+0xec>
8040db2c:	00001821 	move	v1,zero
8040db30:	0c103064 	jal	8040c190 <kmalloc>
8040db34:	00000000 	nop
8040db38:	00408021 	move	s0,v0
8040db3c:	27a40010 	addiu	a0,sp,16
8040db40:	10400014 	beqz	v0,8040db94 <cfe_attach_idx+0xec>
8040db44:	2403ffff 	li	v1,-1
8040db48:	0c1061b9 	jal	804186e4 <lib_strdup>
8040db4c:	00000000 	nop
8040db50:	8e25000c 	lw	a1,12(s1)
8040db54:	8e230008 	lw	v1,8(s1)
8040db58:	ae020008 	sw	v0,8(s0)
8040db5c:	02402021 	move	a0,s2
8040db60:	ae13000c 	sw	s3,12(s0)
8040db64:	ae030010 	sw	v1,16(s0)
8040db68:	ae050014 	sw	a1,20(s0)
8040db6c:	12400003 	beqz	s2,8040db7c <cfe_attach_idx+0xd4>
8040db70:	00001021 	move	v0,zero
8040db74:	0c1061b9 	jal	804186e4 <lib_strdup>
8040db78:	00000000 	nop
8040db7c:	ae02001c 	sw	v0,28(s0)
8040db80:	ae000018 	sw	zero,24(s0)
8040db84:	02002821 	move	a1,s0
8040db88:	0c103341 	jal	8040cd04 <q_enqueue>
8040db8c:	27848078 	addiu	a0,gp,-32648
8040db90:	24030001 	li	v1,1
8040db94:	8fbf0060 	lw	ra,96(sp)
8040db98:	8fb3005c 	lw	s3,92(sp)
8040db9c:	8fb20058 	lw	s2,88(sp)
8040dba0:	8fb10054 	lw	s1,84(sp)
8040dba4:	8fb00050 	lw	s0,80(sp)
8040dba8:	00601021 	move	v0,v1
8040dbac:	03e00008 	jr	ra
8040dbb0:	27bd0068 	addiu	sp,sp,104

8040dbb4 <cfe_attach>:
8040dbb4:	27bdffd0 	addiu	sp,sp,-48
8040dbb8:	afb40028 	sw	s4,40(sp)
8040dbbc:	afb30024 	sw	s3,36(sp)
8040dbc0:	afb20020 	sw	s2,32(sp)
8040dbc4:	afb1001c 	sw	s1,28(sp)
8040dbc8:	afb00018 	sw	s0,24(sp)
8040dbcc:	afbf002c 	sw	ra,44(sp)
8040dbd0:	0080a021 	move	s4,a0
8040dbd4:	00a09821 	move	s3,a1
8040dbd8:	00c09021 	move	s2,a2
8040dbdc:	00e08821 	move	s1,a3
8040dbe0:	00008021 	move	s0,zero
8040dbe4:	02002821 	move	a1,s0
8040dbe8:	02802021 	move	a0,s4
8040dbec:	02603021 	move	a2,s3
8040dbf0:	02403821 	move	a3,s2
8040dbf4:	26100001 	addiu	s0,s0,1
8040dbf8:	0c1036aa 	jal	8040daa8 <cfe_attach_idx>
8040dbfc:	afb10010 	sw	s1,16(sp)
8040dc00:	04400005 	bltz	v0,8040dc18 <cfe_attach+0x64>
8040dc04:	2a030040 	slti	v1,s0,64
8040dc08:	1c400004 	bgtz	v0,8040dc1c <cfe_attach+0x68>
8040dc0c:	8fbf002c 	lw	ra,44(sp)
8040dc10:	1460fff5 	bnez	v1,8040dbe8 <cfe_attach+0x34>
8040dc14:	02002821 	move	a1,s0
8040dc18:	8fbf002c 	lw	ra,44(sp)
8040dc1c:	8fb40028 	lw	s4,40(sp)
8040dc20:	8fb30024 	lw	s3,36(sp)
8040dc24:	8fb20020 	lw	s2,32(sp)
8040dc28:	8fb1001c 	lw	s1,28(sp)
8040dc2c:	8fb00018 	lw	s0,24(sp)
8040dc30:	03e00008 	jr	ra
8040dc34:	27bd0030 	addiu	sp,sp,48

8040dc38 <cfe_attach_init>:
8040dc38:	27828078 	addiu	v0,gp,-32648
8040dc3c:	af828078 	sw	v0,-32648(gp)
8040dc40:	03e00008 	jr	ra
8040dc44:	af82807c 	sw	v0,-32644(gp)

8040dc48 <cfe_device_name>:
8040dc48:	8c820000 	lw	v0,0(a0)
8040dc4c:	03e00008 	jr	ra
8040dc50:	8c420008 	lw	v0,8(v0)

8040dc54 <cfe_device_poll>:
8040dc54:	27bdffe0 	addiu	sp,sp,-32
8040dc58:	3c028042 	lui	v0,0x8042
8040dc5c:	afb10014 	sw	s1,20(sp)
8040dc60:	afb00010 	sw	s0,16(sp)
8040dc64:	afbf0018 	sw	ra,24(sp)
8040dc68:	24512bf8 	addiu	s1,v0,11256
8040dc6c:	2410003f 	li	s0,63
8040dc70:	8e240000 	lw	a0,0(s1)
8040dc74:	2610ffff 	addiu	s0,s0,-1
8040dc78:	1080000a 	beqz	a0,8040dca4 <cfe_device_poll+0x50>
8040dc7c:	26310004 	addiu	s1,s1,4
8040dc80:	8c820000 	lw	v0,0(a0)
8040dc84:	8c420014 	lw	v0,20(v0)
8040dc88:	8c420018 	lw	v0,24(v0)
8040dc8c:	10400005 	beqz	v0,8040dca4 <cfe_device_poll+0x50>
8040dc90:	00000000 	nop
8040dc94:	8f87813c 	lw	a3,-32452(gp)
8040dc98:	8f868138 	lw	a2,-32456(gp)
8040dc9c:	0040f809 	jalr	v0
8040dca0:	00000000 	nop
8040dca4:	0601fff2 	bgez	s0,8040dc70 <cfe_device_poll+0x1c>
8040dca8:	8fbf0018 	lw	ra,24(sp)
8040dcac:	8fb10014 	lw	s1,20(sp)
8040dcb0:	8fb00010 	lw	s0,16(sp)
8040dcb4:	03e00008 	jr	ra
8040dcb8:	27bd0020 	addiu	sp,sp,32

8040dcbc <cfe_iocb_dispatch>:
8040dcbc:	27bdffe8 	addiu	sp,sp,-24
8040dcc0:	afb00010 	sw	s0,16(sp)
8040dcc4:	afbf0014 	sw	ra,20(sp)
8040dcc8:	00808021 	move	s0,a0
8040dccc:	8c840000 	lw	a0,0(a0)
8040dcd0:	2c820020 	sltiu	v0,a0,32
8040dcd4:	1040000b 	beqz	v0,8040dd04 <cfe_iocb_dispatch+0x48>
8040dcd8:	2403fffe 	li	v1,-2
8040dcdc:	00041840 	sll	v1,a0,0x1
8040dce0:	00641821 	addu	v1,v1,a0
8040dce4:	3c028042 	lui	v0,0x8042
8040dce8:	00031880 	sll	v1,v1,0x2
8040dcec:	24429a14 	addiu	v0,v0,-26092
8040dcf0:	00622821 	addu	a1,v1,v0
8040dcf4:	8ca30000 	lw	v1,0(a1)
8040dcf8:	04610004 	bgez	v1,8040dd0c <cfe_iocb_dispatch+0x50>
8040dcfc:	00000000 	nop
8040dd00:	2403fffe 	li	v1,-2
8040dd04:	08103756 	j	8040dd58 <cfe_iocb_dispatch+0x9c>
8040dd08:	2402fffe 	li	v0,-2
8040dd0c:	8e020010 	lw	v0,16(s0)
8040dd10:	14620010 	bne	v1,v0,8040dd54 <cfe_iocb_dispatch+0x98>
8040dd14:	2403fff8 	li	v1,-8
8040dd18:	8ca20004 	lw	v0,4(a1)
8040dd1c:	30420001 	andi	v0,v0,0x1
8040dd20:	1040000f 	beqz	v0,8040dd60 <cfe_iocb_dispatch+0xa4>
8040dd24:	00002021 	move	a0,zero
8040dd28:	8e030008 	lw	v1,8(s0)
8040dd2c:	2c620040 	sltiu	v0,v1,64
8040dd30:	10400007 	beqz	v0,8040dd50 <cfe_iocb_dispatch+0x94>
8040dd34:	00031080 	sll	v0,v1,0x2
8040dd38:	3c038042 	lui	v1,0x8042
8040dd3c:	24632bf8 	addiu	v1,v1,11256
8040dd40:	00431021 	addu	v0,v0,v1
8040dd44:	8c420000 	lw	v0,0(v0)
8040dd48:	14400005 	bnez	v0,8040dd60 <cfe_iocb_dispatch+0xa4>
8040dd4c:	00402021 	move	a0,v0
8040dd50:	2403fff8 	li	v1,-8
8040dd54:	2402fff8 	li	v0,-8
8040dd58:	0810375d 	j	8040dd74 <cfe_iocb_dispatch+0xb8>
8040dd5c:	ae020004 	sw	v0,4(s0)
8040dd60:	8ca20008 	lw	v0,8(a1)
8040dd64:	0040f809 	jalr	v0
8040dd68:	02002821 	move	a1,s0
8040dd6c:	ae020004 	sw	v0,4(s0)
8040dd70:	00401821 	move	v1,v0
8040dd74:	8fbf0014 	lw	ra,20(sp)
8040dd78:	8fb00010 	lw	s0,16(sp)
8040dd7c:	00601021 	move	v0,v1
8040dd80:	03e00008 	jr	ra
8040dd84:	27bd0018 	addiu	sp,sp,24

8040dd88 <cfe_cmd_fw_getinfo>:
8040dd88:	8f84800c 	lw	a0,-32756(gp)
8040dd8c:	8f8b812c 	lw	t3,-32468(gp)
8040dd90:	8f898130 	lw	t1,-32464(gp)
8040dd94:	000417c3 	sra	v0,a0,0x1f
8040dd98:	00801821 	move	v1,a0
8040dd9c:	00021500 	sll	v0,v0,0x14
8040dda0:	00042302 	srl	a0,a0,0xc
8040dda4:	00441025 	or	v0,v0,a0
8040dda8:	24a40018 	addiu	a0,a1,24
8040ddac:	00031d00 	sll	v1,v1,0x14
8040ddb0:	ac820008 	sw	v0,8(a0)
8040ddb4:	00001021 	move	v0,zero
8040ddb8:	ac83000c 	sw	v1,12(a0)
8040ddbc:	ac820010 	sw	v0,16(a0)
8040ddc0:	24030002 	li	v1,2
8040ddc4:	00001021 	move	v0,zero
8040ddc8:	ac830014 	sw	v1,20(a0)
8040ddcc:	ac820020 	sw	v0,32(a0)
8040ddd0:	3c032000 	lui	v1,0x2000
8040ddd4:	00001021 	move	v0,zero
8040ddd8:	3c070001 	lui	a3,0x1
8040dddc:	00005021 	move	t2,zero
8040dde0:	00004021 	move	t0,zero
8040dde4:	34e70025 	ori	a3,a3,0x25
8040dde8:	00003021 	move	a2,zero
8040ddec:	ac830024 	sw	v1,36(a0)
8040ddf0:	ac820048 	sw	v0,72(a0)
8040ddf4:	00001821 	move	v1,zero
8040ddf8:	ac820018 	sw	v0,24(a0)
8040ddfc:	ac820038 	sw	v0,56(a0)
8040de00:	ac820040 	sw	v0,64(a0)
8040de04:	00001021 	move	v0,zero
8040de08:	aca7001c 	sw	a3,28(a1)
8040de0c:	aca60018 	sw	a2,24(a1)
8040de10:	ac8b002c 	sw	t3,44(a0)
8040de14:	ac8a0028 	sw	t2,40(a0)
8040de18:	ac890034 	sw	t1,52(a0)
8040de1c:	ac880030 	sw	t0,48(a0)
8040de20:	ac83004c 	sw	v1,76(a0)
8040de24:	ac83001c 	sw	v1,28(a0)
8040de28:	ac83003c 	sw	v1,60(a0)
8040de2c:	03e00008 	jr	ra
8040de30:	ac830044 	sw	v1,68(a0)

8040de34 <cfe_cmd_fw_restart>:
8040de34:	27bdffe8 	addiu	sp,sp,-24
8040de38:	afbf0010 	sw	ra,16(sp)
8040de3c:	8ca2000c 	lw	v0,12(a1)
8040de40:	30420001 	andi	v0,v0,0x1
8040de44:	10400007 	beqz	v0,8040de64 <cfe_cmd_fw_restart+0x30>
8040de48:	00000000 	nop
8040de4c:	8ca20018 	lw	v0,24(a1)
8040de50:	00402821 	move	a1,v0
8040de54:	0c100465 	jal	80401194 <cfe_warmstart>
8040de58:	000227c3 	sra	a0,v0,0x1f
8040de5c:	0810379c 	j	8040de70 <cfe_cmd_fw_restart+0x3c>
8040de60:	8fbf0010 	lw	ra,16(sp)
8040de64:	0c101f92 	jal	80407e48 <cfe_restart>
8040de68:	00000000 	nop
8040de6c:	8fbf0010 	lw	ra,16(sp)
8040de70:	00001021 	move	v0,zero
8040de74:	03e00008 	jr	ra
8040de78:	27bd0018 	addiu	sp,sp,24

8040de7c <cfe_cmd_fw_boot>:
8040de7c:	03e00008 	jr	ra
8040de80:	2402fffe 	li	v0,-2

8040de84 <cfe_cmd_fw_cpuctl>:
8040de84:	03e00008 	jr	ra
8040de88:	2402fffe 	li	v0,-2

8040de8c <cfe_cmd_fw_gettime>:
8040de8c:	27bdffe8 	addiu	sp,sp,-24
8040de90:	afbf0014 	sw	ra,20(sp)
8040de94:	afb00010 	sw	s0,16(sp)
8040de98:	0c103c5c 	jal	8040f170 <background>
8040de9c:	00a08021 	move	s0,a1
8040dea0:	8f85813c 	lw	a1,-32452(gp)
8040dea4:	8f848138 	lw	a0,-32456(gp)
8040dea8:	8fbf0014 	lw	ra,20(sp)
8040deac:	ae05001c 	sw	a1,28(s0)
8040deb0:	ae040018 	sw	a0,24(s0)
8040deb4:	8fb00010 	lw	s0,16(sp)
8040deb8:	00001021 	move	v0,zero
8040debc:	03e00008 	jr	ra
8040dec0:	27bd0018 	addiu	sp,sp,24

8040dec4 <cfe_cmd_fw_memenum>:
8040dec4:	27bdffc8 	addiu	sp,sp,-56
8040dec8:	afb00030 	sw	s0,48(sp)
8040decc:	afbf0034 	sw	ra,52(sp)
8040ded0:	8ca2000c 	lw	v0,12(a1)
8040ded4:	8ca40018 	lw	a0,24(a1)
8040ded8:	00a08021 	move	s0,a1
8040dedc:	30420001 	andi	v0,v0,0x1
8040dee0:	27a50018 	addiu	a1,sp,24
8040dee4:	27a60020 	addiu	a2,sp,32
8040dee8:	27a70028 	addiu	a3,sp,40
8040deec:	0c103b27 	jal	8040ec9c <cfe_arena_enum>
8040def0:	afa20010 	sw	v0,16(sp)
8040def4:	8fa60018 	lw	a2,24(sp)
8040def8:	00002021 	move	a0,zero
8040defc:	8fa50024 	lw	a1,36(sp)
8040df00:	38c30001 	xori	v1,a2,0x1
8040df04:	00c3200a 	movz	a0,a2,v1
8040df08:	00801821 	move	v1,a0
8040df0c:	8fa40020 	lw	a0,32(sp)
8040df10:	ae050024 	sw	a1,36(s0)
8040df14:	ae040020 	sw	a0,32(s0)
8040df18:	8fa5002c 	lw	a1,44(sp)
8040df1c:	8fa40028 	lw	a0,40(sp)
8040df20:	ae06001c 	sw	a2,28(s0)
8040df24:	ae05002c 	sw	a1,44(s0)
8040df28:	14400002 	bnez	v0,8040df34 <cfe_cmd_fw_memenum+0x70>
8040df2c:	ae040028 	sw	a0,40(s0)
8040df30:	ae03001c 	sw	v1,28(s0)
8040df34:	8fbf0034 	lw	ra,52(sp)
8040df38:	8fb00030 	lw	s0,48(sp)
8040df3c:	03e00008 	jr	ra
8040df40:	27bd0038 	addiu	sp,sp,56

8040df44 <cfe_cmd_fw_flushcache>:
8040df44:	27bdffe8 	addiu	sp,sp,-24
8040df48:	afbf0010 	sw	ra,16(sp)
8040df4c:	0c100475 	jal	804011d4 <_cfe_flushcache>
8040df50:	8ca4000c 	lw	a0,12(a1)
8040df54:	8fbf0010 	lw	ra,16(sp)
8040df58:	00001021 	move	v0,zero
8040df5c:	03e00008 	jr	ra
8040df60:	27bd0018 	addiu	sp,sp,24

8040df64 <cfe_cmd_dev_enum>:
8040df64:	03e00008 	jr	ra
8040df68:	2402fffe 	li	v0,-2

8040df6c <cfe_cmd_dev_gethandle>:
8040df6c:	8ca2000c 	lw	v0,12(a1)
8040df70:	14400007 	bnez	v0,8040df90 <cfe_cmd_dev_gethandle+0x24>
8040df74:	2404fff8 	li	a0,-8
8040df78:	8f838080 	lw	v1,-32640(gp)
8040df7c:	2402ffff 	li	v0,-1
8040df80:	10620003 	beq	v1,v0,8040df90 <cfe_cmd_dev_gethandle+0x24>
8040df84:	2404fffa 	li	a0,-6
8040df88:	aca30008 	sw	v1,8(a1)
8040df8c:	00002021 	move	a0,zero
8040df90:	03e00008 	jr	ra
8040df94:	00801021 	move	v0,a0

8040df98 <cfe_cmd_dev_open>:
8040df98:	27bdff90 	addiu	sp,sp,-112
8040df9c:	afbf006c 	sw	ra,108(sp)
8040dfa0:	afb60068 	sw	s6,104(sp)
8040dfa4:	afb10054 	sw	s1,84(sp)
8040dfa8:	afb50064 	sw	s5,100(sp)
8040dfac:	afb40060 	sw	s4,96(sp)
8040dfb0:	afb3005c 	sw	s3,92(sp)
8040dfb4:	afb20058 	sw	s2,88(sp)
8040dfb8:	afb00050 	sw	s0,80(sp)
8040dfbc:	00a0b021 	move	s6,a1
8040dfc0:	8ca50020 	lw	a1,32(a1)
8040dfc4:	27a40010 	addiu	a0,sp,16
8040dfc8:	0c1033ae 	jal	8040ceb8 <lib_xstrncpy>
8040dfcc:	24060040 	li	a2,64
8040dfd0:	0c10367f 	jal	8040d9fc <cfe_finddev>
8040dfd4:	27a40010 	addiu	a0,sp,16
8040dfd8:	00408821 	move	s1,v0
8040dfdc:	10400035 	beqz	v0,8040e0b4 <cfe_cmd_dev_open+0x11c>
8040dfe0:	2403fffa 	li	v1,-6
8040dfe4:	8c420018 	lw	v0,24(v0)
8040dfe8:	1c400032 	bgtz	v0,8040e0b4 <cfe_cmd_dev_open+0x11c>
8040dfec:	2403fff9 	li	v1,-7
8040dff0:	3c158042 	lui	s5,0x8042
8040dff4:	00001821 	move	v1,zero
8040dff8:	26a42bf8 	addiu	a0,s5,11256
8040dffc:	8c820000 	lw	v0,0(a0)
8040e000:	10400005 	beqz	v0,8040e018 <cfe_cmd_dev_open+0x80>
8040e004:	24840004 	addiu	a0,a0,4
8040e008:	24630001 	addiu	v1,v1,1
8040e00c:	28620040 	slti	v0,v1,64
8040e010:	1440fffa 	bnez	v0,8040dffc <cfe_cmd_dev_open+0x64>
8040e014:	00000000 	nop
8040e018:	24020040 	li	v0,64
8040e01c:	10620003 	beq	v1,v0,8040e02c <cfe_cmd_dev_open+0x94>
8040e020:	00000000 	nop
8040e024:	04610003 	bgez	v1,8040e034 <cfe_cmd_dev_open+0x9c>
8040e028:	00609821 	move	s3,v1
8040e02c:	0810382d 	j	8040e0b4 <cfe_cmd_dev_open+0x11c>
8040e030:	2403fffb 	li	v1,-5
8040e034:	3c148042 	lui	s4,0x8042
8040e038:	26842bec 	addiu	a0,s4,11244
8040e03c:	2405000c 	li	a1,12
8040e040:	0c103064 	jal	8040c190 <kmalloc>
8040e044:	00003021 	move	a2,zero
8040e048:	00408021 	move	s0,v0
8040e04c:	10400019 	beqz	v0,8040e0b4 <cfe_cmd_dev_open+0x11c>
8040e050:	2403fffb 	li	v1,-5
8040e054:	8e220014 	lw	v0,20(s1)
8040e058:	8e23000c 	lw	v1,12(s1)
8040e05c:	ae110000 	sw	s1,0(s0)
8040e060:	8c420000 	lw	v0,0(v0)
8040e064:	ae030004 	sw	v1,4(s0)
8040e068:	ae000008 	sw	zero,8(s0)
8040e06c:	0040f809 	jalr	v0
8040e070:	02002021 	move	a0,s0
8040e074:	10400006 	beqz	v0,8040e090 <cfe_cmd_dev_open+0xf8>
8040e078:	00409021 	move	s2,v0
8040e07c:	26842bec 	addiu	a0,s4,11244
8040e080:	0c103031 	jal	8040c0c4 <kfree>
8040e084:	02002821 	move	a1,s0
8040e088:	0810382d 	j	8040e0b4 <cfe_cmd_dev_open+0x11c>
8040e08c:	02401821 	move	v1,s2
8040e090:	8e220018 	lw	v0,24(s1)
8040e094:	26a42bf8 	addiu	a0,s5,11256
8040e098:	00131880 	sll	v1,s3,0x2
8040e09c:	00641821 	addu	v1,v1,a0
8040e0a0:	24420001 	addiu	v0,v0,1
8040e0a4:	ae220018 	sw	v0,24(s1)
8040e0a8:	ac700000 	sw	s0,0(v1)
8040e0ac:	aed30008 	sw	s3,8(s6)
8040e0b0:	00001821 	move	v1,zero
8040e0b4:	8fbf006c 	lw	ra,108(sp)
8040e0b8:	8fb60068 	lw	s6,104(sp)
8040e0bc:	8fb50064 	lw	s5,100(sp)
8040e0c0:	8fb40060 	lw	s4,96(sp)
8040e0c4:	8fb3005c 	lw	s3,92(sp)
8040e0c8:	8fb20058 	lw	s2,88(sp)
8040e0cc:	8fb10054 	lw	s1,84(sp)
8040e0d0:	8fb00050 	lw	s0,80(sp)
8040e0d4:	00601021 	move	v0,v1
8040e0d8:	03e00008 	jr	ra
8040e0dc:	27bd0070 	addiu	sp,sp,112

8040e0e0 <cfe_cmd_dev_inpstat>:
8040e0e0:	8c820000 	lw	v0,0(a0)
8040e0e4:	8c420014 	lw	v0,20(v0)
8040e0e8:	8c590008 	lw	t9,8(v0)
8040e0ec:	03200008 	jr	t9
8040e0f0:	24a50018 	addiu	a1,a1,24

8040e0f4 <cfe_cmd_dev_read>:
8040e0f4:	8c820000 	lw	v0,0(a0)
8040e0f8:	8c420014 	lw	v0,20(v0)
8040e0fc:	8c590004 	lw	t9,4(v0)
8040e100:	03200008 	jr	t9
8040e104:	24a50018 	addiu	a1,a1,24

8040e108 <cfe_cmd_dev_write>:
8040e108:	8c820000 	lw	v0,0(a0)
8040e10c:	8c420014 	lw	v0,20(v0)
8040e110:	8c59000c 	lw	t9,12(v0)
8040e114:	03200008 	jr	t9
8040e118:	24a50018 	addiu	a1,a1,24

8040e11c <cfe_cmd_dev_ioctl>:
8040e11c:	8c820000 	lw	v0,0(a0)
8040e120:	8c420014 	lw	v0,20(v0)
8040e124:	8c590010 	lw	t9,16(v0)
8040e128:	03200008 	jr	t9
8040e12c:	24a50018 	addiu	a1,a1,24

8040e130 <cfe_cmd_dev_close>:
8040e130:	27bdffe0 	addiu	sp,sp,-32
8040e134:	afbf0018 	sw	ra,24(sp)
8040e138:	afb10014 	sw	s1,20(sp)
8040e13c:	afb00010 	sw	s0,16(sp)
8040e140:	8c820000 	lw	v0,0(a0)
8040e144:	00808021 	move	s0,a0
8040e148:	8c420014 	lw	v0,20(v0)
8040e14c:	8c420014 	lw	v0,20(v0)
8040e150:	0040f809 	jalr	v0
8040e154:	00a08821 	move	s1,a1
8040e158:	8e030000 	lw	v1,0(s0)
8040e15c:	3c048042 	lui	a0,0x8042
8040e160:	02002821 	move	a1,s0
8040e164:	8c620018 	lw	v0,24(v1)
8040e168:	24842bec 	addiu	a0,a0,11244
8040e16c:	2442ffff 	addiu	v0,v0,-1
8040e170:	ac620018 	sw	v0,24(v1)
8040e174:	8e230008 	lw	v1,8(s1)
8040e178:	3c028042 	lui	v0,0x8042
8040e17c:	24422bf8 	addiu	v0,v0,11256
8040e180:	00031880 	sll	v1,v1,0x2
8040e184:	00621821 	addu	v1,v1,v0
8040e188:	0c103031 	jal	8040c0c4 <kfree>
8040e18c:	ac600000 	sw	zero,0(v1)
8040e190:	8fbf0018 	lw	ra,24(sp)
8040e194:	8fb10014 	lw	s1,20(sp)
8040e198:	8fb00010 	lw	s0,16(sp)
8040e19c:	00001021 	move	v0,zero
8040e1a0:	03e00008 	jr	ra
8040e1a4:	27bd0020 	addiu	sp,sp,32

8040e1a8 <cfe_cmd_dev_getinfo>:
8040e1a8:	27bdffa8 	addiu	sp,sp,-88
8040e1ac:	afbf0054 	sw	ra,84(sp)
8040e1b0:	afb00050 	sw	s0,80(sp)
8040e1b4:	00a08021 	move	s0,a1
8040e1b8:	8ca50020 	lw	a1,32(a1)
8040e1bc:	24060040 	li	a2,64
8040e1c0:	0c1033ae 	jal	8040ceb8 <lib_xstrncpy>
8040e1c4:	27a40010 	addiu	a0,sp,16
8040e1c8:	27a40010 	addiu	a0,sp,16
8040e1cc:	0c103424 	jal	8040d090 <lib_strchr>
8040e1d0:	2405003a 	li	a1,58
8040e1d4:	10400002 	beqz	v0,8040e1e0 <cfe_cmd_dev_getinfo+0x38>
8040e1d8:	27a40010 	addiu	a0,sp,16
8040e1dc:	a0400000 	sb	zero,0(v0)
8040e1e0:	0c10367f 	jal	8040d9fc <cfe_finddev>
8040e1e4:	00000000 	nop
8040e1e8:	10400004 	beqz	v0,8040e1fc <cfe_cmd_dev_getinfo+0x54>
8040e1ec:	2403fffa 	li	v1,-6
8040e1f0:	8c420010 	lw	v0,16(v0)
8040e1f4:	00001821 	move	v1,zero
8040e1f8:	ae02002c 	sw	v0,44(s0)
8040e1fc:	8fbf0054 	lw	ra,84(sp)
8040e200:	8fb00050 	lw	s0,80(sp)
8040e204:	00601021 	move	v0,v1
8040e208:	03e00008 	jr	ra
8040e20c:	27bd0058 	addiu	sp,sp,88

8040e210 <cfe_cmd_env_enum>:
8040e210:	27bdffd8 	addiu	sp,sp,-40
8040e214:	afbf0020 	sw	ra,32(sp)
8040e218:	8ca2001c 	lw	v0,28(a1)
8040e21c:	8ca30020 	lw	v1,32(a1)
8040e220:	8ca70024 	lw	a3,36(a1)
8040e224:	8ca40018 	lw	a0,24(a1)
8040e228:	8ca80028 	lw	t0,40(a1)
8040e22c:	27a6001c 	addiu	a2,sp,28
8040e230:	00402821 	move	a1,v0
8040e234:	27a20018 	addiu	v0,sp,24
8040e238:	afa3001c 	sw	v1,28(sp)
8040e23c:	afa80018 	sw	t0,24(sp)
8040e240:	0c102127 	jal	8040849c <env_enum>
8040e244:	afa20010 	sw	v0,16(sp)
8040e248:	8fbf0020 	lw	ra,32(sp)
8040e24c:	28430000 	slti	v1,v0,0
8040e250:	2402fff7 	li	v0,-9
8040e254:	0003100a 	movz	v0,zero,v1
8040e258:	03e00008 	jr	ra
8040e25c:	27bd0028 	addiu	sp,sp,40

8040e260 <cfe_cmd_env_get>:
8040e260:	27bdffe8 	addiu	sp,sp,-24
8040e264:	afb00010 	sw	s0,16(sp)
8040e268:	afbf0014 	sw	ra,20(sp)
8040e26c:	8ca4001c 	lw	a0,28(a1)
8040e270:	0c102174 	jal	804085d0 <env_getenv>
8040e274:	00a08021 	move	s0,a1
8040e278:	00402821 	move	a1,v0
8040e27c:	10400005 	beqz	v0,8040e294 <cfe_cmd_env_get+0x34>
8040e280:	2403fff7 	li	v1,-9
8040e284:	8e060028 	lw	a2,40(s0)
8040e288:	0c1033ae 	jal	8040ceb8 <lib_xstrncpy>
8040e28c:	8e040024 	lw	a0,36(s0)
8040e290:	00001821 	move	v1,zero
8040e294:	8fbf0014 	lw	ra,20(sp)
8040e298:	8fb00010 	lw	s0,16(sp)
8040e29c:	00601021 	move	v0,v1
8040e2a0:	03e00008 	jr	ra
8040e2a4:	27bd0018 	addiu	sp,sp,24

8040e2a8 <cfe_cmd_env_set>:
8040e2a8:	27bdffe8 	addiu	sp,sp,-24
8040e2ac:	afb00010 	sw	s0,16(sp)
8040e2b0:	afbf0014 	sw	ra,20(sp)
8040e2b4:	8ca6000c 	lw	a2,12(a1)
8040e2b8:	00a08021 	move	s0,a1
8040e2bc:	8ca4001c 	lw	a0,28(a1)
8040e2c0:	8ca50024 	lw	a1,36(a1)
8040e2c4:	30c60001 	andi	a2,a2,0x1
8040e2c8:	0c10217f 	jal	804085fc <env_setenv>
8040e2cc:	38c60001 	xori	a2,a2,0x1
8040e2d0:	14400007 	bnez	v0,8040e2f0 <cfe_cmd_env_set+0x48>
8040e2d4:	00000000 	nop
8040e2d8:	8e02000c 	lw	v0,12(s0)
8040e2dc:	30420001 	andi	v0,v0,0x1
8040e2e0:	10400006 	beqz	v0,8040e2fc <cfe_cmd_env_set+0x54>
8040e2e4:	00001821 	move	v1,zero
8040e2e8:	0c1021c3 	jal	8040870c <env_save>
8040e2ec:	00000000 	nop
8040e2f0:	04400002 	bltz	v0,8040e2fc <cfe_cmd_env_set+0x54>
8040e2f4:	00401821 	move	v1,v0
8040e2f8:	00001821 	move	v1,zero
8040e2fc:	8fbf0014 	lw	ra,20(sp)
8040e300:	8fb00010 	lw	s0,16(sp)
8040e304:	00601021 	move	v0,v1
8040e308:	03e00008 	jr	ra
8040e30c:	27bd0018 	addiu	sp,sp,24

8040e310 <cfe_cmd_env_del>:
8040e310:	0810215a 	j	80408568 <env_delenv>
8040e314:	8ca4001c 	lw	a0,28(a1)

8040e318 <cfe_strlen>:
8040e318:	80820000 	lb	v0,0(a0)
8040e31c:	00001821 	move	v1,zero
8040e320:	10400004 	beqz	v0,8040e334 <cfe_strlen+0x1c>
8040e324:	24840001 	addiu	a0,a0,1
8040e328:	80820000 	lb	v0,0(a0)
8040e32c:	081038c8 	j	8040e320 <cfe_strlen+0x8>
8040e330:	24630001 	addiu	v1,v1,1
8040e334:	03e00008 	jr	ra
8040e338:	00601021 	move	v0,v1

8040e33c <cfe_open>:
8040e33c:	27bdff80 	addiu	sp,sp,-128
8040e340:	2402000b 	li	v0,11
8040e344:	afa20010 	sw	v0,16(sp)
8040e348:	24020018 	li	v0,24
8040e34c:	00001821 	move	v1,zero
8040e350:	afa20020 	sw	v0,32(sp)
8040e354:	00001021 	move	v0,zero
8040e358:	afbf0078 	sw	ra,120(sp)
8040e35c:	afa3002c 	sw	v1,44(sp)
8040e360:	afa40030 	sw	a0,48(sp)
8040e364:	afa00014 	sw	zero,20(sp)
8040e368:	afa00018 	sw	zero,24(sp)
8040e36c:	afa0001c 	sw	zero,28(sp)
8040e370:	0c1038c6 	jal	8040e318 <cfe_strlen>
8040e374:	afa20028 	sw	v0,40(sp)
8040e378:	27a40010 	addiu	a0,sp,16
8040e37c:	0c10372f 	jal	8040dcbc <cfe_iocb_dispatch>
8040e380:	afa20034 	sw	v0,52(sp)
8040e384:	8fa30014 	lw	v1,20(sp)
8040e388:	8fa20018 	lw	v0,24(sp)
8040e38c:	8fbf0078 	lw	ra,120(sp)
8040e390:	28640000 	slti	a0,v1,0
8040e394:	0064100b 	movn	v0,v1,a0
8040e398:	03e00008 	jr	ra
8040e39c:	27bd0080 	addiu	sp,sp,128

8040e3a0 <cfe_close>:
8040e3a0:	27bdff80 	addiu	sp,sp,-128
8040e3a4:	afa40018 	sw	a0,24(sp)
8040e3a8:	24020010 	li	v0,16
8040e3ac:	27a40010 	addiu	a0,sp,16
8040e3b0:	afbf0078 	sw	ra,120(sp)
8040e3b4:	afa20010 	sw	v0,16(sp)
8040e3b8:	afa00014 	sw	zero,20(sp)
8040e3bc:	afa0001c 	sw	zero,28(sp)
8040e3c0:	0c10372f 	jal	8040dcbc <cfe_iocb_dispatch>
8040e3c4:	afa00020 	sw	zero,32(sp)
8040e3c8:	8fa20014 	lw	v0,20(sp)
8040e3cc:	8fbf0078 	lw	ra,120(sp)
8040e3d0:	03e00008 	jr	ra
8040e3d4:	27bd0080 	addiu	sp,sp,128

8040e3d8 <cfe_readblk>:
8040e3d8:	27bdff80 	addiu	sp,sp,-128
8040e3dc:	2402000d 	li	v0,13
8040e3e0:	afa20010 	sw	v0,16(sp)
8040e3e4:	24020018 	li	v0,24
8040e3e8:	afa20020 	sw	v0,32(sp)
8040e3ec:	8fa20090 	lw	v0,144(sp)
8040e3f0:	afa40018 	sw	a0,24(sp)
8040e3f4:	27a40010 	addiu	a0,sp,16
8040e3f8:	afa20030 	sw	v0,48(sp)
8040e3fc:	8fa20094 	lw	v0,148(sp)
8040e400:	afbf0078 	sw	ra,120(sp)
8040e404:	afa7002c 	sw	a3,44(sp)
8040e408:	afa60028 	sw	a2,40(sp)
8040e40c:	afa20034 	sw	v0,52(sp)
8040e410:	afa00014 	sw	zero,20(sp)
8040e414:	0c10372f 	jal	8040dcbc <cfe_iocb_dispatch>
8040e418:	afa0001c 	sw	zero,28(sp)
8040e41c:	8fa30014 	lw	v1,20(sp)
8040e420:	8fa20038 	lw	v0,56(sp)
8040e424:	8fbf0078 	lw	ra,120(sp)
8040e428:	28640000 	slti	a0,v1,0
8040e42c:	0064100b 	movn	v0,v1,a0
8040e430:	03e00008 	jr	ra
8040e434:	27bd0080 	addiu	sp,sp,128

8040e438 <cfe_read>:
8040e438:	27bdffe0 	addiu	sp,sp,-32
8040e43c:	afa60014 	sw	a2,20(sp)
8040e440:	00003821 	move	a3,zero
8040e444:	00003021 	move	a2,zero
8040e448:	afbf0018 	sw	ra,24(sp)
8040e44c:	0c1038f6 	jal	8040e3d8 <cfe_readblk>
8040e450:	afa50010 	sw	a1,16(sp)
8040e454:	8fbf0018 	lw	ra,24(sp)
8040e458:	03e00008 	jr	ra
8040e45c:	27bd0020 	addiu	sp,sp,32

8040e460 <cfe_writeblk>:
8040e460:	27bdff80 	addiu	sp,sp,-128
8040e464:	2402000e 	li	v0,14
8040e468:	afa20010 	sw	v0,16(sp)
8040e46c:	24020018 	li	v0,24
8040e470:	afa20020 	sw	v0,32(sp)
8040e474:	8fa20090 	lw	v0,144(sp)
8040e478:	afa40018 	sw	a0,24(sp)
8040e47c:	27a40010 	addiu	a0,sp,16
8040e480:	afa20030 	sw	v0,48(sp)
8040e484:	8fa20094 	lw	v0,148(sp)
8040e488:	afbf0078 	sw	ra,120(sp)
8040e48c:	afa7002c 	sw	a3,44(sp)
8040e490:	afa60028 	sw	a2,40(sp)
8040e494:	afa20034 	sw	v0,52(sp)
8040e498:	afa00014 	sw	zero,20(sp)
8040e49c:	0c10372f 	jal	8040dcbc <cfe_iocb_dispatch>
8040e4a0:	afa0001c 	sw	zero,28(sp)
8040e4a4:	8fa30014 	lw	v1,20(sp)
8040e4a8:	8fa20038 	lw	v0,56(sp)
8040e4ac:	8fbf0078 	lw	ra,120(sp)
8040e4b0:	28640000 	slti	a0,v1,0
8040e4b4:	0064100b 	movn	v0,v1,a0
8040e4b8:	03e00008 	jr	ra
8040e4bc:	27bd0080 	addiu	sp,sp,128

8040e4c0 <cfe_write>:
8040e4c0:	27bdffe0 	addiu	sp,sp,-32
8040e4c4:	afa60014 	sw	a2,20(sp)
8040e4c8:	00003821 	move	a3,zero
8040e4cc:	00003021 	move	a2,zero
8040e4d0:	afbf0018 	sw	ra,24(sp)
8040e4d4:	0c103918 	jal	8040e460 <cfe_writeblk>
8040e4d8:	afa50010 	sw	a1,16(sp)
8040e4dc:	8fbf0018 	lw	ra,24(sp)
8040e4e0:	03e00008 	jr	ra
8040e4e4:	27bd0020 	addiu	sp,sp,32

8040e4e8 <cfe_ioctl>:
8040e4e8:	27bdff80 	addiu	sp,sp,-128
8040e4ec:	2402000f 	li	v0,15
8040e4f0:	afa20010 	sw	v0,16(sp)
8040e4f4:	24020018 	li	v0,24
8040e4f8:	afb00078 	sw	s0,120(sp)
8040e4fc:	afa20020 	sw	v0,32(sp)
8040e500:	8fb00090 	lw	s0,144(sp)
8040e504:	8fa3009c 	lw	v1,156(sp)
8040e508:	8fa20098 	lw	v0,152(sp)
8040e50c:	afa40018 	sw	a0,24(sp)
8040e510:	27a40010 	addiu	a0,sp,16
8040e514:	afbf007c 	sw	ra,124(sp)
8040e518:	afa3002c 	sw	v1,44(sp)
8040e51c:	afa20028 	sw	v0,40(sp)
8040e520:	afa5003c 	sw	a1,60(sp)
8040e524:	afa60030 	sw	a2,48(sp)
8040e528:	afa70034 	sw	a3,52(sp)
8040e52c:	afa00014 	sw	zero,20(sp)
8040e530:	0c10372f 	jal	8040dcbc <cfe_iocb_dispatch>
8040e534:	afa0001c 	sw	zero,28(sp)
8040e538:	12000002 	beqz	s0,8040e544 <cfe_ioctl+0x5c>
8040e53c:	8fa20038 	lw	v0,56(sp)
8040e540:	ae020000 	sw	v0,0(s0)
8040e544:	8fa20014 	lw	v0,20(sp)
8040e548:	8fbf007c 	lw	ra,124(sp)
8040e54c:	8fb00078 	lw	s0,120(sp)
8040e550:	03e00008 	jr	ra
8040e554:	27bd0080 	addiu	sp,sp,128

8040e558 <cfe_inpstat>:
8040e558:	27bdff80 	addiu	sp,sp,-128
8040e55c:	2402000c 	li	v0,12
8040e560:	afa40018 	sw	a0,24(sp)
8040e564:	afa20010 	sw	v0,16(sp)
8040e568:	27a40010 	addiu	a0,sp,16
8040e56c:	24020004 	li	v0,4
8040e570:	afbf0078 	sw	ra,120(sp)
8040e574:	afa20020 	sw	v0,32(sp)
8040e578:	afa00014 	sw	zero,20(sp)
8040e57c:	afa0001c 	sw	zero,28(sp)
8040e580:	0c10372f 	jal	8040dcbc <cfe_iocb_dispatch>
8040e584:	afa00028 	sw	zero,40(sp)
8040e588:	8fa30014 	lw	v1,20(sp)
8040e58c:	8fa20028 	lw	v0,40(sp)
8040e590:	8fbf0078 	lw	ra,120(sp)
8040e594:	28640000 	slti	a0,v1,0
8040e598:	0064100b 	movn	v0,v1,a0
8040e59c:	03e00008 	jr	ra
8040e5a0:	27bd0080 	addiu	sp,sp,128

8040e5a4 <cfe_getticks>:
8040e5a4:	27bdff80 	addiu	sp,sp,-128
8040e5a8:	24020004 	li	v0,4
8040e5ac:	afa20010 	sw	v0,16(sp)
8040e5b0:	24020008 	li	v0,8
8040e5b4:	afa20020 	sw	v0,32(sp)
8040e5b8:	00001821 	move	v1,zero
8040e5bc:	27a40010 	addiu	a0,sp,16
8040e5c0:	00001021 	move	v0,zero
8040e5c4:	afbf0078 	sw	ra,120(sp)
8040e5c8:	afa3002c 	sw	v1,44(sp)
8040e5cc:	afa00014 	sw	zero,20(sp)
8040e5d0:	afa00018 	sw	zero,24(sp)
8040e5d4:	afa0001c 	sw	zero,28(sp)
8040e5d8:	0c10372f 	jal	8040dcbc <cfe_iocb_dispatch>
8040e5dc:	afa20028 	sw	v0,40(sp)
8040e5e0:	8fa3002c 	lw	v1,44(sp)
8040e5e4:	8fa20028 	lw	v0,40(sp)
8040e5e8:	8fbf0078 	lw	ra,120(sp)
8040e5ec:	03e00008 	jr	ra
8040e5f0:	27bd0080 	addiu	sp,sp,128

8040e5f4 <cfe_getenv>:
8040e5f4:	27bdff78 	addiu	sp,sp,-136
8040e5f8:	24020016 	li	v0,22
8040e5fc:	afa20010 	sw	v0,16(sp)
8040e600:	a0a00000 	sb	zero,0(a1)
8040e604:	24020014 	li	v0,20
8040e608:	afbf0080 	sw	ra,128(sp)
8040e60c:	afb1007c 	sw	s1,124(sp)
8040e610:	afb00078 	sw	s0,120(sp)
8040e614:	00c08821 	move	s1,a2
8040e618:	00a08021 	move	s0,a1
8040e61c:	afa4002c 	sw	a0,44(sp)
8040e620:	afa20020 	sw	v0,32(sp)
8040e624:	afa00014 	sw	zero,20(sp)
8040e628:	afa00018 	sw	zero,24(sp)
8040e62c:	afa0001c 	sw	zero,28(sp)
8040e630:	0c1033bf 	jal	8040cefc <lib_strlen>
8040e634:	afa00028 	sw	zero,40(sp)
8040e638:	24420001 	addiu	v0,v0,1
8040e63c:	27a40010 	addiu	a0,sp,16
8040e640:	afb00034 	sw	s0,52(sp)
8040e644:	afb10038 	sw	s1,56(sp)
8040e648:	0c10372f 	jal	8040dcbc <cfe_iocb_dispatch>
8040e64c:	afa20030 	sw	v0,48(sp)
8040e650:	8fa20014 	lw	v0,20(sp)
8040e654:	8fbf0080 	lw	ra,128(sp)
8040e658:	8fb1007c 	lw	s1,124(sp)
8040e65c:	8fb00078 	lw	s0,120(sp)
8040e660:	03e00008 	jr	ra
8040e664:	27bd0088 	addiu	sp,sp,136

8040e668 <cfe_exit>:
8040e668:	27bdff80 	addiu	sp,sp,-128
8040e66c:	0004102b 	sltu	v0,zero,a0
8040e670:	afa2001c 	sw	v0,28(sp)
8040e674:	27a40010 	addiu	a0,sp,16
8040e678:	24030001 	li	v1,1
8040e67c:	24020004 	li	v0,4
8040e680:	afbf0078 	sw	ra,120(sp)
8040e684:	afa30010 	sw	v1,16(sp)
8040e688:	afa20020 	sw	v0,32(sp)
8040e68c:	afa50028 	sw	a1,40(sp)
8040e690:	afa00014 	sw	zero,20(sp)
8040e694:	0c10372f 	jal	8040dcbc <cfe_iocb_dispatch>
8040e698:	afa00018 	sw	zero,24(sp)
8040e69c:	8fa20014 	lw	v0,20(sp)
8040e6a0:	8fbf0078 	lw	ra,120(sp)
8040e6a4:	03e00008 	jr	ra
8040e6a8:	27bd0080 	addiu	sp,sp,128

8040e6ac <cfe_flushcache>:
8040e6ac:	27bdff80 	addiu	sp,sp,-128
8040e6b0:	afa4001c 	sw	a0,28(sp)
8040e6b4:	24020006 	li	v0,6
8040e6b8:	27a40010 	addiu	a0,sp,16
8040e6bc:	afbf0078 	sw	ra,120(sp)
8040e6c0:	afa20010 	sw	v0,16(sp)
8040e6c4:	afa00014 	sw	zero,20(sp)
8040e6c8:	afa00018 	sw	zero,24(sp)
8040e6cc:	0c10372f 	jal	8040dcbc <cfe_iocb_dispatch>
8040e6d0:	afa00020 	sw	zero,32(sp)
8040e6d4:	8fa20014 	lw	v0,20(sp)
8040e6d8:	8fbf0078 	lw	ra,120(sp)
8040e6dc:	03e00008 	jr	ra
8040e6e0:	27bd0080 	addiu	sp,sp,128

8040e6e4 <cfe_getdevinfo>:
8040e6e4:	27bdff80 	addiu	sp,sp,-128
8040e6e8:	24020011 	li	v0,17
8040e6ec:	afa20010 	sw	v0,16(sp)
8040e6f0:	24020018 	li	v0,24
8040e6f4:	00001821 	move	v1,zero
8040e6f8:	afa20020 	sw	v0,32(sp)
8040e6fc:	00001021 	move	v0,zero
8040e700:	afbf0078 	sw	ra,120(sp)
8040e704:	afa3002c 	sw	v1,44(sp)
8040e708:	afa40030 	sw	a0,48(sp)
8040e70c:	afa00014 	sw	zero,20(sp)
8040e710:	afa00018 	sw	zero,24(sp)
8040e714:	afa0001c 	sw	zero,28(sp)
8040e718:	0c1038c6 	jal	8040e318 <cfe_strlen>
8040e71c:	afa20028 	sw	v0,40(sp)
8040e720:	27a40010 	addiu	a0,sp,16
8040e724:	0c10372f 	jal	8040dcbc <cfe_iocb_dispatch>
8040e728:	afa20034 	sw	v0,52(sp)
8040e72c:	8fa30014 	lw	v1,20(sp)
8040e730:	8fa2003c 	lw	v0,60(sp)
8040e734:	8fbf0078 	lw	ra,120(sp)
8040e738:	28640000 	slti	a0,v1,0
8040e73c:	0064100b 	movn	v0,v1,a0
8040e740:	03e00008 	jr	ra
8040e744:	27bd0080 	addiu	sp,sp,128

8040e748 <console_log>:
8040e748:	27bdfee8 	addiu	sp,sp,-280
8040e74c:	afa5011c 	sw	a1,284(sp)
8040e750:	afa60120 	sw	a2,288(sp)
8040e754:	00802821 	move	a1,a0
8040e758:	27a6011c 	addiu	a2,sp,284
8040e75c:	27a40010 	addiu	a0,sp,16
8040e760:	afbf0110 	sw	ra,272(sp)
8040e764:	0c103144 	jal	8040c510 <xvsprintf>
8040e768:	afa70124 	sw	a3,292(sp)
8040e76c:	3c048042 	lui	a0,0x8042
8040e770:	2484c044 	addiu	a0,a0,-16316
8040e774:	0c10331a 	jal	8040cc68 <xprintf>
8040e778:	27a50010 	addiu	a1,sp,16
8040e77c:	8f828104 	lw	v0,-32508(gp)
8040e780:	10400003 	beqz	v0,8040e790 <console_log+0x48>
8040e784:	8fbf0110 	lw	ra,272(sp)
8040e788:	24020001 	li	v0,1
8040e78c:	af828100 	sw	v0,-32512(gp)
8040e790:	03e00008 	jr	ra
8040e794:	27bd0118 	addiu	sp,sp,280

8040e798 <console_close>:
8040e798:	8f828080 	lw	v0,-32640(gp)
8040e79c:	27bdffe8 	addiu	sp,sp,-24
8040e7a0:	afb00010 	sw	s0,16(sp)
8040e7a4:	2410ffff 	li	s0,-1
8040e7a8:	afbf0014 	sw	ra,20(sp)
8040e7ac:	10500003 	beq	v0,s0,8040e7bc <console_close+0x24>
8040e7b0:	00402021 	move	a0,v0
8040e7b4:	0c1038e8 	jal	8040e3a0 <cfe_close>
8040e7b8:	00000000 	nop
8040e7bc:	af908080 	sw	s0,-32640(gp)
8040e7c0:	8fbf0014 	lw	ra,20(sp)
8040e7c4:	8fb00010 	lw	s0,16(sp)
8040e7c8:	00001021 	move	v0,zero
8040e7cc:	03e00008 	jr	ra
8040e7d0:	27bd0018 	addiu	sp,sp,24

8040e7d4 <console_open>:
8040e7d4:	8f838080 	lw	v1,-32640(gp)
8040e7d8:	27bdffe8 	addiu	sp,sp,-24
8040e7dc:	2402ffff 	li	v0,-1
8040e7e0:	afb00010 	sw	s0,16(sp)
8040e7e4:	afbf0014 	sw	ra,20(sp)
8040e7e8:	10620003 	beq	v1,v0,8040e7f8 <console_open+0x24>
8040e7ec:	00808021 	move	s0,a0
8040e7f0:	0c1039e6 	jal	8040e798 <console_close>
8040e7f4:	00000000 	nop
8040e7f8:	0c1038cf 	jal	8040e33c <cfe_open>
8040e7fc:	02002021 	move	a0,s0
8040e800:	8fbf0014 	lw	ra,20(sp)
8040e804:	8fb00010 	lw	s0,16(sp)
8040e808:	00402021 	move	a0,v0
8040e80c:	28430000 	slti	v1,v0,0
8040e810:	2402fffa 	li	v0,-6
8040e814:	0003100a 	movz	v0,zero,v1
8040e818:	27bd0018 	addiu	sp,sp,24
8040e81c:	03e00008 	jr	ra
8040e820:	af848080 	sw	a0,-32640(gp)

8040e824 <console_read>:
8040e824:	8f838080 	lw	v1,-32640(gp)
8040e828:	00801021 	move	v0,a0
8040e82c:	00a03021 	move	a2,a1
8040e830:	00402821 	move	a1,v0
8040e834:	2402ffff 	li	v0,-1
8040e838:	10620003 	beq	v1,v0,8040e848 <console_read+0x24>
8040e83c:	00602021 	move	a0,v1
8040e840:	0810390e 	j	8040e438 <cfe_read>
8040e844:	00000000 	nop
8040e848:	03e00008 	jr	ra
8040e84c:	00000000 	nop

8040e850 <console_write>:
8040e850:	8f838080 	lw	v1,-32640(gp)
8040e854:	27bdffe0 	addiu	sp,sp,-32
8040e858:	2402ffff 	li	v0,-1
8040e85c:	afb10014 	sw	s1,20(sp)
8040e860:	afb00010 	sw	s0,16(sp)
8040e864:	00808821 	move	s1,a0
8040e868:	afbf0018 	sw	ra,24(sp)
8040e86c:	00a08021 	move	s0,a1
8040e870:	1062000d 	beq	v1,v0,8040e8a8 <console_write+0x58>
8040e874:	2404ffff 	li	a0,-1
8040e878:	8f848080 	lw	a0,-32640(gp)
8040e87c:	02202821 	move	a1,s1
8040e880:	0c103930 	jal	8040e4c0 <cfe_write>
8040e884:	02003021 	move	a2,s0
8040e888:	02028023 	subu	s0,s0,v0
8040e88c:	04400005 	bltz	v0,8040e8a4 <console_write+0x54>
8040e890:	02228821 	addu	s1,s1,v0
8040e894:	1600fff8 	bnez	s0,8040e878 <console_write+0x28>
8040e898:	00002021 	move	a0,zero
8040e89c:	08103a2b 	j	8040e8ac <console_write+0x5c>
8040e8a0:	8fbf0018 	lw	ra,24(sp)
8040e8a4:	2404ffff 	li	a0,-1
8040e8a8:	8fbf0018 	lw	ra,24(sp)
8040e8ac:	8fb10014 	lw	s1,20(sp)
8040e8b0:	8fb00010 	lw	s0,16(sp)
8040e8b4:	00801021 	move	v0,a0
8040e8b8:	03e00008 	jr	ra
8040e8bc:	27bd0020 	addiu	sp,sp,32

8040e8c0 <console_status>:
8040e8c0:	8f858080 	lw	a1,-32640(gp)
8040e8c4:	2403ffff 	li	v1,-1
8040e8c8:	00001021 	move	v0,zero
8040e8cc:	10a30003 	beq	a1,v1,8040e8dc <console_status+0x1c>
8040e8d0:	00a02021 	move	a0,a1
8040e8d4:	08103956 	j	8040e558 <cfe_inpstat>
8040e8d8:	00000000 	nop
8040e8dc:	03e00008 	jr	ra
8040e8e0:	00000000 	nop

8040e8e4 <console_xprint>:
8040e8e4:	27bdffd8 	addiu	sp,sp,-40
8040e8e8:	afb3001c 	sw	s3,28(sp)
8040e8ec:	afb10014 	sw	s1,20(sp)
8040e8f0:	afbf0020 	sw	ra,32(sp)
8040e8f4:	afb20018 	sw	s2,24(sp)
8040e8f8:	afb00010 	sw	s0,16(sp)
8040e8fc:	00808821 	move	s1,a0
8040e900:	08103a49 	j	8040e924 <console_xprint+0x40>
8040e904:	00009821 	move	s3,zero
8040e908:	0c103a14 	jal	8040e850 <console_write>
8040e90c:	02729821 	addu	s3,s3,s2
8040e910:	3c048042 	lui	a0,0x8042
8040e914:	2484b974 	addiu	a0,a0,-18060
8040e918:	0c103a14 	jal	8040e850 <console_write>
8040e91c:	24050002 	li	a1,2
8040e920:	26110001 	addiu	s1,s0,1
8040e924:	02202021 	move	a0,s1
8040e928:	0c103424 	jal	8040d090 <lib_strchr>
8040e92c:	2405000a 	li	a1,10
8040e930:	00519023 	subu	s2,v0,s1
8040e934:	00408021 	move	s0,v0
8040e938:	02202021 	move	a0,s1
8040e93c:	1440fff2 	bnez	v0,8040e908 <console_xprint+0x24>
8040e940:	02402821 	move	a1,s2
8040e944:	0c1033bf 	jal	8040cefc <lib_strlen>
8040e948:	00000000 	nop
8040e94c:	00408021 	move	s0,v0
8040e950:	02202021 	move	a0,s1
8040e954:	0c103a14 	jal	8040e850 <console_write>
8040e958:	00402821 	move	a1,v0
8040e95c:	02701021 	addu	v0,s3,s0
8040e960:	8fbf0020 	lw	ra,32(sp)
8040e964:	8fb3001c 	lw	s3,28(sp)
8040e968:	8fb20018 	lw	s2,24(sp)
8040e96c:	8fb10014 	lw	s1,20(sp)
8040e970:	8fb00010 	lw	s0,16(sp)
8040e974:	03e00008 	jr	ra
8040e978:	27bd0028 	addiu	sp,sp,40

8040e97c <console_readline_noedit>:
8040e97c:	8f828104 	lw	v0,-32508(gp)
8040e980:	27bdffd0 	addiu	sp,sp,-48
8040e984:	afb40028 	sw	s4,40(sp)
8040e988:	24420001 	addiu	v0,v0,1
8040e98c:	afb30024 	sw	s3,36(sp)
8040e990:	afb20020 	sw	s2,32(sp)
8040e994:	afb1001c 	sw	s1,28(sp)
8040e998:	afb00018 	sw	s0,24(sp)
8040e99c:	afbf002c 	sw	ra,44(sp)
8040e9a0:	00808821 	move	s1,a0
8040e9a4:	00a09021 	move	s2,a1
8040e9a8:	af828104 	sw	v0,-32508(gp)
8040e9ac:	00c0a021 	move	s4,a2
8040e9b0:	24130001 	li	s3,1
8040e9b4:	10800009 	beqz	a0,8040e9dc <console_readline_noedit+0x60>
8040e9b8:	00008021 	move	s0,zero
8040e9bc:	80820000 	lb	v0,0(a0)
8040e9c0:	10400006 	beqz	v0,8040e9dc <console_readline_noedit+0x60>
8040e9c4:	00000000 	nop
8040e9c8:	0c1033bf 	jal	8040cefc <lib_strlen>
8040e9cc:	00000000 	nop
8040e9d0:	00402821 	move	a1,v0
8040e9d4:	0c103a14 	jal	8040e850 <console_write>
8040e9d8:	02202021 	move	a0,s1
8040e9dc:	0c103c5c 	jal	8040f170 <background>
8040e9e0:	00000000 	nop
8040e9e4:	8f828100 	lw	v0,-32512(gp)
8040e9e8:	10400010 	beqz	v0,8040ea2c <console_readline_noedit+0xb0>
8040e9ec:	8f8280fc 	lw	v0,-32516(gp)
8040e9f0:	1220000a 	beqz	s1,8040ea1c <console_readline_noedit+0xa0>
8040e9f4:	02402021 	move	a0,s2
8040e9f8:	82220000 	lb	v0,0(s1)
8040e9fc:	10400007 	beqz	v0,8040ea1c <console_readline_noedit+0xa0>
8040ea00:	00000000 	nop
8040ea04:	0c1033bf 	jal	8040cefc <lib_strlen>
8040ea08:	02202021 	move	a0,s1
8040ea0c:	00402821 	move	a1,v0
8040ea10:	0c103a14 	jal	8040e850 <console_write>
8040ea14:	02202021 	move	a0,s1
8040ea18:	02402021 	move	a0,s2
8040ea1c:	0c103a14 	jal	8040e850 <console_write>
8040ea20:	02002821 	move	a1,s0
8040ea24:	08103ade 	j	8040eb78 <console_readline_noedit+0x1fc>
8040ea28:	af808100 	sw	zero,-32512(gp)
8040ea2c:	10400003 	beqz	v0,8040ea3c <console_readline_noedit+0xc0>
8040ea30:	00000000 	nop
8040ea34:	08103ae0 	j	8040eb80 <console_readline_noedit+0x204>
8040ea38:	af8080fc 	sw	zero,-32516(gp)
8040ea3c:	0c103a30 	jal	8040e8c0 <console_status>
8040ea40:	00000000 	nop
8040ea44:	14400005 	bnez	v0,8040ea5c <console_readline_noedit+0xe0>
8040ea48:	27a40010 	addiu	a0,sp,16
8040ea4c:	0c103c5c 	jal	8040f170 <background>
8040ea50:	00000000 	nop
8040ea54:	08103ade 	j	8040eb78 <console_readline_noedit+0x1fc>
8040ea58:	00000000 	nop
8040ea5c:	0c103a09 	jal	8040e824 <console_read>
8040ea60:	24050001 	li	a1,1
8040ea64:	04400046 	bltz	v0,8040eb80 <console_readline_noedit+0x204>
8040ea68:	00000000 	nop
8040ea6c:	10400042 	beqz	v0,8040eb78 <console_readline_noedit+0x1fc>
8040ea70:	93a40010 	lbu	a0,16(sp)
8040ea74:	2402000a 	li	v0,10
8040ea78:	00041e00 	sll	v1,a0,0x18
8040ea7c:	00031e03 	sra	v1,v1,0x18
8040ea80:	1062002b 	beq	v1,v0,8040eb30 <console_readline_noedit+0x1b4>
8040ea84:	2862000b 	slti	v0,v1,11
8040ea88:	10400006 	beqz	v0,8040eaa4 <console_readline_noedit+0x128>
8040ea8c:	24020015 	li	v0,21
8040ea90:	24020003 	li	v0,3
8040ea94:	10620010 	beq	v1,v0,8040ead8 <console_readline_noedit+0x15c>
8040ea98:	24020008 	li	v0,8
8040ea9c:	08103ab2 	j	8040eac8 <console_readline_noedit+0x14c>
8040eaa0:	00000000 	nop
8040eaa4:	1062001a 	beq	v1,v0,8040eb10 <console_readline_noedit+0x194>
8040eaa8:	28620016 	slti	v0,v1,22
8040eaac:	10400006 	beqz	v0,8040eac8 <console_readline_noedit+0x14c>
8040eab0:	2402007f 	li	v0,127
8040eab4:	2402000d 	li	v0,13
8040eab8:	1062001d 	beq	v1,v0,8040eb30 <console_readline_noedit+0x1b4>
8040eabc:	00041600 	sll	v0,a0,0x18
8040eac0:	08103ad2 	j	8040eb48 <console_readline_noedit+0x1cc>
8040eac4:	00021603 	sra	v0,v0,0x18
8040eac8:	1062000b 	beq	v1,v0,8040eaf8 <console_readline_noedit+0x17c>
8040eacc:	00041600 	sll	v0,a0,0x18
8040ead0:	08103ad2 	j	8040eb48 <console_readline_noedit+0x1cc>
8040ead4:	00021603 	sra	v0,v0,0x18
8040ead8:	3c048042 	lui	a0,0x8042
8040eadc:	2484c050 	addiu	a0,a0,-16304
8040eae0:	0c103a14 	jal	8040e850 <console_write>
8040eae4:	24050004 	li	a1,4
8040eae8:	00008021 	move	s0,zero
8040eaec:	24020001 	li	v0,1
8040eaf0:	08103ade 	j	8040eb78 <console_readline_noedit+0x1fc>
8040eaf4:	af828100 	sw	v0,-32512(gp)
8040eaf8:	1a00001f 	blez	s0,8040eb78 <console_readline_noedit+0x1fc>
8040eafc:	3c048042 	lui	a0,0x8042
8040eb00:	2484c058 	addiu	a0,a0,-16296
8040eb04:	24050003 	li	a1,3
8040eb08:	08103adc 	j	8040eb70 <console_readline_noedit+0x1f4>
8040eb0c:	2610ffff 	addiu	s0,s0,-1
8040eb10:	1a000019 	blez	s0,8040eb78 <console_readline_noedit+0x1fc>
8040eb14:	3c048042 	lui	a0,0x8042
8040eb18:	2484c058 	addiu	a0,a0,-16296
8040eb1c:	24050003 	li	a1,3
8040eb20:	0c103a14 	jal	8040e850 <console_write>
8040eb24:	2610ffff 	addiu	s0,s0,-1
8040eb28:	08103ac4 	j	8040eb10 <console_readline_noedit+0x194>
8040eb2c:	00000000 	nop
8040eb30:	3c048042 	lui	a0,0x8042
8040eb34:	2484b974 	addiu	a0,a0,-18060
8040eb38:	0c103a14 	jal	8040e850 <console_write>
8040eb3c:	24050002 	li	a1,2
8040eb40:	08103ae0 	j	8040eb80 <console_readline_noedit+0x204>
8040eb44:	00000000 	nop
8040eb48:	28420020 	slti	v0,v0,32
8040eb4c:	1440000a 	bnez	v0,8040eb78 <console_readline_noedit+0x1fc>
8040eb50:	2682ffff 	addiu	v0,s4,-1
8040eb54:	0202102a 	slt	v0,s0,v0
8040eb58:	10400007 	beqz	v0,8040eb78 <console_readline_noedit+0x1fc>
8040eb5c:	02501021 	addu	v0,s2,s0
8040eb60:	a0440000 	sb	a0,0(v0)
8040eb64:	24050001 	li	a1,1
8040eb68:	27a40010 	addiu	a0,sp,16
8040eb6c:	26100001 	addiu	s0,s0,1
8040eb70:	0c103a14 	jal	8040e850 <console_write>
8040eb74:	00000000 	nop
8040eb78:	1660ff9b 	bnez	s3,8040e9e8 <console_readline_noedit+0x6c>
8040eb7c:	8f828100 	lw	v0,-32512(gp)
8040eb80:	0c103c5c 	jal	8040f170 <background>
8040eb84:	00000000 	nop
8040eb88:	8f838104 	lw	v1,-32508(gp)
8040eb8c:	02502021 	addu	a0,s2,s0
8040eb90:	02001021 	move	v0,s0
8040eb94:	8fbf002c 	lw	ra,44(sp)
8040eb98:	8fb40028 	lw	s4,40(sp)
8040eb9c:	8fb30024 	lw	s3,36(sp)
8040eba0:	8fb20020 	lw	s2,32(sp)
8040eba4:	8fb1001c 	lw	s1,28(sp)
8040eba8:	8fb00018 	lw	s0,24(sp)
8040ebac:	2463ffff 	addiu	v1,v1,-1
8040ebb0:	27bd0030 	addiu	sp,sp,48
8040ebb4:	af838104 	sw	v1,-32508(gp)
8040ebb8:	03e00008 	jr	ra
8040ebbc:	a0800000 	sb	zero,0(a0)

8040ebc0 <cfe_set_console>:
8040ebc0:	27bdffe8 	addiu	sp,sp,-24
8040ebc4:	3c028041 	lui	v0,0x8041
8040ebc8:	afb00010 	sw	s0,16(sp)
8040ebcc:	2442e8e4 	addiu	v0,v0,-5916
8040ebd0:	00808021 	move	s0,a0
8040ebd4:	3c048042 	lui	a0,0x8042
8040ebd8:	afbf0014 	sw	ra,20(sp)
8040ebdc:	24060103 	li	a2,259
8040ebe0:	2484c05c 	addiu	a0,a0,-16292
8040ebe4:	02002821 	move	a1,s0
8040ebe8:	12000008 	beqz	s0,8040ec0c <cfe_set_console+0x4c>
8040ebec:	af8280f4 	sw	v0,-32524(gp)
8040ebf0:	0c10217f 	jal	804085fc <env_setenv>
8040ebf4:	00000000 	nop
8040ebf8:	02002021 	move	a0,s0
8040ebfc:	8fbf0014 	lw	ra,20(sp)
8040ec00:	8fb00010 	lw	s0,16(sp)
8040ec04:	081039f5 	j	8040e7d4 <console_open>
8040ec08:	27bd0018 	addiu	sp,sp,24
8040ec0c:	8fbf0014 	lw	ra,20(sp)
8040ec10:	8fb00010 	lw	s0,16(sp)
8040ec14:	2402ffff 	li	v0,-1
8040ec18:	03e00008 	jr	ra
8040ec1c:	27bd0018 	addiu	sp,sp,24

8040ec20 <console_readline>:
8040ec20:	08103a5f 	j	8040e97c <console_readline_noedit>
8040ec24:	00000000 	nop

8040ec28 <cfe_arena_init>:
8040ec28:	27bdffd8 	addiu	sp,sp,-40
8040ec2c:	afbf0020 	sw	ra,32(sp)
8040ec30:	0c102fdf 	jal	8040bf7c <bcmcore_arena_init>
8040ec34:	00000000 	nop
8040ec38:	8f828010 	lw	v0,-32752(gp)
8040ec3c:	8f878018 	lw	a3,-32744(gp)
8040ec40:	3c041fff 	lui	a0,0x1fff
8040ec44:	24420fff 	addiu	v0,v0,4095
8040ec48:	3484f000 	ori	a0,a0,0xf000
8040ec4c:	00401821 	move	v1,v0
8040ec50:	00e43824 	and	a3,a3,a0
8040ec54:	00641824 	and	v1,v1,a0
8040ec58:	00003021 	move	a2,zero
8040ec5c:	00001021 	move	v0,zero
8040ec60:	0067202b 	sltu	a0,v1,a3
8040ec64:	00461023 	subu	v0,v0,a2
8040ec68:	00441023 	subu	v0,v0,a0
8040ec6c:	3c048042 	lui	a0,0x8042
8040ec70:	afa20010 	sw	v0,16(sp)
8040ec74:	00671823 	subu	v1,v1,a3
8040ec78:	24020003 	li	v0,3
8040ec7c:	24842cf8 	addiu	a0,a0,11512
8040ec80:	afa30014 	sw	v1,20(sp)
8040ec84:	afa20018 	sw	v0,24(sp)
8040ec88:	0c103610 	jal	8040d840 <arena_markrange>
8040ec8c:	afa0001c 	sw	zero,28(sp)
8040ec90:	8fbf0020 	lw	ra,32(sp)
8040ec94:	0810618b 	j	8041862c <cfe_bootarea_init>
8040ec98:	27bd0028 	addiu	sp,sp,40

8040ec9c <cfe_arena_enum>:
8040ec9c:	3c028042 	lui	v0,0x8042
8040eca0:	8c482cf8 	lw	t0,11512(v0)
8040eca4:	244a2cf8 	addiu	t2,v0,11512
8040eca8:	110a0019 	beq	t0,t2,8040ed10 <cfe_arena_enum+0x74>
8040ecac:	8fa90010 	lw	t1,16(sp)
8040ecb0:	24030001 	li	v1,1
8040ecb4:	15200004 	bnez	t1,8040ecc8 <cfe_arena_enum+0x2c>
8040ecb8:	00000000 	nop
8040ecbc:	8d020018 	lw	v0,24(t0)
8040ecc0:	14430010 	bne	v0,v1,8040ed04 <cfe_arena_enum+0x68>
8040ecc4:	00000000 	nop
8040ecc8:	1480000e 	bnez	a0,8040ed04 <cfe_arena_enum+0x68>
8040eccc:	2484ffff 	addiu	a0,a0,-1
8040ecd0:	24840001 	addiu	a0,a0,1
8040ecd4:	8d03000c 	lw	v1,12(t0)
8040ecd8:	8d020008 	lw	v0,8(t0)
8040ecdc:	8d040018 	lw	a0,24(t0)
8040ece0:	acc30004 	sw	v1,4(a2)
8040ece4:	acc20000 	sw	v0,0(a2)
8040ece8:	8d030014 	lw	v1,20(t0)
8040ecec:	8d020010 	lw	v0,16(t0)
8040ecf0:	00004821 	move	t1,zero
8040ecf4:	aca40000 	sw	a0,0(a1)
8040ecf8:	ace30004 	sw	v1,4(a3)
8040ecfc:	08103b45 	j	8040ed14 <cfe_arena_enum+0x78>
8040ed00:	ace20000 	sw	v0,0(a3)
8040ed04:	8d080000 	lw	t0,0(t0)
8040ed08:	150affea 	bne	t0,t2,8040ecb4 <cfe_arena_enum+0x18>
8040ed0c:	00000000 	nop
8040ed10:	2409ffe4 	li	t1,-28
8040ed14:	03e00008 	jr	ra
8040ed18:	01201021 	move	v0,t1

8040ed1c <cfe_arena_loadcheck>:
8040ed1c:	3c021fff 	lui	v0,0x1fff
8040ed20:	3442ffff 	ori	v0,v0,0xffff
8040ed24:	3c038042 	lui	v1,0x8042
8040ed28:	0044102b 	sltu	v0,v0,a0
8040ed2c:	00805021 	move	t2,a0
8040ed30:	10400008 	beqz	v0,8040ed54 <cfe_arena_loadcheck+0x38>
8040ed34:	246b2cf8 	addiu	t3,v1,11512
8040ed38:	00851821 	addu	v1,a0,a1
8040ed3c:	3c022004 	lui	v0,0x2004
8040ed40:	0043102b 	sltu	v0,v0,v1
8040ed44:	1040002c 	beqz	v0,8040edf8 <cfe_arena_loadcheck+0xdc>
8040ed48:	24030001 	li	v1,1
8040ed4c:	08103b56 	j	8040ed58 <cfe_arena_loadcheck+0x3c>
8040ed50:	8d670000 	lw	a3,0(t3)
8040ed54:	8d670000 	lw	a3,0(t3)
8040ed58:	3c021fff 	lui	v0,0x1fff
8040ed5c:	3442ffff 	ori	v0,v0,0xffff
8040ed60:	10eb0024 	beq	a3,t3,8040edf4 <cfe_arena_loadcheck+0xd8>
8040ed64:	01425024 	and	t2,t2,v0
8040ed68:	01456021 	addu	t4,t2,a1
8040ed6c:	240d0001 	li	t5,1
8040ed70:	8ce30008 	lw	v1,8(a3)
8040ed74:	00002021 	move	a0,zero
8040ed78:	0083102b 	sltu	v0,a0,v1
8040ed7c:	1440001a 	bnez	v0,8040ede8 <cfe_arena_loadcheck+0xcc>
8040ed80:	00000000 	nop
8040ed84:	14640005 	bne	v1,a0,8040ed9c <cfe_arena_loadcheck+0x80>
8040ed88:	00000000 	nop
8040ed8c:	8ce2000c 	lw	v0,12(a3)
8040ed90:	0142102b 	sltu	v0,t2,v0
8040ed94:	14400014 	bnez	v0,8040ede8 <cfe_arena_loadcheck+0xcc>
8040ed98:	00000000 	nop
8040ed9c:	8ce30014 	lw	v1,20(a3)
8040eda0:	8ce5000c 	lw	a1,12(a3)
8040eda4:	8ce20010 	lw	v0,16(a3)
8040eda8:	8ce40008 	lw	a0,8(a3)
8040edac:	00a32821 	addu	a1,a1,v1
8040edb0:	00a3302b 	sltu	a2,a1,v1
8040edb4:	00822021 	addu	a0,a0,v0
8040edb8:	00004021 	move	t0,zero
8040edbc:	00862021 	addu	a0,a0,a2
8040edc0:	0088102b 	sltu	v0,a0,t0
8040edc4:	14400008 	bnez	v0,8040ede8 <cfe_arena_loadcheck+0xcc>
8040edc8:	00000000 	nop
8040edcc:	15040003 	bne	t0,a0,8040eddc <cfe_arena_loadcheck+0xc0>
8040edd0:	00ac102b 	sltu	v0,a1,t4
8040edd4:	14400004 	bnez	v0,8040ede8 <cfe_arena_loadcheck+0xcc>
8040edd8:	00000000 	nop
8040eddc:	8ce20018 	lw	v0,24(a3)
8040ede0:	104d0005 	beq	v0,t5,8040edf8 <cfe_arena_loadcheck+0xdc>
8040ede4:	24030001 	li	v1,1
8040ede8:	8ce70000 	lw	a3,0(a3)
8040edec:	14ebffe0 	bne	a3,t3,8040ed70 <cfe_arena_loadcheck+0x54>
8040edf0:	00000000 	nop
8040edf4:	00001821 	move	v1,zero
8040edf8:	03e00008 	jr	ra
8040edfc:	00601021 	move	v0,v1

8040ee00 <cfe_timer_task>:
8040ee00:	8f828084 	lw	v0,-32636(gp)
8040ee04:	3c036666 	lui	v1,0x6666
8040ee08:	34636667 	ori	v1,v1,0x6667
8040ee0c:	00430018 	mult	v0,v1
8040ee10:	27bdffe8 	addiu	sp,sp,-24
8040ee14:	000217c3 	sra	v0,v0,0x1f
8040ee18:	afb00010 	sw	s0,16(sp)
8040ee1c:	afbf0014 	sw	ra,20(sp)
8040ee20:	00001810 	mfhi	v1
8040ee24:	000318c3 	sra	v1,v1,0x3
8040ee28:	0c1004eb 	jal	804013ac <_getticks>
8040ee2c:	00628023 	subu	s0,v1,v0
8040ee30:	00402821 	move	a1,v0
8040ee34:	8f828114 	lw	v0,-32492(gp)
8040ee38:	00a22023 	subu	a0,a1,v0
8040ee3c:	00451823 	subu	v1,v0,a1
8040ee40:	00a2102a 	slt	v0,a1,v0
8040ee44:	14400007 	bnez	v0,8040ee64 <cfe_timer_task+0x64>
8040ee48:	8f868118 	lw	a2,-32488(gp)
8040ee4c:	0090001a 	div	zero,a0,s0
8040ee50:	16000002 	bnez	s0,8040ee5c <cfe_timer_task+0x5c>
8040ee54:	00000000 	nop
8040ee58:	000001cd 	break	0x7
8040ee5c:	08103b9e 	j	8040ee78 <cfe_timer_task+0x78>
8040ee60:	00001010 	mfhi	v0
8040ee64:	0070001a 	div	zero,v1,s0
8040ee68:	16000002 	bnez	s0,8040ee74 <cfe_timer_task+0x74>
8040ee6c:	00000000 	nop
8040ee70:	000001cd 	break	0x7
8040ee74:	00001010 	mfhi	v0
8040ee78:	00c21021 	addu	v0,a2,v0
8040ee7c:	af828118 	sw	v0,-32488(gp)
8040ee80:	8f848118 	lw	a0,-32488(gp)
8040ee84:	00004812 	mflo	t1
8040ee88:	8f87813c 	lw	a3,-32452(gp)
8040ee8c:	8f868138 	lw	a2,-32456(gp)
8040ee90:	0090001a 	div	zero,a0,s0
8040ee94:	16000002 	bnez	s0,8040eea0 <cfe_timer_task+0xa0>
8040ee98:	00000000 	nop
8040ee9c:	000001cd 	break	0x7
8040eea0:	8fbf0014 	lw	ra,20(sp)
8040eea4:	8fb00010 	lw	s0,16(sp)
8040eea8:	af858114 	sw	a1,-32492(gp)
8040eeac:	27bd0018 	addiu	sp,sp,24
8040eeb0:	00002012 	mflo	a0
8040eeb4:	01242021 	addu	a0,t1,a0
8040eeb8:	000417c3 	sra	v0,a0,0x1f
8040eebc:	00e43821 	addu	a3,a3,a0
8040eec0:	00e4202b 	sltu	a0,a3,a0
8040eec4:	00c23021 	addu	a2,a2,v0
8040eec8:	00002810 	mfhi	a1
8040eecc:	00c43021 	addu	a2,a2,a0
8040eed0:	af87813c 	sw	a3,-32452(gp)
8040eed4:	af858118 	sw	a1,-32488(gp)
8040eed8:	af868138 	sw	a2,-32456(gp)
8040eedc:	03e00008 	jr	ra
8040eee0:	00000000 	nop

8040eee4 <cfe_timer_init>:
8040eee4:	8f848084 	lw	a0,-32636(gp)
8040eee8:	3c03431b 	lui	v1,0x431b
8040eeec:	3463de83 	ori	v1,v1,0xde83
8040eef0:	00830018 	mult	a0,v1
8040eef4:	3c026666 	lui	v0,0x6666
8040eef8:	34426667 	ori	v0,v0,0x6667
8040eefc:	00042fc3 	sra	a1,a0,0x1f
8040ef00:	27bdffe8 	addiu	sp,sp,-24
8040ef04:	afbf0010 	sw	ra,16(sp)
8040ef08:	00001810 	mfhi	v1
8040ef0c:	00031cc3 	sra	v1,v1,0x13
8040ef10:	00651823 	subu	v1,v1,a1
8040ef14:	00820018 	mult	a0,v0
8040ef18:	af83810c 	sw	v1,-32500(gp)
8040ef1c:	00002010 	mfhi	a0
8040ef20:	000420c3 	sra	a0,a0,0x3
8040ef24:	00852023 	subu	a0,a0,a1
8040ef28:	14600003 	bnez	v1,8040ef38 <cfe_timer_init+0x54>
8040ef2c:	af848110 	sw	a0,-32496(gp)
8040ef30:	24020001 	li	v0,1
8040ef34:	af82810c 	sw	v0,-32500(gp)
8040ef38:	0c1004eb 	jal	804013ac <_getticks>
8040ef3c:	00000000 	nop
8040ef40:	af828114 	sw	v0,-32492(gp)
8040ef44:	00001821 	move	v1,zero
8040ef48:	00001021 	move	v0,zero
8040ef4c:	af83813c 	sw	v1,-32452(gp)
8040ef50:	af828138 	sw	v0,-32456(gp)
8040ef54:	8f828108 	lw	v0,-32504(gp)
8040ef58:	3c048041 	lui	a0,0x8041
8040ef5c:	2484ee00 	addiu	a0,a0,-4608
8040ef60:	14400005 	bnez	v0,8040ef78 <cfe_timer_init+0x94>
8040ef64:	00002821 	move	a1,zero
8040ef68:	0c103c22 	jal	8040f088 <cfe_bg_add>
8040ef6c:	00000000 	nop
8040ef70:	24020001 	li	v0,1
8040ef74:	af828108 	sw	v0,-32504(gp)
8040ef78:	8fbf0010 	lw	ra,16(sp)
8040ef7c:	03e00008 	jr	ra
8040ef80:	27bd0018 	addiu	sp,sp,24

8040ef84 <cfe_sleep>:
8040ef84:	8f83813c 	lw	v1,-32452(gp)
8040ef88:	8f828138 	lw	v0,-32456(gp)
8040ef8c:	27bdffe0 	addiu	sp,sp,-32
8040ef90:	00802821 	move	a1,a0
8040ef94:	afb10014 	sw	s1,20(sp)
8040ef98:	000427c3 	sra	a0,a0,0x1f
8040ef9c:	00658821 	addu	s1,v1,a1
8040efa0:	afb00010 	sw	s0,16(sp)
8040efa4:	0225302b 	sltu	a2,s1,a1
8040efa8:	00448021 	addu	s0,v0,a0
8040efac:	02068021 	addu	s0,s0,a2
8040efb0:	08103bf1 	j	8040efc4 <cfe_sleep+0x40>
8040efb4:	afbf0018 	sw	ra,24(sp)
8040efb8:	8f82813c 	lw	v0,-32452(gp)
8040efbc:	0c103c5c 	jal	8040f170 <background>
8040efc0:	00000000 	nop
8040efc4:	02111025 	or	v0,s0,s1
8040efc8:	1040fffc 	beqz	v0,8040efbc <cfe_sleep+0x38>
8040efcc:	00000000 	nop
8040efd0:	8f828138 	lw	v0,-32456(gp)
8040efd4:	0202102a 	slt	v0,s0,v0
8040efd8:	14400008 	bnez	v0,8040effc <cfe_sleep+0x78>
8040efdc:	8fbf0018 	lw	ra,24(sp)
8040efe0:	8f828138 	lw	v0,-32456(gp)
8040efe4:	1450fff5 	bne	v0,s0,8040efbc <cfe_sleep+0x38>
8040efe8:	00000000 	nop
8040efec:	8f82813c 	lw	v0,-32452(gp)
8040eff0:	0222102b 	sltu	v0,s1,v0
8040eff4:	1040fff0 	beqz	v0,8040efb8 <cfe_sleep+0x34>
8040eff8:	00000000 	nop
8040effc:	8fb10014 	lw	s1,20(sp)
8040f000:	8fb00010 	lw	s0,16(sp)
8040f004:	03e00008 	jr	ra
8040f008:	27bd0020 	addiu	sp,sp,32

8040f00c <cfe_usleep>:
8040f00c:	27bdffe0 	addiu	sp,sp,-32
8040f010:	afb10014 	sw	s1,20(sp)
8040f014:	afb00010 	sw	s0,16(sp)
8040f018:	afbf0018 	sw	ra,24(sp)
8040f01c:	0c1004eb 	jal	804013ac <_getticks>
8040f020:	00808021 	move	s0,a0
8040f024:	00408821 	move	s1,v0
8040f028:	8f82810c 	lw	v0,-32500(gp)
8040f02c:	72021802 	mul	v1,s0,v0
8040f030:	00718021 	addu	s0,v1,s1
8040f034:	0211102b 	sltu	v0,s0,s1
8040f038:	10400005 	beqz	v0,8040f050 <cfe_usleep+0x44>
8040f03c:	00000000 	nop
8040f040:	0c1004eb 	jal	804013ac <_getticks>
8040f044:	00000000 	nop
8040f048:	08103c0e 	j	8040f038 <cfe_usleep+0x2c>
8040f04c:	0222102b 	sltu	v0,s1,v0
8040f050:	0c1004eb 	jal	804013ac <_getticks>
8040f054:	00000000 	nop
8040f058:	0050102b 	sltu	v0,v0,s0
8040f05c:	1440fffc 	bnez	v0,8040f050 <cfe_usleep+0x44>
8040f060:	8fbf0018 	lw	ra,24(sp)
8040f064:	8fb10014 	lw	s1,20(sp)
8040f068:	8fb00010 	lw	s0,16(sp)
8040f06c:	03e00008 	jr	ra
8040f070:	27bd0020 	addiu	sp,sp,32

8040f074 <cfe_bg_init>:
8040f074:	3c048042 	lui	a0,0x8042
8040f078:	24841ec0 	addiu	a0,a0,7872
8040f07c:	00002821 	move	a1,zero
8040f080:	08103468 	j	8040d1a0 <lib_memset>
8040f084:	24060040 	li	a2,64

8040f088 <cfe_bg_add>:
8040f088:	3c028042 	lui	v0,0x8042
8040f08c:	24491ec0 	addiu	t1,v0,7872
8040f090:	00003021 	move	a2,zero
8040f094:	00063880 	sll	a3,a2,0x2
8040f098:	00e94021 	addu	t0,a3,t1
8040f09c:	8d020000 	lw	v0,0(t0)
8040f0a0:	24c60001 	addiu	a2,a2,1
8040f0a4:	14400007 	bnez	v0,8040f0c4 <cfe_bg_add+0x3c>
8040f0a8:	28c30010 	slti	v1,a2,16
8040f0ac:	3c028042 	lui	v0,0x8042
8040f0b0:	24421f00 	addiu	v0,v0,7936
8040f0b4:	00e21021 	addu	v0,a3,v0
8040f0b8:	ad040000 	sw	a0,0(t0)
8040f0bc:	03e00008 	jr	ra
8040f0c0:	ac450000 	sw	a1,0(v0)
8040f0c4:	1460fff4 	bnez	v1,8040f098 <cfe_bg_add+0x10>
8040f0c8:	00063880 	sll	a3,a2,0x2
8040f0cc:	03e00008 	jr	ra
8040f0d0:	00000000 	nop

8040f0d4 <cfe_bg_remove>:
8040f0d4:	3c028042 	lui	v0,0x8042
8040f0d8:	24431ec0 	addiu	v1,v0,7872
8040f0dc:	00003821 	move	a3,zero
8040f0e0:	8c620000 	lw	v0,0(v1)
8040f0e4:	10440005 	beq	v0,a0,8040f0fc <cfe_bg_remove+0x28>
8040f0e8:	24630004 	addiu	v1,v1,4
8040f0ec:	24e70001 	addiu	a3,a3,1
8040f0f0:	28e20010 	slti	v0,a3,16
8040f0f4:	1440fffa 	bnez	v0,8040f0e0 <cfe_bg_remove+0xc>
8040f0f8:	00000000 	nop
8040f0fc:	24020010 	li	v0,16
8040f100:	10e20019 	beq	a3,v0,8040f168 <cfe_bg_remove+0x94>
8040f104:	28e2000f 	slti	v0,a3,15
8040f108:	1040000e 	beqz	v0,8040f144 <cfe_bg_remove+0x70>
8040f10c:	3c028042 	lui	v0,0x8042
8040f110:	24491ec0 	addiu	t1,v0,7872
8040f114:	3c028042 	lui	v0,0x8042
8040f118:	24481f00 	addiu	t0,v0,7936
8040f11c:	00071080 	sll	v0,a3,0x2
8040f120:	00483021 	addu	a2,v0,t0
8040f124:	00491021 	addu	v0,v0,t1
8040f128:	8c440004 	lw	a0,4(v0)
8040f12c:	8cc50004 	lw	a1,4(a2)
8040f130:	24e70001 	addiu	a3,a3,1
8040f134:	28e3000f 	slti	v1,a3,15
8040f138:	ac440000 	sw	a0,0(v0)
8040f13c:	1460fff7 	bnez	v1,8040f11c <cfe_bg_remove+0x48>
8040f140:	acc50000 	sw	a1,0(a2)
8040f144:	3c038042 	lui	v1,0x8042
8040f148:	3c028042 	lui	v0,0x8042
8040f14c:	00072080 	sll	a0,a3,0x2
8040f150:	24631f00 	addiu	v1,v1,7936
8040f154:	24421ec0 	addiu	v0,v0,7872
8040f158:	00831821 	addu	v1,a0,v1
8040f15c:	00822021 	addu	a0,a0,v0
8040f160:	ac800000 	sw	zero,0(a0)
8040f164:	ac600000 	sw	zero,0(v1)
8040f168:	03e00008 	jr	ra
8040f16c:	00000000 	nop

8040f170 <background>:
8040f170:	27bdffe8 	addiu	sp,sp,-24
8040f174:	afb00010 	sw	s0,16(sp)
8040f178:	afbf0014 	sw	ra,20(sp)
8040f17c:	00008021 	move	s0,zero
8040f180:	3c038042 	lui	v1,0x8042
8040f184:	00101080 	sll	v0,s0,0x2
8040f188:	24631f00 	addiu	v1,v1,7936
8040f18c:	00432021 	addu	a0,v0,v1
8040f190:	3c038042 	lui	v1,0x8042
8040f194:	24631ec0 	addiu	v1,v1,7872
8040f198:	00431021 	addu	v0,v0,v1
8040f19c:	8c420000 	lw	v0,0(v0)
8040f1a0:	10400006 	beqz	v0,8040f1bc <background+0x4c>
8040f1a4:	26100001 	addiu	s0,s0,1
8040f1a8:	0040f809 	jalr	v0
8040f1ac:	8c840000 	lw	a0,0(a0)
8040f1b0:	2a020010 	slti	v0,s0,16
8040f1b4:	1440fff3 	bnez	v0,8040f184 <background+0x14>
8040f1b8:	3c038042 	lui	v1,0x8042
8040f1bc:	8fbf0014 	lw	ra,20(sp)
8040f1c0:	8fb00010 	lw	s0,16(sp)
8040f1c4:	03e00008 	jr	ra
8040f1c8:	27bd0018 	addiu	sp,sp,24

8040f1cc <cfe_doxreq>:
8040f1cc:	27bdff68 	addiu	sp,sp,-152
8040f1d0:	afb60090 	sw	s6,144(sp)
8040f1d4:	afbf0094 	sw	ra,148(sp)
8040f1d8:	afb5008c 	sw	s5,140(sp)
8040f1dc:	afb40088 	sw	s4,136(sp)
8040f1e0:	afb30084 	sw	s3,132(sp)
8040f1e4:	afb20080 	sw	s2,128(sp)
8040f1e8:	afb1007c 	sw	s1,124(sp)
8040f1ec:	afb00078 	sw	s0,120(sp)
8040f1f0:	8c820000 	lw	v0,0(a0)
8040f1f4:	14400008 	bnez	v0,8040f218 <cfe_doxreq+0x4c>
8040f1f8:	0080b021 	move	s6,a0
8040f1fc:	14400008 	bnez	v0,8040f220 <cfe_doxreq+0x54>
8040f200:	00000000 	nop
8040f204:	8c830004 	lw	v1,4(a0)
8040f208:	24027fff 	li	v0,32767
8040f20c:	0043102b 	sltu	v0,v0,v1
8040f210:	10400007 	beqz	v0,8040f230 <cfe_doxreq+0x64>
8040f214:	00000000 	nop
8040f218:	08103d86 	j	8040f618 <cfe_doxreq+0x44c>
8040f21c:	2406fffe 	li	a2,-2
8040f220:	1440001a 	bnez	v0,8040f28c <cfe_doxreq+0xc0>
8040f224:	2403fffe 	li	v1,-2
8040f228:	14400005 	bnez	v0,8040f240 <cfe_doxreq+0x74>
8040f22c:	00000000 	nop
8040f230:	8ec20004 	lw	v0,4(s6)
8040f234:	2c420020 	sltiu	v0,v0,32
8040f238:	10400014 	beqz	v0,8040f28c <cfe_doxreq+0xc0>
8040f23c:	2403fffe 	li	v1,-2
8040f240:	8ec70004 	lw	a3,4(s6)
8040f244:	3c028042 	lui	v0,0x8042
8040f248:	24429b94 	addiu	v0,v0,-25708
8040f24c:	00071840 	sll	v1,a3,0x1
8040f250:	00671821 	addu	v1,v1,a3
8040f254:	00031880 	sll	v1,v1,0x2
8040f258:	00628021 	addu	s0,v1,v0
8040f25c:	8e020000 	lw	v0,0(s0)
8040f260:	04410003 	bgez	v0,8040f270 <cfe_doxreq+0xa4>
8040f264:	00402821 	move	a1,v0
8040f268:	08103ca3 	j	8040f28c <cfe_doxreq+0xc0>
8040f26c:	2403fffe 	li	v1,-2
8040f270:	000227c3 	sra	a0,v0,0x1f
8040f274:	8ec20020 	lw	v0,32(s6)
8040f278:	14440004 	bne	v0,a0,8040f28c <cfe_doxreq+0xc0>
8040f27c:	2403fff8 	li	v1,-8
8040f280:	8ec20024 	lw	v0,36(s6)
8040f284:	10450006 	beq	v0,a1,8040f2a0 <cfe_doxreq+0xd4>
8040f288:	00000000 	nop
8040f28c:	aec3000c 	sw	v1,12(s6)
8040f290:	8ec6000c 	lw	a2,12(s6)
8040f294:	2402ffff 	li	v0,-1
8040f298:	08103d86 	j	8040f618 <cfe_doxreq+0x44c>
8040f29c:	aec20008 	sw	v0,8(s6)
8040f2a0:	8e020008 	lw	v0,8(s0)
8040f2a4:	8e060004 	lw	a2,4(s0)
8040f2a8:	8ec3000c 	lw	v1,12(s6)
8040f2ac:	8ec40014 	lw	a0,20(s6)
8040f2b0:	8ec5001c 	lw	a1,28(s6)
8040f2b4:	2448ffff 	addiu	t0,v0,-1
8040f2b8:	2d020008 	sltiu	v0,t0,8
8040f2bc:	afa70010 	sw	a3,16(sp)
8040f2c0:	afa30014 	sw	v1,20(sp)
8040f2c4:	afa40018 	sw	a0,24(sp)
8040f2c8:	afa5001c 	sw	a1,28(sp)
8040f2cc:	1040003c 	beqz	v0,8040f3c0 <cfe_doxreq+0x1f4>
8040f2d0:	afa60020 	sw	a2,32(sp)
8040f2d4:	3c038042 	lui	v1,0x8042
8040f2d8:	00081080 	sll	v0,t0,0x2
8040f2dc:	24639d14 	addiu	v1,v1,-25324
8040f2e0:	00431021 	addu	v0,v0,v1
8040f2e4:	8c420000 	lw	v0,0(v0)
8040f2e8:	00400008 	jr	v0
8040f2ec:	00000000 	nop
8040f2f0:	8ec3002c 	lw	v1,44(s6)
8040f2f4:	8ec20028 	lw	v0,40(s6)
8040f2f8:	8ec40034 	lw	a0,52(s6)
8040f2fc:	8ec5003c 	lw	a1,60(s6)
8040f300:	8ec60044 	lw	a2,68(s6)
8040f304:	8ec7004c 	lw	a3,76(s6)
8040f308:	afa3002c 	sw	v1,44(sp)
8040f30c:	08103ccd 	j	8040f334 <cfe_doxreq+0x168>
8040f310:	afa20028 	sw	v0,40(sp)
8040f314:	8ec2002c 	lw	v0,44(s6)
8040f318:	8ec30034 	lw	v1,52(s6)
8040f31c:	8ec4003c 	lw	a0,60(s6)
8040f320:	8ec50044 	lw	a1,68(s6)
8040f324:	8ec6004c 	lw	a2,76(s6)
8040f328:	8ec70054 	lw	a3,84(s6)
8040f32c:	afa20028 	sw	v0,40(sp)
8040f330:	afa3002c 	sw	v1,44(sp)
8040f334:	afa40030 	sw	a0,48(sp)
8040f338:	afa50034 	sw	a1,52(sp)
8040f33c:	afa60038 	sw	a2,56(sp)
8040f340:	08103cf0 	j	8040f3c0 <cfe_doxreq+0x1f4>
8040f344:	afa7003c 	sw	a3,60(sp)
8040f348:	8ec6002c 	lw	a2,44(s6)
8040f34c:	8ec70034 	lw	a3,52(s6)
8040f350:	8ec3003c 	lw	v1,60(s6)
8040f354:	8ec20038 	lw	v0,56(s6)
8040f358:	8ec50044 	lw	a1,68(s6)
8040f35c:	8ec40040 	lw	a0,64(s6)
8040f360:	afa60028 	sw	a2,40(sp)
8040f364:	afa7002c 	sw	a3,44(sp)
8040f368:	afa30034 	sw	v1,52(sp)
8040f36c:	afa20030 	sw	v0,48(sp)
8040f370:	afa5003c 	sw	a1,60(sp)
8040f374:	08103cf0 	j	8040f3c0 <cfe_doxreq+0x1f4>
8040f378:	afa40038 	sw	a0,56(sp)
8040f37c:	8ec2002c 	lw	v0,44(s6)
8040f380:	8ec30034 	lw	v1,52(s6)
8040f384:	8ec4003c 	lw	a0,60(s6)
8040f388:	8ec50044 	lw	a1,68(s6)
8040f38c:	8ec6004c 	lw	a2,76(s6)
8040f390:	afa20028 	sw	v0,40(sp)
8040f394:	afa3002c 	sw	v1,44(sp)
8040f398:	afa40030 	sw	a0,48(sp)
8040f39c:	afa50034 	sw	a1,52(sp)
8040f3a0:	08103cf0 	j	8040f3c0 <cfe_doxreq+0x1f4>
8040f3a4:	afa60038 	sw	a2,56(sp)
8040f3a8:	8ec3002c 	lw	v1,44(s6)
8040f3ac:	8ec20028 	lw	v0,40(s6)
8040f3b0:	08103cef 	j	8040f3bc <cfe_doxreq+0x1f0>
8040f3b4:	afa3002c 	sw	v1,44(sp)
8040f3b8:	8ec2002c 	lw	v0,44(s6)
8040f3bc:	afa20028 	sw	v0,40(sp)
8040f3c0:	0c10372f 	jal	8040dcbc <cfe_iocb_dispatch>
8040f3c4:	27a40010 	addiu	a0,sp,16
8040f3c8:	8e020008 	lw	v0,8(s0)
8040f3cc:	2443ffff 	addiu	v1,v0,-1
8040f3d0:	2c620008 	sltiu	v0,v1,8
8040f3d4:	10400081 	beqz	v0,8040f5dc <cfe_doxreq+0x410>
8040f3d8:	00031080 	sll	v0,v1,0x2
8040f3dc:	3c038042 	lui	v1,0x8042
8040f3e0:	24639d34 	addiu	v1,v1,-25292
8040f3e4:	00431021 	addu	v0,v0,v1
8040f3e8:	8c420000 	lw	v0,0(v0)
8040f3ec:	00400008 	jr	v0
8040f3f0:	00000000 	nop
8040f3f4:	8fab002c 	lw	t3,44(sp)
8040f3f8:	8fa90030 	lw	t1,48(sp)
8040f3fc:	8fa70034 	lw	a3,52(sp)
8040f400:	8fa50038 	lw	a1,56(sp)
8040f404:	8fa3003c 	lw	v1,60(sp)
8040f408:	00005021 	move	t2,zero
8040f40c:	00004021 	move	t0,zero
8040f410:	00003021 	move	a2,zero
8040f414:	00002021 	move	a0,zero
8040f418:	00001021 	move	v0,zero
8040f41c:	aecb002c 	sw	t3,44(s6)
8040f420:	aeca0028 	sw	t2,40(s6)
8040f424:	aec90034 	sw	t1,52(s6)
8040f428:	aec80030 	sw	t0,48(s6)
8040f42c:	aec7003c 	sw	a3,60(s6)
8040f430:	aec60038 	sw	a2,56(s6)
8040f434:	aec50044 	sw	a1,68(s6)
8040f438:	08103d45 	j	8040f514 <cfe_doxreq+0x348>
8040f43c:	aec40040 	sw	a0,64(s6)
8040f440:	8fa70028 	lw	a3,40(sp)
8040f444:	8fa5002c 	lw	a1,44(sp)
8040f448:	8fa30030 	lw	v1,48(sp)
8040f44c:	00003021 	move	a2,zero
8040f450:	00002021 	move	a0,zero
8040f454:	00001021 	move	v0,zero
8040f458:	aec7002c 	sw	a3,44(s6)
8040f45c:	aec60028 	sw	a2,40(s6)
8040f460:	aec50034 	sw	a1,52(s6)
8040f464:	aec40030 	sw	a0,48(s6)
8040f468:	aec3003c 	sw	v1,60(s6)
8040f46c:	08103d77 	j	8040f5dc <cfe_doxreq+0x410>
8040f470:	aec20038 	sw	v0,56(s6)
8040f474:	8fa20028 	lw	v0,40(sp)
8040f478:	8fa6002c 	lw	a2,44(sp)
8040f47c:	8fa70034 	lw	a3,52(sp)
8040f480:	8fa9003c 	lw	t1,60(sp)
8040f484:	8fa80038 	lw	t0,56(sp)
8040f488:	00402821 	move	a1,v0
8040f48c:	000227c3 	sra	a0,v0,0x1f
8040f490:	00c01821 	move	v1,a2
8040f494:	000617c3 	sra	v0,a2,0x1f
8040f498:	8fa60030 	lw	a2,48(sp)
8040f49c:	aec5002c 	sw	a1,44(s6)
8040f4a0:	aec40028 	sw	a0,40(s6)
8040f4a4:	aec30034 	sw	v1,52(s6)
8040f4a8:	aec20030 	sw	v0,48(s6)
8040f4ac:	aec7003c 	sw	a3,60(s6)
8040f4b0:	aec60038 	sw	a2,56(s6)
8040f4b4:	aec90044 	sw	t1,68(s6)
8040f4b8:	08103d77 	j	8040f5dc <cfe_doxreq+0x410>
8040f4bc:	aec80040 	sw	t0,64(s6)
8040f4c0:	8fa20028 	lw	v0,40(sp)
8040f4c4:	8fa30030 	lw	v1,48(sp)
8040f4c8:	8fac0038 	lw	t4,56(sp)
8040f4cc:	8fab002c 	lw	t3,44(sp)
8040f4d0:	8fa90034 	lw	t1,52(sp)
8040f4d4:	00403821 	move	a3,v0
8040f4d8:	000237c3 	sra	a2,v0,0x1f
8040f4dc:	00602821 	move	a1,v1
8040f4e0:	000327c3 	sra	a0,v1,0x1f
8040f4e4:	00005021 	move	t2,zero
8040f4e8:	00004021 	move	t0,zero
8040f4ec:	01801821 	move	v1,t4
8040f4f0:	000c17c3 	sra	v0,t4,0x1f
8040f4f4:	aec7002c 	sw	a3,44(s6)
8040f4f8:	aec60028 	sw	a2,40(s6)
8040f4fc:	aecb0034 	sw	t3,52(s6)
8040f500:	aeca0030 	sw	t2,48(s6)
8040f504:	aec5003c 	sw	a1,60(s6)
8040f508:	aec40038 	sw	a0,56(s6)
8040f50c:	aec90044 	sw	t1,68(s6)
8040f510:	aec80040 	sw	t0,64(s6)
8040f514:	aec3004c 	sw	v1,76(s6)
8040f518:	08103d77 	j	8040f5dc <cfe_doxreq+0x410>
8040f51c:	aec20048 	sw	v0,72(s6)
8040f520:	08103d74 	j	8040f5d0 <cfe_doxreq+0x404>
8040f524:	8fa4002c 	lw	a0,44(sp)
8040f528:	8fb10064 	lw	s1,100(sp)
8040f52c:	8fb00060 	lw	s0,96(sp)
8040f530:	8fb3006c 	lw	s3,108(sp)
8040f534:	8fb20068 	lw	s2,104(sp)
8040f538:	8fb50074 	lw	s5,116(sp)
8040f53c:	8fb40070 	lw	s4,112(sp)
8040f540:	8fa50034 	lw	a1,52(sp)
8040f544:	8fa40030 	lw	a0,48(sp)
8040f548:	8fa7003c 	lw	a3,60(sp)
8040f54c:	8fa60038 	lw	a2,56(sp)
8040f550:	8fa90044 	lw	t1,68(sp)
8040f554:	8fa80040 	lw	t0,64(sp)
8040f558:	8fab004c 	lw	t3,76(sp)
8040f55c:	8faa0048 	lw	t2,72(sp)
8040f560:	8fad0054 	lw	t5,84(sp)
8040f564:	8fac0050 	lw	t4,80(sp)
8040f568:	8faf005c 	lw	t7,92(sp)
8040f56c:	8fae0058 	lw	t6,88(sp)
8040f570:	8fa3002c 	lw	v1,44(sp)
8040f574:	8fa20028 	lw	v0,40(sp)
8040f578:	aec50034 	sw	a1,52(s6)
8040f57c:	aec3002c 	sw	v1,44(s6)
8040f580:	aec20028 	sw	v0,40(s6)
8040f584:	aec40030 	sw	a0,48(s6)
8040f588:	aec7003c 	sw	a3,60(s6)
8040f58c:	aec60038 	sw	a2,56(s6)
8040f590:	aec90044 	sw	t1,68(s6)
8040f594:	aec80040 	sw	t0,64(s6)
8040f598:	aecb004c 	sw	t3,76(s6)
8040f59c:	aeca0048 	sw	t2,72(s6)
8040f5a0:	aecd0054 	sw	t5,84(s6)
8040f5a4:	aecc0050 	sw	t4,80(s6)
8040f5a8:	aecf005c 	sw	t7,92(s6)
8040f5ac:	aece0058 	sw	t6,88(s6)
8040f5b0:	aed10064 	sw	s1,100(s6)
8040f5b4:	aed00060 	sw	s0,96(s6)
8040f5b8:	aed3006c 	sw	s3,108(s6)
8040f5bc:	aed20068 	sw	s2,104(s6)
8040f5c0:	aed50074 	sw	s5,116(s6)
8040f5c4:	08103d77 	j	8040f5dc <cfe_doxreq+0x410>
8040f5c8:	aed40070 	sw	s4,112(s6)
8040f5cc:	8fa40028 	lw	a0,40(sp)
8040f5d0:	000417c3 	sra	v0,a0,0x1f
8040f5d4:	aec4002c 	sw	a0,44(s6)
8040f5d8:	aec20028 	sw	v0,40(s6)
8040f5dc:	8fa40014 	lw	a0,20(sp)
8040f5e0:	8fa60018 	lw	a2,24(sp)
8040f5e4:	8fa5001c 	lw	a1,28(sp)
8040f5e8:	00801821 	move	v1,a0
8040f5ec:	000417c3 	sra	v0,a0,0x1f
8040f5f0:	aec3000c 	sw	v1,12(s6)
8040f5f4:	aec20008 	sw	v0,8(s6)
8040f5f8:	00c01821 	move	v1,a2
8040f5fc:	000617c3 	sra	v0,a2,0x1f
8040f600:	8ec6000c 	lw	a2,12(s6)
8040f604:	00002021 	move	a0,zero
8040f608:	aec30014 	sw	v1,20(s6)
8040f60c:	aec20010 	sw	v0,16(s6)
8040f610:	aec5001c 	sw	a1,28(s6)
8040f614:	aec40018 	sw	a0,24(s6)
8040f618:	8fbf0094 	lw	ra,148(sp)
8040f61c:	8fb60090 	lw	s6,144(sp)
8040f620:	8fb5008c 	lw	s5,140(sp)
8040f624:	8fb40088 	lw	s4,136(sp)
8040f628:	8fb30084 	lw	s3,132(sp)
8040f62c:	8fb20080 	lw	s2,128(sp)
8040f630:	8fb1007c 	lw	s1,124(sp)
8040f634:	8fb00078 	lw	s0,120(sp)
8040f638:	00c01021 	move	v0,a2
8040f63c:	03e00008 	jr	ra
8040f640:	27bd0098 	addiu	sp,sp,152

8040f644 <cfe_findfilesys>:
8040f644:	8f828090 	lw	v0,-32624(gp)
8040f648:	27bdffe0 	addiu	sp,sp,-32
8040f64c:	afb10014 	sw	s1,20(sp)
8040f650:	afb00010 	sw	s0,16(sp)
8040f654:	afbf0018 	sw	ra,24(sp)
8040f658:	00808821 	move	s1,a0
8040f65c:	27908090 	addiu	s0,gp,-32624
8040f660:	1040000b 	beqz	v0,8040f690 <cfe_findfilesys+0x4c>
8040f664:	02202821 	move	a1,s1
8040f668:	8e020000 	lw	v0,0(s0)
8040f66c:	0c1033c8 	jal	8040cf20 <lib_strcmp>
8040f670:	8c440000 	lw	a0,0(v0)
8040f674:	14400004 	bnez	v0,8040f688 <cfe_findfilesys+0x44>
8040f678:	26100004 	addiu	s0,s0,4
8040f67c:	2610fffc 	addiu	s0,s0,-4
8040f680:	08103da5 	j	8040f694 <cfe_findfilesys+0x50>
8040f684:	8e020000 	lw	v0,0(s0)
8040f688:	08103d98 	j	8040f660 <cfe_findfilesys+0x1c>
8040f68c:	8e020000 	lw	v0,0(s0)
8040f690:	00001021 	move	v0,zero
8040f694:	8fbf0018 	lw	ra,24(sp)
8040f698:	8fb10014 	lw	s1,20(sp)
8040f69c:	8fb00010 	lw	s0,16(sp)
8040f6a0:	03e00008 	jr	ra
8040f6a4:	27bd0020 	addiu	sp,sp,32

8040f6a8 <fs_init>:
8040f6a8:	27bdffd8 	addiu	sp,sp,-40
8040f6ac:	afb40020 	sw	s4,32(sp)
8040f6b0:	afb3001c 	sw	s3,28(sp)
8040f6b4:	afb20018 	sw	s2,24(sp)
8040f6b8:	afb10014 	sw	s1,20(sp)
8040f6bc:	00a0a021 	move	s4,a1
8040f6c0:	00c09021 	move	s2,a2
8040f6c4:	afbf0024 	sw	ra,36(sp)
8040f6c8:	0c103d91 	jal	8040f644 <cfe_findfilesys>
8040f6cc:	afb00010 	sw	s0,16(sp)
8040f6d0:	3c138042 	lui	s3,0x8042
8040f6d4:	00408821 	move	s1,v0
8040f6d8:	00003021 	move	a2,zero
8040f6dc:	26642bec 	addiu	a0,s3,11244
8040f6e0:	24050008 	li	a1,8
8040f6e4:	12200013 	beqz	s1,8040f734 <fs_init+0x8c>
8040f6e8:	2402ffe2 	li	v0,-30
8040f6ec:	0c103064 	jal	8040c190 <kmalloc>
8040f6f0:	00000000 	nop
8040f6f4:	00408021 	move	s0,v0
8040f6f8:	24440004 	addiu	a0,v0,4
8040f6fc:	02402821 	move	a1,s2
8040f700:	1200000c 	beqz	s0,8040f734 <fs_init+0x8c>
8040f704:	2402fffb 	li	v0,-5
8040f708:	8e220008 	lw	v0,8(s1)
8040f70c:	0040f809 	jalr	v0
8040f710:	ae110000 	sw	s1,0(s0)
8040f714:	00408821 	move	s1,v0
8040f718:	26642bec 	addiu	a0,s3,11244
8040f71c:	10400003 	beqz	v0,8040f72c <fs_init+0x84>
8040f720:	02002821 	move	a1,s0
8040f724:	0c103031 	jal	8040c0c4 <kfree>
8040f728:	00000000 	nop
8040f72c:	ae900000 	sw	s0,0(s4)
8040f730:	02201021 	move	v0,s1
8040f734:	8fbf0024 	lw	ra,36(sp)
8040f738:	8fb40020 	lw	s4,32(sp)
8040f73c:	8fb3001c 	lw	s3,28(sp)
8040f740:	8fb20018 	lw	s2,24(sp)
8040f744:	8fb10014 	lw	s1,20(sp)
8040f748:	8fb00010 	lw	s0,16(sp)
8040f74c:	03e00008 	jr	ra
8040f750:	27bd0028 	addiu	sp,sp,40

8040f754 <fs_hook>:
8040f754:	27bdffd8 	addiu	sp,sp,-40
8040f758:	afb1001c 	sw	s1,28(sp)
8040f75c:	00808821 	move	s1,a0
8040f760:	afb00018 	sw	s0,24(sp)
8040f764:	afbf0020 	sw	ra,32(sp)
8040f768:	0c103d91 	jal	8040f644 <cfe_findfilesys>
8040f76c:	00a02021 	move	a0,a1
8040f770:	00408021 	move	s0,v0
8040f774:	27a40010 	addiu	a0,sp,16
8040f778:	02202821 	move	a1,s1
8040f77c:	1040000a 	beqz	v0,8040f7a8 <fs_hook+0x54>
8040f780:	2403ffe2 	li	v1,-30
8040f784:	8c420008 	lw	v0,8(v0)
8040f788:	0040f809 	jalr	v0
8040f78c:	00000000 	nop
8040f790:	14400005 	bnez	v0,8040f7a8 <fs_hook+0x54>
8040f794:	00401821 	move	v1,v0
8040f798:	8fa20010 	lw	v0,16(sp)
8040f79c:	ae300000 	sw	s0,0(s1)
8040f7a0:	00001821 	move	v1,zero
8040f7a4:	ae220004 	sw	v0,4(s1)
8040f7a8:	8fbf0020 	lw	ra,32(sp)
8040f7ac:	8fb1001c 	lw	s1,28(sp)
8040f7b0:	8fb00018 	lw	s0,24(sp)
8040f7b4:	00601021 	move	v0,v1
8040f7b8:	03e00008 	jr	ra
8040f7bc:	27bd0028 	addiu	sp,sp,40

8040f7c0 <fs_uninit>:
8040f7c0:	27bdffe8 	addiu	sp,sp,-24
8040f7c4:	afbf0014 	sw	ra,20(sp)
8040f7c8:	afb00010 	sw	s0,16(sp)
8040f7cc:	8c820000 	lw	v0,0(a0)
8040f7d0:	00808021 	move	s0,a0
8040f7d4:	8c420020 	lw	v0,32(v0)
8040f7d8:	0040f809 	jalr	v0
8040f7dc:	8c840004 	lw	a0,4(a0)
8040f7e0:	3c048042 	lui	a0,0x8042
8040f7e4:	02002821 	move	a1,s0
8040f7e8:	0c103031 	jal	8040c0c4 <kfree>
8040f7ec:	24842bec 	addiu	a0,a0,11244
8040f7f0:	8fbf0014 	lw	ra,20(sp)
8040f7f4:	8fb00010 	lw	s0,16(sp)
8040f7f8:	00001021 	move	v0,zero
8040f7fc:	03e00008 	jr	ra
8040f800:	27bd0018 	addiu	sp,sp,24

8040f804 <fs_open>:
8040f804:	8c830000 	lw	v1,0(a0)
8040f808:	00801021 	move	v0,a0
8040f80c:	00a02021 	move	a0,a1
8040f810:	8c79000c 	lw	t9,12(v1)
8040f814:	03200008 	jr	t9
8040f818:	8c450004 	lw	a1,4(v0)

8040f81c <fs_close>:
8040f81c:	27bdffe8 	addiu	sp,sp,-24
8040f820:	afbf0010 	sw	ra,16(sp)
8040f824:	8c820000 	lw	v0,0(a0)
8040f828:	8c42001c 	lw	v0,28(v0)
8040f82c:	0040f809 	jalr	v0
8040f830:	00a02021 	move	a0,a1
8040f834:	8fbf0010 	lw	ra,16(sp)
8040f838:	00001021 	move	v0,zero
8040f83c:	03e00008 	jr	ra
8040f840:	27bd0018 	addiu	sp,sp,24

8040f844 <fs_read>:
8040f844:	8c820000 	lw	v0,0(a0)
8040f848:	00a02021 	move	a0,a1
8040f84c:	00c02821 	move	a1,a2
8040f850:	8c590010 	lw	t9,16(v0)
8040f854:	03200008 	jr	t9
8040f858:	00e03021 	move	a2,a3

8040f85c <fs_write>:
8040f85c:	8c820000 	lw	v0,0(a0)
8040f860:	00a02021 	move	a0,a1
8040f864:	00c02821 	move	a1,a2
8040f868:	8c590014 	lw	t9,20(v0)
8040f86c:	03200008 	jr	t9
8040f870:	00e03021 	move	a2,a3

8040f874 <fs_seek>:
8040f874:	8c820000 	lw	v0,0(a0)
8040f878:	00a02021 	move	a0,a1
8040f87c:	00c02821 	move	a1,a2
8040f880:	8c590018 	lw	t9,24(v0)
8040f884:	03200008 	jr	t9
8040f888:	00e03021 	move	a2,a3

8040f88c <cmd_sw_value>:
8040f88c:	27bdffd8 	addiu	sp,sp,-40
8040f890:	afb40020 	sw	s4,32(sp)
8040f894:	afb3001c 	sw	s3,28(sp)
8040f898:	afb20018 	sw	s2,24(sp)
8040f89c:	afb10014 	sw	s1,20(sp)
8040f8a0:	afbf0024 	sw	ra,36(sp)
8040f8a4:	afb00010 	sw	s0,16(sp)
8040f8a8:	8c820104 	lw	v0,260(a0)
8040f8ac:	00809021 	move	s2,a0
8040f8b0:	00a09821 	move	s3,a1
8040f8b4:	00c0a021 	move	s4,a2
8040f8b8:	1840000f 	blez	v0,8040f8f8 <cmd_sw_value+0x6c>
8040f8bc:	00008821 	move	s1,zero
8040f8c0:	00808021 	move	s0,a0
8040f8c4:	8e05010c 	lw	a1,268(s0)
8040f8c8:	02602021 	move	a0,s3
8040f8cc:	0c1033c8 	jal	8040cf20 <lib_strcmp>
8040f8d0:	26310001 	addiu	s1,s1,1
8040f8d4:	14400004 	bnez	v0,8040f8e8 <cmd_sw_value+0x5c>
8040f8d8:	24030001 	li	v1,1
8040f8dc:	8e020110 	lw	v0,272(s0)
8040f8e0:	08103e3f 	j	8040f8fc <cmd_sw_value+0x70>
8040f8e4:	ae820000 	sw	v0,0(s4)
8040f8e8:	8e420104 	lw	v0,260(s2)
8040f8ec:	0222102a 	slt	v0,s1,v0
8040f8f0:	1440fff4 	bnez	v0,8040f8c4 <cmd_sw_value+0x38>
8040f8f4:	2610000c 	addiu	s0,s0,12
8040f8f8:	00001821 	move	v1,zero
8040f8fc:	8fbf0024 	lw	ra,36(sp)
8040f900:	8fb40020 	lw	s4,32(sp)
8040f904:	8fb3001c 	lw	s3,28(sp)
8040f908:	8fb20018 	lw	s2,24(sp)
8040f90c:	8fb10014 	lw	s1,20(sp)
8040f910:	8fb00010 	lw	s0,16(sp)
8040f914:	00601021 	move	v0,v1
8040f918:	03e00008 	jr	ra
8040f91c:	27bd0028 	addiu	sp,sp,40

8040f920 <cmd_sw_posn>:
8040f920:	27bdffd8 	addiu	sp,sp,-40
8040f924:	afb3001c 	sw	s3,28(sp)
8040f928:	afb20018 	sw	s2,24(sp)
8040f92c:	afb10014 	sw	s1,20(sp)
8040f930:	afbf0020 	sw	ra,32(sp)
8040f934:	afb00010 	sw	s0,16(sp)
8040f938:	8c820104 	lw	v0,260(a0)
8040f93c:	00809021 	move	s2,a0
8040f940:	00a09821 	move	s3,a1
8040f944:	1840000e 	blez	v0,8040f980 <cmd_sw_posn+0x60>
8040f948:	00008821 	move	s1,zero
8040f94c:	00808021 	move	s0,a0
8040f950:	8e05010c 	lw	a1,268(s0)
8040f954:	02602021 	move	a0,s3
8040f958:	0c1033c8 	jal	8040cf20 <lib_strcmp>
8040f95c:	26310001 	addiu	s1,s1,1
8040f960:	14400003 	bnez	v0,8040f970 <cmd_sw_posn+0x50>
8040f964:	00000000 	nop
8040f968:	08103e61 	j	8040f984 <cmd_sw_posn+0x64>
8040f96c:	8e020108 	lw	v0,264(s0)
8040f970:	8e420104 	lw	v0,260(s2)
8040f974:	0222102a 	slt	v0,s1,v0
8040f978:	1440fff5 	bnez	v0,8040f950 <cmd_sw_posn+0x30>
8040f97c:	2610000c 	addiu	s0,s0,12
8040f980:	2402ffff 	li	v0,-1
8040f984:	8fbf0020 	lw	ra,32(sp)
8040f988:	8fb3001c 	lw	s3,28(sp)
8040f98c:	8fb20018 	lw	s2,24(sp)
8040f990:	8fb10014 	lw	s1,20(sp)
8040f994:	8fb00010 	lw	s0,16(sp)
8040f998:	03e00008 	jr	ra
8040f99c:	27bd0028 	addiu	sp,sp,40

8040f9a0 <cmd_sw_name>:
8040f9a0:	04a00009 	bltz	a1,8040f9c8 <cmd_sw_name+0x28>
8040f9a4:	00003021 	move	a2,zero
8040f9a8:	8c830104 	lw	v1,260(a0)
8040f9ac:	00051040 	sll	v0,a1,0x1
8040f9b0:	00451021 	addu	v0,v0,a1
8040f9b4:	00021080 	sll	v0,v0,0x2
8040f9b8:	00a3182a 	slt	v1,a1,v1
8040f9bc:	10600002 	beqz	v1,8040f9c8 <cmd_sw_name+0x28>
8040f9c0:	00441021 	addu	v0,v0,a0
8040f9c4:	8c46010c 	lw	a2,268(v0)
8040f9c8:	03e00008 	jr	ra
8040f9cc:	00c01021 	move	v0,a2

8040f9d0 <cmd_sw_isset>:
8040f9d0:	27bdffd8 	addiu	sp,sp,-40
8040f9d4:	afb3001c 	sw	s3,28(sp)
8040f9d8:	afb20018 	sw	s2,24(sp)
8040f9dc:	afb10014 	sw	s1,20(sp)
8040f9e0:	afbf0020 	sw	ra,32(sp)
8040f9e4:	afb00010 	sw	s0,16(sp)
8040f9e8:	8c820104 	lw	v0,260(a0)
8040f9ec:	00809021 	move	s2,a0
8040f9f0:	00a09821 	move	s3,a1
8040f9f4:	1840000e 	blez	v0,8040fa30 <cmd_sw_isset+0x60>
8040f9f8:	00008821 	move	s1,zero
8040f9fc:	2490010c 	addiu	s0,a0,268
8040fa00:	8e050000 	lw	a1,0(s0)
8040fa04:	02602021 	move	a0,s3
8040fa08:	0c1033c8 	jal	8040cf20 <lib_strcmp>
8040fa0c:	26310001 	addiu	s1,s1,1
8040fa10:	14400003 	bnez	v0,8040fa20 <cmd_sw_isset+0x50>
8040fa14:	2610000c 	addiu	s0,s0,12
8040fa18:	08103e8d 	j	8040fa34 <cmd_sw_isset+0x64>
8040fa1c:	24020001 	li	v0,1
8040fa20:	8e420104 	lw	v0,260(s2)
8040fa24:	0222102a 	slt	v0,s1,v0
8040fa28:	1440fff5 	bnez	v0,8040fa00 <cmd_sw_isset+0x30>
8040fa2c:	00000000 	nop
8040fa30:	00001021 	move	v0,zero
8040fa34:	8fbf0020 	lw	ra,32(sp)
8040fa38:	8fb3001c 	lw	s3,28(sp)
8040fa3c:	8fb20018 	lw	s2,24(sp)
8040fa40:	8fb10014 	lw	s1,20(sp)
8040fa44:	8fb00010 	lw	s0,16(sp)
8040fa48:	03e00008 	jr	ra
8040fa4c:	27bd0028 	addiu	sp,sp,40

8040fa50 <cmd_getarg>:
8040fa50:	8c8201cc 	lw	v0,460(a0)
8040fa54:	00a22821 	addu	a1,a1,v0
8040fa58:	04a00007 	bltz	a1,8040fa78 <cmd_getarg+0x28>
8040fa5c:	00003021 	move	a2,zero
8040fa60:	8c820000 	lw	v0,0(a0)
8040fa64:	00051880 	sll	v1,a1,0x2
8040fa68:	00a2102a 	slt	v0,a1,v0
8040fa6c:	10400002 	beqz	v0,8040fa78 <cmd_getarg+0x28>
8040fa70:	00641821 	addu	v1,v1,a0
8040fa74:	8c660004 	lw	a2,4(v1)
8040fa78:	03e00008 	jr	ra
8040fa7c:	00c01021 	move	v0,a2

8040fa80 <cmd_free>:
8040fa80:	27bdffe0 	addiu	sp,sp,-32
8040fa84:	afb20018 	sw	s2,24(sp)
8040fa88:	afb10014 	sw	s1,20(sp)
8040fa8c:	afbf001c 	sw	ra,28(sp)
8040fa90:	afb00010 	sw	s0,16(sp)
8040fa94:	8c820000 	lw	v0,0(a0)
8040fa98:	00808821 	move	s1,a0
8040fa9c:	1840000b 	blez	v0,8040facc <cmd_free+0x4c>
8040faa0:	00009021 	move	s2,zero
8040faa4:	24900004 	addiu	s0,a0,4
8040faa8:	8e050000 	lw	a1,0(s0)
8040faac:	3c048042 	lui	a0,0x8042
8040fab0:	0c103031 	jal	8040c0c4 <kfree>
8040fab4:	24842bec 	addiu	a0,a0,11244
8040fab8:	8e220000 	lw	v0,0(s1)
8040fabc:	26520001 	addiu	s2,s2,1
8040fac0:	0242102a 	slt	v0,s2,v0
8040fac4:	1440fff8 	bnez	v0,8040faa8 <cmd_free+0x28>
8040fac8:	26100004 	addiu	s0,s0,4
8040facc:	8e220104 	lw	v0,260(s1)
8040fad0:	1840000b 	blez	v0,8040fb00 <cmd_free+0x80>
8040fad4:	00009021 	move	s2,zero
8040fad8:	2630010c 	addiu	s0,s1,268
8040fadc:	8e050000 	lw	a1,0(s0)
8040fae0:	3c048042 	lui	a0,0x8042
8040fae4:	0c103031 	jal	8040c0c4 <kfree>
8040fae8:	24842bec 	addiu	a0,a0,11244
8040faec:	8e220104 	lw	v0,260(s1)
8040faf0:	26520001 	addiu	s2,s2,1
8040faf4:	0242102a 	slt	v0,s2,v0
8040faf8:	1440fff8 	bnez	v0,8040fadc <cmd_free+0x5c>
8040fafc:	2610000c 	addiu	s0,s0,12
8040fb00:	ae200104 	sw	zero,260(s1)
8040fb04:	ae200000 	sw	zero,0(s1)
8040fb08:	8fbf001c 	lw	ra,28(sp)
8040fb0c:	8fb20018 	lw	s2,24(sp)
8040fb10:	8fb10014 	lw	s1,20(sp)
8040fb14:	8fb00010 	lw	s0,16(sp)
8040fb18:	03e00008 	jr	ra
8040fb1c:	27bd0020 	addiu	sp,sp,32

8040fb20 <cmd_sw_validate>:
8040fb20:	27bdffc8 	addiu	sp,sp,-56
8040fb24:	afb7002c 	sw	s7,44(sp)
8040fb28:	afb60028 	sw	s6,40(sp)
8040fb2c:	afbf0034 	sw	ra,52(sp)
8040fb30:	afbe0030 	sw	s8,48(sp)
8040fb34:	afb50024 	sw	s5,36(sp)
8040fb38:	afb40020 	sw	s4,32(sp)
8040fb3c:	afb3001c 	sw	s3,28(sp)
8040fb40:	afb20018 	sw	s2,24(sp)
8040fb44:	afb10014 	sw	s1,20(sp)
8040fb48:	afb00010 	sw	s0,16(sp)
8040fb4c:	8c820104 	lw	v0,260(a0)
8040fb50:	0080b021 	move	s6,a0
8040fb54:	00a0b821 	move	s7,a1
8040fb58:	1040004e 	beqz	v0,8040fc94 <cmd_sw_validate+0x174>
8040fb5c:	2403ffff 	li	v1,-1
8040fb60:	08103ee0 	j	8040fb80 <cmd_sw_validate+0x60>
8040fb64:	00000000 	nop
8040fb68:	3c048042 	lui	a0,0x8042
8040fb6c:	24842bec 	addiu	a0,a0,11244
8040fb70:	0c103031 	jal	8040c0c4 <kfree>
8040fb74:	02202821 	move	a1,s1
8040fb78:	08103f25 	j	8040fc94 <cmd_sw_validate+0x174>
8040fb7c:	02a01821 	move	v1,s5
8040fb80:	0c1061b9 	jal	804186e4 <lib_strdup>
8040fb84:	00a02021 	move	a0,a1
8040fb88:	00408821 	move	s1,v0
8040fb8c:	8ec20104 	lw	v0,260(s6)
8040fb90:	1840003b 	blez	v0,8040fc80 <cmd_sw_validate+0x160>
8040fb94:	0000a821 	move	s5,zero
8040fb98:	02c09021 	move	s2,s6
8040fb9c:	02208021 	move	s0,s1
8040fba0:	1220fff1 	beqz	s1,8040fb68 <cmd_sw_validate+0x48>
8040fba4:	0000a021 	move	s4,zero
8040fba8:	02002021 	move	a0,s0
8040fbac:	0c103424 	jal	8040d090 <lib_strchr>
8040fbb0:	2405007c 	li	a1,124
8040fbb4:	0000f021 	move	s8,zero
8040fbb8:	02002021 	move	a0,s0
8040fbbc:	2405003d 	li	a1,61
8040fbc0:	10400003 	beqz	v0,8040fbd0 <cmd_sw_validate+0xb0>
8040fbc4:	00009821 	move	s3,zero
8040fbc8:	24530001 	addiu	s3,v0,1
8040fbcc:	a0400000 	sb	zero,0(v0)
8040fbd0:	0c103424 	jal	8040d090 <lib_strchr>
8040fbd4:	00000000 	nop
8040fbd8:	02002021 	move	a0,s0
8040fbdc:	10400003 	beqz	v0,8040fbec <cmd_sw_validate+0xcc>
8040fbe0:	2405003b 	li	a1,59
8040fbe4:	08103eff 	j	8040fbfc <cmd_sw_validate+0xdc>
8040fbe8:	805e0001 	lb	s8,1(v0)
8040fbec:	0c103424 	jal	8040d090 <lib_strchr>
8040fbf0:	00000000 	nop
8040fbf4:	10400002 	beqz	v0,8040fc00 <cmd_sw_validate+0xe0>
8040fbf8:	00000000 	nop
8040fbfc:	a0400000 	sb	zero,0(v0)
8040fc00:	8e45010c 	lw	a1,268(s2)
8040fc04:	02002021 	move	a0,s0
8040fc08:	0c1033c8 	jal	8040cf20 <lib_strcmp>
8040fc0c:	02608021 	move	s0,s3
8040fc10:	02202021 	move	a0,s1
8040fc14:	1440000b 	bnez	v0,8040fc44 <cmd_sw_validate+0x124>
8040fc18:	02e02821 	move	a1,s7
8040fc1c:	17c00005 	bnez	s8,8040fc34 <cmd_sw_validate+0x114>
8040fc20:	8e420110 	lw	v0,272(s2)
8040fc24:	1440000d 	bnez	v0,8040fc5c <cmd_sw_validate+0x13c>
8040fc28:	00000000 	nop
8040fc2c:	08103f17 	j	8040fc5c <cmd_sw_validate+0x13c>
8040fc30:	24140001 	li	s4,1
8040fc34:	10400009 	beqz	v0,8040fc5c <cmd_sw_validate+0x13c>
8040fc38:	02202021 	move	a0,s1
8040fc3c:	08103f17 	j	8040fc5c <cmd_sw_validate+0x13c>
8040fc40:	24140001 	li	s4,1
8040fc44:	0c10338e 	jal	8040ce38 <lib_strcpy>
8040fc48:	00000000 	nop
8040fc4c:	1660ffd6 	bnez	s3,8040fba8 <cmd_sw_validate+0x88>
8040fc50:	3c048042 	lui	a0,0x8042
8040fc54:	08103edc 	j	8040fb70 <cmd_sw_validate+0x50>
8040fc58:	24842bec 	addiu	a0,a0,11244
8040fc5c:	0c10338e 	jal	8040ce38 <lib_strcpy>
8040fc60:	02e02821 	move	a1,s7
8040fc64:	1280ffc1 	beqz	s4,8040fb6c <cmd_sw_validate+0x4c>
8040fc68:	3c048042 	lui	a0,0x8042
8040fc6c:	8ec20104 	lw	v0,260(s6)
8040fc70:	26b50001 	addiu	s5,s5,1
8040fc74:	02a2102a 	slt	v0,s5,v0
8040fc78:	1440ffc8 	bnez	v0,8040fb9c <cmd_sw_validate+0x7c>
8040fc7c:	2652000c 	addiu	s2,s2,12
8040fc80:	3c048042 	lui	a0,0x8042
8040fc84:	24842bec 	addiu	a0,a0,11244
8040fc88:	0c103031 	jal	8040c0c4 <kfree>
8040fc8c:	02202821 	move	a1,s1
8040fc90:	2403ffff 	li	v1,-1
8040fc94:	8fbf0034 	lw	ra,52(sp)
8040fc98:	8fbe0030 	lw	s8,48(sp)
8040fc9c:	8fb7002c 	lw	s7,44(sp)
8040fca0:	8fb60028 	lw	s6,40(sp)
8040fca4:	8fb50024 	lw	s5,36(sp)
8040fca8:	8fb40020 	lw	s4,32(sp)
8040fcac:	8fb3001c 	lw	s3,28(sp)
8040fcb0:	8fb20018 	lw	s2,24(sp)
8040fcb4:	8fb10014 	lw	s1,20(sp)
8040fcb8:	8fb00010 	lw	s0,16(sp)
8040fcbc:	00601021 	move	v0,v1
8040fcc0:	03e00008 	jr	ra
8040fcc4:	27bd0038 	addiu	sp,sp,56

8040fcc8 <cmd_findword>:
8040fcc8:	27bdffe0 	addiu	sp,sp,-32
8040fccc:	afb10014 	sw	s1,20(sp)
8040fcd0:	afb00010 	sw	s0,16(sp)
8040fcd4:	afbf0018 	sw	ra,24(sp)
8040fcd8:	00808021 	move	s0,a0
8040fcdc:	00a08821 	move	s1,a1
8040fce0:	12000008 	beqz	s0,8040fd04 <cmd_findword+0x3c>
8040fce4:	00001021 	move	v0,zero
8040fce8:	8e050008 	lw	a1,8(s0)
8040fcec:	0c1033c8 	jal	8040cf20 <lib_strcmp>
8040fcf0:	02202021 	move	a0,s1
8040fcf4:	10400003 	beqz	v0,8040fd04 <cmd_findword+0x3c>
8040fcf8:	02001021 	move	v0,s0
8040fcfc:	08103f38 	j	8040fce0 <cmd_findword+0x18>
8040fd00:	8e100000 	lw	s0,0(s0)
8040fd04:	8fbf0018 	lw	ra,24(sp)
8040fd08:	8fb10014 	lw	s1,20(sp)
8040fd0c:	8fb00010 	lw	s0,16(sp)
8040fd10:	03e00008 	jr	ra
8040fd14:	27bd0020 	addiu	sp,sp,32

8040fd18 <cmd_build_cmdline>:
8040fd18:	27bdffd8 	addiu	sp,sp,-40
8040fd1c:	afb20018 	sw	s2,24(sp)
8040fd20:	00a09021 	move	s2,a1
8040fd24:	afb3001c 	sw	s3,28(sp)
8040fd28:	00002821 	move	a1,zero
8040fd2c:	00809821 	move	s3,a0
8040fd30:	240601dc 	li	a2,476
8040fd34:	02402021 	move	a0,s2
8040fd38:	afbf0020 	sw	ra,32(sp)
8040fd3c:	afb10014 	sw	s1,20(sp)
8040fd40:	0c103468 	jal	8040d1a0 <lib_memset>
8040fd44:	afb00010 	sw	s0,16(sp)
8040fd48:	0c10334d 	jal	8040cd34 <q_deqnext>
8040fd4c:	02602021 	move	a0,s3
8040fd50:	10400053 	beqz	v0,8040fea0 <cmd_build_cmdline+0x188>
8040fd54:	00408821 	move	s1,v0
8040fd58:	8f8480a0 	lw	a0,-32608(gp)
8040fd5c:	0c103424 	jal	8040d090 <lib_strchr>
8040fd60:	80450008 	lb	a1,8(v0)
8040fd64:	14400049 	bnez	v0,8040fe8c <cmd_build_cmdline+0x174>
8040fd68:	3c048042 	lui	a0,0x8042
8040fd6c:	82230008 	lb	v1,8(s1)
8040fd70:	2402002d 	li	v0,45
8040fd74:	1062000e 	beq	v1,v0,8040fdb0 <cmd_build_cmdline+0x98>
8040fd78:	00000000 	nop
8040fd7c:	8e500000 	lw	s0,0(s2)
8040fd80:	2a020040 	slti	v0,s0,64
8040fd84:	10400042 	beqz	v0,8040fe90 <cmd_build_cmdline+0x178>
8040fd88:	02202821 	move	a1,s1
8040fd8c:	0c1061b9 	jal	804186e4 <lib_strdup>
8040fd90:	26240008 	addiu	a0,s1,8
8040fd94:	8e430000 	lw	v1,0(s2)
8040fd98:	00108080 	sll	s0,s0,0x2
8040fd9c:	02128021 	addu	s0,s0,s2
8040fda0:	24630001 	addiu	v1,v1,1
8040fda4:	ae020004 	sw	v0,4(s0)
8040fda8:	08103fa2 	j	8040fe88 <cmd_build_cmdline+0x170>
8040fdac:	ae430000 	sw	v1,0(s2)
8040fdb0:	8e430104 	lw	v1,260(s2)
8040fdb4:	28620010 	slti	v0,v1,16
8040fdb8:	10400034 	beqz	v0,8040fe8c <cmd_build_cmdline+0x174>
8040fdbc:	3c048042 	lui	a0,0x8042
8040fdc0:	00038040 	sll	s0,v1,0x1
8040fdc4:	26240008 	addiu	a0,s1,8
8040fdc8:	0c1061b9 	jal	804186e4 <lib_strdup>
8040fdcc:	02038021 	addu	s0,s0,v1
8040fdd0:	8e230000 	lw	v1,0(s1)
8040fdd4:	00108080 	sll	s0,s0,0x2
8040fdd8:	02128021 	addu	s0,s0,s2
8040fddc:	10730020 	beq	v1,s3,8040fe60 <cmd_build_cmdline+0x148>
8040fde0:	ae02010c 	sw	v0,268(s0)
8040fde4:	80630008 	lb	v1,8(v1)
8040fde8:	2402003d 	li	v0,61
8040fdec:	14620016 	bne	v1,v0,8040fe48 <cmd_build_cmdline+0x130>
8040fdf0:	02202821 	move	a1,s1
8040fdf4:	3c108042 	lui	s0,0x8042
8040fdf8:	0c103031 	jal	8040c0c4 <kfree>
8040fdfc:	26042bec 	addiu	a0,s0,11244
8040fe00:	0c10334d 	jal	8040cd34 <q_deqnext>
8040fe04:	02602021 	move	a0,s3
8040fe08:	00402821 	move	a1,v0
8040fe0c:	0c103031 	jal	8040c0c4 <kfree>
8040fe10:	26042bec 	addiu	a0,s0,11244
8040fe14:	0c10334d 	jal	8040cd34 <q_deqnext>
8040fe18:	02602021 	move	a0,s3
8040fe1c:	10400010 	beqz	v0,8040fe60 <cmd_build_cmdline+0x148>
8040fe20:	00408821 	move	s1,v0
8040fe24:	8e420104 	lw	v0,260(s2)
8040fe28:	26240008 	addiu	a0,s1,8
8040fe2c:	00028040 	sll	s0,v0,0x1
8040fe30:	02028021 	addu	s0,s0,v0
8040fe34:	00108080 	sll	s0,s0,0x2
8040fe38:	0c1061b9 	jal	804186e4 <lib_strdup>
8040fe3c:	02128021 	addu	s0,s0,s2
8040fe40:	08103f98 	j	8040fe60 <cmd_build_cmdline+0x148>
8040fe44:	ae020110 	sw	v0,272(s0)
8040fe48:	8e430104 	lw	v1,260(s2)
8040fe4c:	00031040 	sll	v0,v1,0x1
8040fe50:	00431021 	addu	v0,v0,v1
8040fe54:	00021080 	sll	v0,v0,0x2
8040fe58:	00521021 	addu	v0,v0,s2
8040fe5c:	ac400110 	sw	zero,272(v0)
8040fe60:	8e430104 	lw	v1,260(s2)
8040fe64:	8e440000 	lw	a0,0(s2)
8040fe68:	00031040 	sll	v0,v1,0x1
8040fe6c:	00431021 	addu	v0,v0,v1
8040fe70:	00021080 	sll	v0,v0,0x2
8040fe74:	00521021 	addu	v0,v0,s2
8040fe78:	ac440108 	sw	a0,264(v0)
8040fe7c:	8e420104 	lw	v0,260(s2)
8040fe80:	24420001 	addiu	v0,v0,1
8040fe84:	ae420104 	sw	v0,260(s2)
8040fe88:	3c048042 	lui	a0,0x8042
8040fe8c:	02202821 	move	a1,s1
8040fe90:	0c103031 	jal	8040c0c4 <kfree>
8040fe94:	24842bec 	addiu	a0,a0,11244
8040fe98:	08103f52 	j	8040fd48 <cmd_build_cmdline+0x30>
8040fe9c:	00000000 	nop
8040fea0:	8fbf0020 	lw	ra,32(sp)
8040fea4:	8fb3001c 	lw	s3,28(sp)
8040fea8:	8fb20018 	lw	s2,24(sp)
8040feac:	8fb10014 	lw	s1,20(sp)
8040feb0:	8fb00010 	lw	s0,16(sp)
8040feb4:	03e00008 	jr	ra
8040feb8:	27bd0028 	addiu	sp,sp,40

8040febc <cmd_free_tokens>:
8040febc:	27bdffe8 	addiu	sp,sp,-24
8040fec0:	afb00010 	sw	s0,16(sp)
8040fec4:	afbf0014 	sw	ra,20(sp)
8040fec8:	08103fb6 	j	8040fed8 <cmd_free_tokens+0x1c>
8040fecc:	00808021 	move	s0,a0
8040fed0:	0c103031 	jal	8040c0c4 <kfree>
8040fed4:	00000000 	nop
8040fed8:	0c10334d 	jal	8040cd34 <q_deqnext>
8040fedc:	02002021 	move	a0,s0
8040fee0:	3c048042 	lui	a0,0x8042
8040fee4:	24842bec 	addiu	a0,a0,11244
8040fee8:	1440fff9 	bnez	v0,8040fed0 <cmd_free_tokens+0x14>
8040feec:	00402821 	move	a1,v0
8040fef0:	8fbf0014 	lw	ra,20(sp)
8040fef4:	8fb00010 	lw	s0,16(sp)
8040fef8:	03e00008 	jr	ra
8040fefc:	27bd0018 	addiu	sp,sp,24

8040ff00 <_dumpindented>:
8040ff00:	27bdffd8 	addiu	sp,sp,-40
8040ff04:	afb3001c 	sw	s3,28(sp)
8040ff08:	afb20018 	sw	s2,24(sp)
8040ff0c:	afb10014 	sw	s1,20(sp)
8040ff10:	afbf0020 	sw	ra,32(sp)
8040ff14:	afb00010 	sw	s0,16(sp)
8040ff18:	0c1061b9 	jal	804186e4 <lib_strdup>
8040ff1c:	00a09821 	move	s3,a1
8040ff20:	00409021 	move	s2,v0
8040ff24:	80420000 	lb	v0,0(v0)
8040ff28:	02408821 	move	s1,s2
8040ff2c:	1040001b 	beqz	v0,8040ff9c <_dumpindented+0x9c>
8040ff30:	3c048042 	lui	a0,0x8042
8040ff34:	1a600007 	blez	s3,8040ff54 <_dumpindented+0x54>
8040ff38:	3c048042 	lui	a0,0x8042
8040ff3c:	02608021 	move	s0,s3
8040ff40:	2610ffff 	addiu	s0,s0,-1
8040ff44:	0c10331a 	jal	8040cc68 <xprintf>
8040ff48:	2484c0f4 	addiu	a0,a0,-16140
8040ff4c:	1600fffc 	bnez	s0,8040ff40 <_dumpindented+0x40>
8040ff50:	3c048042 	lui	a0,0x8042
8040ff54:	02202021 	move	a0,s1
8040ff58:	0c103424 	jal	8040d090 <lib_strchr>
8040ff5c:	2405000a 	li	a1,10
8040ff60:	10400004 	beqz	v0,8040ff74 <_dumpindented+0x74>
8040ff64:	00000000 	nop
8040ff68:	a0400000 	sb	zero,0(v0)
8040ff6c:	08103fe0 	j	8040ff80 <_dumpindented+0x80>
8040ff70:	24420001 	addiu	v0,v0,1
8040ff74:	0c1033bf 	jal	8040cefc <lib_strlen>
8040ff78:	02202021 	move	a0,s1
8040ff7c:	02221021 	addu	v0,s1,v0
8040ff80:	3c048042 	lui	a0,0x8042
8040ff84:	02202821 	move	a1,s1
8040ff88:	2484c350 	addiu	a0,a0,-15536
8040ff8c:	0c10331a 	jal	8040cc68 <xprintf>
8040ff90:	00408821 	move	s1,v0
8040ff94:	08103fcb 	j	8040ff2c <_dumpindented+0x2c>
8040ff98:	82220000 	lb	v0,0(s1)
8040ff9c:	02402821 	move	a1,s2
8040ffa0:	8fbf0020 	lw	ra,32(sp)
8040ffa4:	8fb3001c 	lw	s3,28(sp)
8040ffa8:	8fb20018 	lw	s2,24(sp)
8040ffac:	8fb10014 	lw	s1,20(sp)
8040ffb0:	8fb00010 	lw	s0,16(sp)
8040ffb4:	24842bec 	addiu	a0,a0,11244
8040ffb8:	08103031 	j	8040c0c4 <kfree>
8040ffbc:	27bd0028 	addiu	sp,sp,40

8040ffc0 <_dumpswitches>:
8040ffc0:	27bdffd8 	addiu	sp,sp,-40
8040ffc4:	afb40020 	sw	s4,32(sp)
8040ffc8:	afb20018 	sw	s2,24(sp)
8040ffcc:	afbf0024 	sw	ra,36(sp)
8040ffd0:	afb3001c 	sw	s3,28(sp)
8040ffd4:	afb10014 	sw	s1,20(sp)
8040ffd8:	0c1061b9 	jal	804186e4 <lib_strdup>
8040ffdc:	afb00010 	sw	s0,16(sp)
8040ffe0:	0040a021 	move	s4,v0
8040ffe4:	80420000 	lb	v0,0(v0)
8040ffe8:	02809021 	move	s2,s4
8040ffec:	1040002f 	beqz	v0,804100ac <_dumpswitches+0xec>
8040fff0:	02402021 	move	a0,s2
8040fff4:	0c103424 	jal	8040d090 <lib_strchr>
8040fff8:	2405007c 	li	a1,124
8040fffc:	10400004 	beqz	v0,80410010 <_dumpswitches+0x50>
80410000:	02402021 	move	a0,s2
80410004:	24530001 	addiu	s3,v0,1
80410008:	08104007 	j	8041001c <_dumpswitches+0x5c>
8041000c:	a0400000 	sb	zero,0(v0)
80410010:	0c1033bf 	jal	8040cefc <lib_strlen>
80410014:	00000000 	nop
80410018:	02429821 	addu	s3,s2,v0
8041001c:	3c048042 	lui	a0,0x8042
80410020:	0c10331a 	jal	8040cc68 <xprintf>
80410024:	2484c0f0 	addiu	a0,a0,-16144
80410028:	02402021 	move	a0,s2
8041002c:	0c103424 	jal	8040d090 <lib_strchr>
80410030:	2405003b 	li	a1,59
80410034:	3c048042 	lui	a0,0x8042
80410038:	2405000a 	li	a1,10
8041003c:	10400016 	beqz	v0,80410098 <_dumpswitches+0xd8>
80410040:	2484c0f8 	addiu	a0,a0,-16136
80410044:	24510001 	addiu	s1,v0,1
80410048:	02202021 	move	a0,s1
8041004c:	0c103424 	jal	8040d090 <lib_strchr>
80410050:	a0400000 	sb	zero,0(v0)
80410054:	3c048042 	lui	a0,0x8042
80410058:	00408021 	move	s0,v0
8041005c:	02402821 	move	a1,s2
80410060:	2484c110 	addiu	a0,a0,-16112
80410064:	10400003 	beqz	v0,80410074 <_dumpswitches+0xb4>
80410068:	02203021 	move	a2,s1
8041006c:	a0400000 	sb	zero,0(v0)
80410070:	24500001 	addiu	s0,v0,1
80410074:	0c10331a 	jal	8040cc68 <xprintf>
80410078:	00000000 	nop
8041007c:	24050012 	li	a1,18
80410080:	12000007 	beqz	s0,804100a0 <_dumpswitches+0xe0>
80410084:	02002021 	move	a0,s0
80410088:	0c103fc0 	jal	8040ff00 <_dumpindented>
8041008c:	00000000 	nop
80410090:	08104029 	j	804100a4 <_dumpswitches+0xe4>
80410094:	82620000 	lb	v0,0(s3)
80410098:	0c10331a 	jal	8040cc68 <xprintf>
8041009c:	02402821 	move	a1,s2
804100a0:	82620000 	lb	v0,0(s3)
804100a4:	08103ffb 	j	8040ffec <_dumpswitches+0x2c>
804100a8:	02609021 	move	s2,s3
804100ac:	3c048042 	lui	a0,0x8042
804100b0:	02802821 	move	a1,s4
804100b4:	8fbf0024 	lw	ra,36(sp)
804100b8:	8fb40020 	lw	s4,32(sp)
804100bc:	8fb3001c 	lw	s3,28(sp)
804100c0:	8fb20018 	lw	s2,24(sp)
804100c4:	8fb10014 	lw	s1,20(sp)
804100c8:	8fb00010 	lw	s0,16(sp)
804100cc:	24842bec 	addiu	a0,a0,11244
804100d0:	08103031 	j	8040c0c4 <kfree>
804100d4:	27bd0028 	addiu	sp,sp,40

804100d8 <_dumpcmds>:
804100d8:	27bdffd0 	addiu	sp,sp,-48
804100dc:	afb60028 	sw	s6,40(sp)
804100e0:	afb50024 	sw	s5,36(sp)
804100e4:	afb40020 	sw	s4,32(sp)
804100e8:	afb20018 	sw	s2,24(sp)
804100ec:	afbf002c 	sw	ra,44(sp)
804100f0:	afb3001c 	sw	s3,28(sp)
804100f4:	afb10014 	sw	s1,20(sp)
804100f8:	afb00010 	sw	s0,16(sp)
804100fc:	00809021 	move	s2,a0
80410100:	00a0a021 	move	s4,a1
80410104:	00c0a821 	move	s5,a2
80410108:	00e0b021 	move	s6,a3
8041010c:	1240003e 	beqz	s2,80410208 <_dumpcmds+0x130>
80410110:	00141880 	sll	v1,s4,0x2
80410114:	8e420008 	lw	v0,8(s2)
80410118:	8e44000c 	lw	a0,12(s2)
8041011c:	00751821 	addu	v1,v1,s5
80410120:	ac620000 	sw	v0,0(v1)
80410124:	10800031 	beqz	a0,804101ec <_dumpcmds+0x114>
80410128:	00009821 	move	s3,zero
8041012c:	1a80000d 	blez	s4,80410164 <_dumpcmds+0x8c>
80410130:	02808021 	move	s0,s4
80410134:	02a08821 	move	s1,s5
80410138:	8e250000 	lw	a1,0(s1)
8041013c:	3c048042 	lui	a0,0x8042
80410140:	0c10331a 	jal	8040cc68 <xprintf>
80410144:	2484c11c 	addiu	a0,a0,-16100
80410148:	8e240000 	lw	a0,0(s1)
8041014c:	2610ffff 	addiu	s0,s0,-1
80410150:	0c1033bf 	jal	8040cefc <lib_strlen>
80410154:	26310004 	addiu	s1,s1,4
80410158:	02621021 	addu	v0,s3,v0
8041015c:	1600fff6 	bnez	s0,80410138 <_dumpcmds+0x60>
80410160:	24530001 	addiu	s3,v0,1
80410164:	8e450008 	lw	a1,8(s2)
80410168:	3c048042 	lui	a0,0x8042
8041016c:	0c10331a 	jal	8040cc68 <xprintf>
80410170:	2484b350 	addiu	a0,a0,-19632
80410174:	0c1033bf 	jal	8040cefc <lib_strlen>
80410178:	8e440008 	lw	a0,8(s2)
8041017c:	02628021 	addu	s0,s3,v0
80410180:	2a020014 	slti	v0,s0,20
80410184:	10400007 	beqz	v0,804101a4 <_dumpcmds+0xcc>
80410188:	00000000 	nop
8041018c:	3c048042 	lui	a0,0x8042
80410190:	2484c0f4 	addiu	a0,a0,-16140
80410194:	0c10331a 	jal	8040cc68 <xprintf>
80410198:	26100001 	addiu	s0,s0,1
8041019c:	08104061 	j	80410184 <_dumpcmds+0xac>
804101a0:	2a020014 	slti	v0,s0,20
804101a4:	8e450014 	lw	a1,20(s2)
804101a8:	3c048042 	lui	a0,0x8042
804101ac:	0c10331a 	jal	8040cc68 <xprintf>
804101b0:	2484c350 	addiu	a0,a0,-15536
804101b4:	12c0000d 	beqz	s6,804101ec <_dumpcmds+0x114>
804101b8:	00000000 	nop
804101bc:	3c108042 	lui	s0,0x8042
804101c0:	0c10331a 	jal	8040cc68 <xprintf>
804101c4:	2604a398 	addiu	a0,s0,-23656
804101c8:	8e440018 	lw	a0,24(s2)
804101cc:	0c103fc0 	jal	8040ff00 <_dumpindented>
804101d0:	24050005 	li	a1,5
804101d4:	0c10331a 	jal	8040cc68 <xprintf>
804101d8:	2604a398 	addiu	a0,s0,-23656
804101dc:	0c103ff0 	jal	8040ffc0 <_dumpswitches>
804101e0:	8e44001c 	lw	a0,28(s2)
804101e4:	0c10331a 	jal	8040cc68 <xprintf>
804101e8:	2604a398 	addiu	a0,s0,-23656
804101ec:	8e440004 	lw	a0,4(s2)
804101f0:	26850001 	addiu	a1,s4,1
804101f4:	02a03021 	move	a2,s5
804101f8:	0c104036 	jal	804100d8 <_dumpcmds>
804101fc:	02c03821 	move	a3,s6
80410200:	08104043 	j	8041010c <_dumpcmds+0x34>
80410204:	8e520000 	lw	s2,0(s2)
80410208:	8fbf002c 	lw	ra,44(sp)
8041020c:	8fb60028 	lw	s6,40(sp)
80410210:	8fb50024 	lw	s5,36(sp)
80410214:	8fb40020 	lw	s4,32(sp)
80410218:	8fb3001c 	lw	s3,28(sp)
8041021c:	8fb20018 	lw	s2,24(sp)
80410220:	8fb10014 	lw	s1,20(sp)
80410224:	8fb00010 	lw	s0,16(sp)
80410228:	03e00008 	jr	ra
8041022c:	27bd0030 	addiu	sp,sp,48

80410230 <_showpossible>:
80410230:	27bdffd8 	addiu	sp,sp,-40
80410234:	afb20018 	sw	s2,24(sp)
80410238:	afb10014 	sw	s1,20(sp)
8041023c:	afbf0020 	sw	ra,32(sp)
80410240:	afb3001c 	sw	s3,28(sp)
80410244:	afb00010 	sw	s0,16(sp)
80410248:	8c8201cc 	lw	v0,460(a0)
8041024c:	00808821 	move	s1,a0
80410250:	14400004 	bnez	v0,80410264 <_showpossible+0x34>
80410254:	00a09021 	move	s2,a1
80410258:	3c048042 	lui	a0,0x8042
8041025c:	081040b0 	j	804102c0 <_showpossible+0x90>
80410260:	2484c120 	addiu	a0,a0,-16096
80410264:	3c048042 	lui	a0,0x8042
80410268:	0c10331a 	jal	8040cc68 <xprintf>
8041026c:	2484c138 	addiu	a0,a0,-16072
80410270:	8e2201cc 	lw	v0,460(s1)
80410274:	18400010 	blez	v0,804102b8 <_showpossible+0x88>
80410278:	00009821 	move	s3,zero
8041027c:	26300004 	addiu	s0,s1,4
80410280:	3c028042 	lui	v0,0x8042
80410284:	12600003 	beqz	s3,80410294 <_showpossible+0x64>
80410288:	24459d54 	addiu	a1,v0,-25260
8041028c:	3c028042 	lui	v0,0x8042
80410290:	2445c0f4 	addiu	a1,v0,-16140
80410294:	8e060000 	lw	a2,0(s0)
80410298:	3c048042 	lui	a0,0x8042
8041029c:	0c10331a 	jal	8040cc68 <xprintf>
804102a0:	2484c144 	addiu	a0,a0,-16060
804102a4:	8e2201cc 	lw	v0,460(s1)
804102a8:	26730001 	addiu	s3,s3,1
804102ac:	0262102a 	slt	v0,s3,v0
804102b0:	1440fff3 	bnez	v0,80410280 <_showpossible+0x50>
804102b4:	26100004 	addiu	s0,s0,4
804102b8:	3c048042 	lui	a0,0x8042
804102bc:	2484c14c 	addiu	a0,a0,-16052
804102c0:	0c10331a 	jal	8040cc68 <xprintf>
804102c4:	00000000 	nop
804102c8:	1240000c 	beqz	s2,804102fc <_showpossible+0xcc>
804102cc:	3c048042 	lui	a0,0x8042
804102d0:	8e450008 	lw	a1,8(s2)
804102d4:	0c10331a 	jal	8040cc68 <xprintf>
804102d8:	2484b350 	addiu	a0,a0,-19632
804102dc:	8e420000 	lw	v0,0(s2)
804102e0:	3c048042 	lui	a0,0x8042
804102e4:	10400003 	beqz	v0,804102f4 <_showpossible+0xc4>
804102e8:	2484c15c 	addiu	a0,a0,-16036
804102ec:	0c10331a 	jal	8040cc68 <xprintf>
804102f0:	00000000 	nop
804102f4:	081040b2 	j	804102c8 <_showpossible+0x98>
804102f8:	8e520000 	lw	s2,0(s2)
804102fc:	3c048042 	lui	a0,0x8042
80410300:	8fbf0020 	lw	ra,32(sp)
80410304:	8fb3001c 	lw	s3,28(sp)
80410308:	8fb20018 	lw	s2,24(sp)
8041030c:	8fb10014 	lw	s1,20(sp)
80410310:	8fb00010 	lw	s0,16(sp)
80410314:	2484a398 	addiu	a0,a0,-23656
80410318:	0810331a 	j	8040cc68 <xprintf>
8041031c:	27bd0028 	addiu	sp,sp,40

80410320 <cmd_help>:
80410320:	27bdff88 	addiu	sp,sp,-120
80410324:	afb40070 	sw	s4,112(sp)
80410328:	afb3006c 	sw	s3,108(sp)
8041032c:	afbf0074 	sw	ra,116(sp)
80410330:	afb20068 	sw	s2,104(sp)
80410334:	afb10064 	sw	s1,100(sp)
80410338:	afb00060 	sw	s0,96(sp)
8041033c:	00a09821 	move	s3,a1
80410340:	14a0000f 	bnez	a1,80410380 <cmd_help+0x60>
80410344:	00c0a021 	move	s4,a2
80410348:	3c048042 	lui	a0,0x8042
8041034c:	0c10331a 	jal	8040cc68 <xprintf>
80410350:	2484c160 	addiu	a0,a0,-16032
80410354:	8f848140 	lw	a0,-32448(gp)
80410358:	00002821 	move	a1,zero
8041035c:	27a60010 	addiu	a2,sp,16
80410360:	0c104036 	jal	804100d8 <_dumpcmds>
80410364:	00003821 	move	a3,zero
80410368:	3c048042 	lui	a0,0x8042
8041036c:	0c10331a 	jal	8040cc68 <xprintf>
80410370:	2484a398 	addiu	a0,a0,-23656
80410374:	3c048042 	lui	a0,0x8042
80410378:	0810411c 	j	80410470 <cmd_help+0x150>
8041037c:	2484c178 	addiu	a0,a0,-16008
80410380:	00009021 	move	s2,zero
80410384:	27848140 	addiu	a0,gp,-32448
80410388:	00c08821 	move	s1,a2
8041038c:	8c840000 	lw	a0,0(a0)
80410390:	8e250000 	lw	a1,0(s1)
80410394:	0c103f32 	jal	8040fcc8 <cmd_findword>
80410398:	26310004 	addiu	s1,s1,4
8041039c:	00408021 	move	s0,v0
804103a0:	10400009 	beqz	v0,804103c8 <cmd_help+0xa8>
804103a4:	24440004 	addiu	a0,v0,4
804103a8:	8c43000c 	lw	v1,12(v0)
804103ac:	26520001 	addiu	s2,s2,1
804103b0:	14600016 	bnez	v1,8041040c <cmd_help+0xec>
804103b4:	0253102a 	slt	v0,s2,s3
804103b8:	1440fff4 	bnez	v0,8041038c <cmd_help+0x6c>
804103bc:	00000000 	nop
804103c0:	081040f6 	j	804103d8 <cmd_help+0xb8>
804103c4:	00000000 	nop
804103c8:	00121080 	sll	v0,s2,0x2
804103cc:	00541021 	addu	v0,v0,s4
804103d0:	081040fb 	j	804103ec <cmd_help+0xcc>
804103d4:	8c450000 	lw	a1,0(v0)
804103d8:	1460000c 	bnez	v1,8041040c <cmd_help+0xec>
804103dc:	0253102a 	slt	v0,s2,s3
804103e0:	1440000a 	bnez	v0,8041040c <cmd_help+0xec>
804103e4:	00000000 	nop
804103e8:	8e050008 	lw	a1,8(s0)
804103ec:	3c048042 	lui	a0,0x8042
804103f0:	0c10331a 	jal	8040cc68 <xprintf>
804103f4:	2484c1bc 	addiu	a0,a0,-15940
804103f8:	3c048042 	lui	a0,0x8042
804103fc:	0c10331a 	jal	8040cc68 <xprintf>
80410400:	2484c1dc 	addiu	a0,a0,-15908
80410404:	0810411f 	j	8041047c <cmd_help+0x15c>
80410408:	2402ffff 	li	v0,-1
8041040c:	3c048042 	lui	a0,0x8042
80410410:	0c10331a 	jal	8040cc68 <xprintf>
80410414:	2484c204 	addiu	a0,a0,-15868
80410418:	8e040014 	lw	a0,20(s0)
8041041c:	0c103fc0 	jal	8040ff00 <_dumpindented>
80410420:	24050005 	li	a1,5
80410424:	3c048042 	lui	a0,0x8042
80410428:	0c10331a 	jal	8040cc68 <xprintf>
8041042c:	2484c214 	addiu	a0,a0,-15852
80410430:	8e040018 	lw	a0,24(s0)
80410434:	0c103fc0 	jal	8040ff00 <_dumpindented>
80410438:	24050005 	li	a1,5
8041043c:	8e02001c 	lw	v0,28(s0)
80410440:	1040000a 	beqz	v0,8041046c <cmd_help+0x14c>
80410444:	3c048042 	lui	a0,0x8042
80410448:	80420000 	lb	v0,0(v0)
8041044c:	10400007 	beqz	v0,8041046c <cmd_help+0x14c>
80410450:	00000000 	nop
80410454:	3c048042 	lui	a0,0x8042
80410458:	0c10331a 	jal	8040cc68 <xprintf>
8041045c:	2484c220 	addiu	a0,a0,-15840
80410460:	0c103ff0 	jal	8040ffc0 <_dumpswitches>
80410464:	8e04001c 	lw	a0,28(s0)
80410468:	3c048042 	lui	a0,0x8042
8041046c:	2484a398 	addiu	a0,a0,-23656
80410470:	0c10331a 	jal	8040cc68 <xprintf>
80410474:	00000000 	nop
80410478:	00001021 	move	v0,zero
8041047c:	8fbf0074 	lw	ra,116(sp)
80410480:	8fb40070 	lw	s4,112(sp)
80410484:	8fb3006c 	lw	s3,108(sp)
80410488:	8fb20068 	lw	s2,104(sp)
8041048c:	8fb10064 	lw	s1,100(sp)
80410490:	8fb00060 	lw	s0,96(sp)
80410494:	03e00008 	jr	ra
80410498:	27bd0078 	addiu	sp,sp,120

8041049c <cmd_lookup>:
8041049c:	27bdffd8 	addiu	sp,sp,-40
804104a0:	afb10014 	sw	s1,20(sp)
804104a4:	00a08821 	move	s1,a1
804104a8:	afb00010 	sw	s0,16(sp)
804104ac:	00002821 	move	a1,zero
804104b0:	00808021 	move	s0,a0
804104b4:	240601dc 	li	a2,476
804104b8:	02202021 	move	a0,s1
804104bc:	afbf0020 	sw	ra,32(sp)
804104c0:	afb3001c 	sw	s3,28(sp)
804104c4:	0c103468 	jal	8040d1a0 <lib_memset>
804104c8:	afb20018 	sw	s2,24(sp)
804104cc:	02002021 	move	a0,s0
804104d0:	0c103f46 	jal	8040fd18 <cmd_build_cmdline>
804104d4:	02202821 	move	a1,s1
804104d8:	8e220000 	lw	v0,0(s1)
804104dc:	10400041 	beqz	v0,804105e4 <cmd_lookup+0x148>
804104e0:	2403fffd 	li	v1,-3
804104e4:	00009021 	move	s2,zero
804104e8:	27938140 	addiu	s3,gp,-32448
804104ec:	26300004 	addiu	s0,s1,4
804104f0:	8e640000 	lw	a0,0(s3)
804104f4:	8e050000 	lw	a1,0(s0)
804104f8:	0c103f32 	jal	8040fcc8 <cmd_findword>
804104fc:	26100004 	addiu	s0,s0,4
80410500:	10400009 	beqz	v0,80410528 <cmd_lookup+0x8c>
80410504:	00402021 	move	a0,v0
80410508:	8c42000c 	lw	v0,12(v0)
8041050c:	14400006 	bnez	v0,80410528 <cmd_lookup+0x8c>
80410510:	00000000 	nop
80410514:	8e220000 	lw	v0,0(s1)
80410518:	26520001 	addiu	s2,s2,1
8041051c:	0242102a 	slt	v0,s2,v0
80410520:	1440fff3 	bnez	v0,804104f0 <cmd_lookup+0x54>
80410524:	24930004 	addiu	s3,a0,4
80410528:	1480000f 	bnez	a0,80410568 <cmd_lookup+0xcc>
8041052c:	ae3201cc 	sw	s2,460(s1)
80410530:	00121080 	sll	v0,s2,0x2
80410534:	00511021 	addu	v0,v0,s1
80410538:	8c450004 	lw	a1,4(v0)
8041053c:	3c048042 	lui	a0,0x8042
80410540:	0c10331a 	jal	8040cc68 <xprintf>
80410544:	2484c230 	addiu	a0,a0,-15824
80410548:	8e650000 	lw	a1,0(s3)
8041054c:	0c10408c 	jal	80410230 <_showpossible>
80410550:	02202021 	move	a0,s1
80410554:	3c048042 	lui	a0,0x8042
80410558:	0c10331a 	jal	8040cc68 <xprintf>
8041055c:	2484a398 	addiu	a0,a0,-23656
80410560:	08104179 	j	804105e4 <cmd_lookup+0x148>
80410564:	2403ffff 	li	v1,-1
80410568:	8c85000c 	lw	a1,12(a0)
8041056c:	14a00012 	bnez	a1,804105b8 <cmd_lookup+0x11c>
80410570:	00000000 	nop
80410574:	8e220000 	lw	v0,0(s1)
80410578:	0242102a 	slt	v0,s2,v0
8041057c:	1440000e 	bnez	v0,804105b8 <cmd_lookup+0x11c>
80410580:	00121080 	sll	v0,s2,0x2
80410584:	00511021 	addu	v0,v0,s1
80410588:	8c450004 	lw	a1,4(v0)
8041058c:	3c048042 	lui	a0,0x8042
80410590:	0c10331a 	jal	8040cc68 <xprintf>
80410594:	2484c248 	addiu	a0,a0,-15800
80410598:	8e650000 	lw	a1,0(s3)
8041059c:	0c10408c 	jal	80410230 <_showpossible>
804105a0:	02202021 	move	a0,s1
804105a4:	3c048042 	lui	a0,0x8042
804105a8:	0c10331a 	jal	8040cc68 <xprintf>
804105ac:	2484a398 	addiu	a0,a0,-23656
804105b0:	08104179 	j	804105e4 <cmd_lookup+0x148>
804105b4:	2403fffe 	li	v1,-2
804105b8:	8c830010 	lw	v1,16(a0)
804105bc:	8e2201cc 	lw	v0,460(s1)
804105c0:	ae2501c8 	sw	a1,456(s1)
804105c4:	ae2301d0 	sw	v1,464(s1)
804105c8:	8c830018 	lw	v1,24(a0)
804105cc:	24420001 	addiu	v0,v0,1
804105d0:	ae2201cc 	sw	v0,460(s1)
804105d4:	ae2301d4 	sw	v1,468(s1)
804105d8:	8c82001c 	lw	v0,28(a0)
804105dc:	00001821 	move	v1,zero
804105e0:	ae2201d8 	sw	v0,472(s1)
804105e4:	8fbf0020 	lw	ra,32(sp)
804105e8:	8fb3001c 	lw	s3,28(sp)
804105ec:	8fb20018 	lw	s2,24(sp)
804105f0:	8fb10014 	lw	s1,20(sp)
804105f4:	8fb00010 	lw	s0,16(sp)
804105f8:	00601021 	move	v0,v1
804105fc:	03e00008 	jr	ra
80410600:	27bd0028 	addiu	sp,sp,40

80410604 <cmd_showusage>:
80410604:	27bdffe0 	addiu	sp,sp,-32
80410608:	afb10014 	sw	s1,20(sp)
8041060c:	3c118042 	lui	s1,0x8042
80410610:	afb00010 	sw	s0,16(sp)
80410614:	00808021 	move	s0,a0
80410618:	afbf0018 	sw	ra,24(sp)
8041061c:	0c10331a 	jal	8040cc68 <xprintf>
80410620:	2624a398 	addiu	a0,s1,-23656
80410624:	8e0401d4 	lw	a0,468(s0)
80410628:	0c103fc0 	jal	8040ff00 <_dumpindented>
8041062c:	24050005 	li	a1,5
80410630:	0c10331a 	jal	8040cc68 <xprintf>
80410634:	2624a398 	addiu	a0,s1,-23656
80410638:	8e0201d8 	lw	v0,472(s0)
8041063c:	00402021 	move	a0,v0
80410640:	80420000 	lb	v0,0(v0)
80410644:	10400009 	beqz	v0,8041066c <cmd_showusage+0x68>
80410648:	8fbf0018 	lw	ra,24(sp)
8041064c:	0c103ff0 	jal	8040ffc0 <_dumpswitches>
80410650:	00000000 	nop
80410654:	2624a398 	addiu	a0,s1,-23656
80410658:	8fbf0018 	lw	ra,24(sp)
8041065c:	8fb10014 	lw	s1,20(sp)
80410660:	8fb00010 	lw	s0,16(sp)
80410664:	0810331a 	j	8040cc68 <xprintf>
80410668:	27bd0020 	addiu	sp,sp,32
8041066c:	8fb10014 	lw	s1,20(sp)
80410670:	8fb00010 	lw	s0,16(sp)
80410674:	03e00008 	jr	ra
80410678:	27bd0020 	addiu	sp,sp,32

8041067c <make_token>:
8041067c:	27bdffe0 	addiu	sp,sp,-32
80410680:	afb20018 	sw	s2,24(sp)
80410684:	00809021 	move	s2,a0
80410688:	3c048042 	lui	a0,0x8042
8041068c:	afb10014 	sw	s1,20(sp)
80410690:	24842bec 	addiu	a0,a0,11244
80410694:	00a08821 	move	s1,a1
80410698:	00003021 	move	a2,zero
8041069c:	24a5000c 	addiu	a1,a1,12
804106a0:	afbf001c 	sw	ra,28(sp)
804106a4:	0c103064 	jal	8040c190 <kmalloc>
804106a8:	afb00010 	sw	s0,16(sp)
804106ac:	00408021 	move	s0,v0
804106b0:	02402821 	move	a1,s2
804106b4:	02203021 	move	a2,s1
804106b8:	24440008 	addiu	a0,v0,8
804106bc:	0c10345e 	jal	8040d178 <lib_memcpy>
804106c0:	02118821 	addu	s1,s0,s1
804106c4:	02001021 	move	v0,s0
804106c8:	a2200008 	sb	zero,8(s1)
804106cc:	8fbf001c 	lw	ra,28(sp)
804106d0:	8fb20018 	lw	s2,24(sp)
804106d4:	8fb10014 	lw	s1,20(sp)
804106d8:	8fb00010 	lw	s0,16(sp)
804106dc:	03e00008 	jr	ra
804106e0:	27bd0020 	addiu	sp,sp,32

804106e4 <cmd_build_list>:
804106e4:	27bdffd8 	addiu	sp,sp,-40
804106e8:	afb20018 	sw	s2,24(sp)
804106ec:	00809021 	move	s2,a0
804106f0:	afb3001c 	sw	s3,28(sp)
804106f4:	afb10014 	sw	s1,20(sp)
804106f8:	afb00010 	sw	s0,16(sp)
804106fc:	afbf0020 	sw	ra,32(sp)
80410700:	ae440004 	sw	a0,4(s2)
80410704:	ae440000 	sw	a0,0(s2)
80410708:	80a20000 	lb	v0,0(a1)
8041070c:	00a09821 	move	s3,a1
80410710:	00a08021 	move	s0,a1
80410714:	00a08821 	move	s1,a1
80410718:	10400035 	beqz	v0,804107f0 <cmd_build_list+0x10c>
8041071c:	24020026 	li	v0,38
80410720:	92050000 	lbu	a1,0(s0)
80410724:	00051e00 	sll	v1,a1,0x18
80410728:	00031e03 	sra	v1,v1,0x18
8041072c:	14620005 	bne	v1,v0,80410744 <cmd_build_list+0x60>
80410730:	2402007c 	li	v0,124
80410734:	82020001 	lb	v0,1(s0)
80410738:	1443002a 	bne	v0,v1,804107e4 <cmd_build_list+0x100>
8041073c:	00000000 	nop
80410740:	2402007c 	li	v0,124
80410744:	14620004 	bne	v1,v0,80410758 <cmd_build_list+0x74>
80410748:	24040020 	li	a0,32
8041074c:	82020001 	lb	v0,1(s0)
80410750:	14430024 	bne	v0,v1,804107e4 <cmd_build_list+0x100>
80410754:	00000000 	nop
80410758:	10640003 	beq	v1,a0,80410768 <cmd_build_list+0x84>
8041075c:	24020009 	li	v0,9
80410760:	14620007 	bne	v1,v0,80410780 <cmd_build_list+0x9c>
80410764:	00000000 	nop
80410768:	8203ffff 	lb	v1,-1(s0)
8041076c:	1064001d 	beq	v1,a0,804107e4 <cmd_build_list+0x100>
80410770:	00000000 	nop
80410774:	24020009 	li	v0,9
80410778:	1062001a 	beq	v1,v0,804107e4 <cmd_build_list+0x100>
8041077c:	00000000 	nop
80410780:	8f84809c 	lw	a0,-32612(gp)
80410784:	00052e00 	sll	a1,a1,0x18
80410788:	0c103424 	jal	8040d090 <lib_strchr>
8041078c:	00052e03 	sra	a1,a1,0x18
80410790:	10400005 	beqz	v0,804107a8 <cmd_build_list+0xc4>
80410794:	00000000 	nop
80410798:	12130012 	beq	s0,s3,804107e4 <cmd_build_list+0x100>
8041079c:	00000000 	nop
804107a0:	081041f3 	j	804107cc <cmd_build_list+0xe8>
804107a4:	02202021 	move	a0,s1
804107a8:	0270102b 	sltu	v0,s3,s0
804107ac:	1040000d 	beqz	v0,804107e4 <cmd_build_list+0x100>
804107b0:	00000000 	nop
804107b4:	8f84809c 	lw	a0,-32612(gp)
804107b8:	0c103424 	jal	8040d090 <lib_strchr>
804107bc:	8205ffff 	lb	a1,-1(s0)
804107c0:	10400008 	beqz	v0,804107e4 <cmd_build_list+0x100>
804107c4:	00000000 	nop
804107c8:	02202021 	move	a0,s1
804107cc:	0c10419f 	jal	8041067c <make_token>
804107d0:	02112823 	subu	a1,s0,s1
804107d4:	00402821 	move	a1,v0
804107d8:	0c103341 	jal	8040cd04 <q_enqueue>
804107dc:	02402021 	move	a0,s2
804107e0:	02008821 	move	s1,s0
804107e4:	26100001 	addiu	s0,s0,1
804107e8:	081041c6 	j	80410718 <cmd_build_list+0x34>
804107ec:	82020000 	lb	v0,0(s0)
804107f0:	02112823 	subu	a1,s0,s1
804107f4:	18a00007 	blez	a1,80410814 <cmd_build_list+0x130>
804107f8:	8fbf0020 	lw	ra,32(sp)
804107fc:	0c10419f 	jal	8041067c <make_token>
80410800:	02202021 	move	a0,s1
80410804:	00402821 	move	a1,v0
80410808:	0c103341 	jal	8040cd04 <q_enqueue>
8041080c:	02402021 	move	a0,s2
80410810:	8fbf0020 	lw	ra,32(sp)
80410814:	8fb3001c 	lw	s3,28(sp)
80410818:	8fb20018 	lw	s2,24(sp)
8041081c:	8fb10014 	lw	s1,20(sp)
80410820:	8fb00010 	lw	s0,16(sp)
80410824:	03e00008 	jr	ra
80410828:	27bd0028 	addiu	sp,sp,40

8041082c <cmd_addcmd>:
8041082c:	27bdffc0 	addiu	sp,sp,-64
80410830:	afb70034 	sw	s7,52(sp)
80410834:	00a0b821 	move	s7,a1
80410838:	00802821 	move	a1,a0
8041083c:	27a40010 	addiu	a0,sp,16
80410840:	afb60030 	sw	s6,48(sp)
80410844:	afb5002c 	sw	s5,44(sp)
80410848:	afb40028 	sw	s4,40(sp)
8041084c:	afb30024 	sw	s3,36(sp)
80410850:	afb1001c 	sw	s1,28(sp)
80410854:	afb00018 	sw	s0,24(sp)
80410858:	afbf0038 	sw	ra,56(sp)
8041085c:	afb20020 	sw	s2,32(sp)
80410860:	00c0a821 	move	s5,a2
80410864:	0c1041b9 	jal	804106e4 <cmd_build_list>
80410868:	00e0b021 	move	s6,a3
8041086c:	8fb10010 	lw	s1,16(sp)
80410870:	27b40010 	addiu	s4,sp,16
80410874:	27938140 	addiu	s3,gp,-32448
80410878:	00008021 	move	s0,zero
8041087c:	12340021 	beq	s1,s4,80410904 <cmd_addcmd+0xd8>
80410880:	8f8480a0 	lw	a0,-32608(gp)
80410884:	82250008 	lb	a1,8(s1)
80410888:	0c103424 	jal	8040d090 <lib_strchr>
8041088c:	26320008 	addiu	s2,s1,8
80410890:	1440001a 	bnez	v0,804108fc <cmd_addcmd+0xd0>
80410894:	02402821 	move	a1,s2
80410898:	0c103f32 	jal	8040fcc8 <cmd_findword>
8041089c:	8e640000 	lw	a0,0(s3)
804108a0:	00408021 	move	s0,v0
804108a4:	14400014 	bnez	v0,804108f8 <cmd_addcmd+0xcc>
804108a8:	02402021 	move	a0,s2
804108ac:	0c1033bf 	jal	8040cefc <lib_strlen>
804108b0:	00000000 	nop
804108b4:	3c048042 	lui	a0,0x8042
804108b8:	24842bec 	addiu	a0,a0,11244
804108bc:	24450021 	addiu	a1,v0,33
804108c0:	0c103064 	jal	8040c190 <kmalloc>
804108c4:	00003021 	move	a2,zero
804108c8:	00408021 	move	s0,v0
804108cc:	00402021 	move	a0,v0
804108d0:	00002821 	move	a1,zero
804108d4:	0c103468 	jal	8040d1a0 <lib_memset>
804108d8:	24060020 	li	a2,32
804108dc:	26040020 	addiu	a0,s0,32
804108e0:	ae040008 	sw	a0,8(s0)
804108e4:	0c10338e 	jal	8040ce38 <lib_strcpy>
804108e8:	02402821 	move	a1,s2
804108ec:	8e620000 	lw	v0,0(s3)
804108f0:	ae020000 	sw	v0,0(s0)
804108f4:	ae700000 	sw	s0,0(s3)
804108f8:	26130004 	addiu	s3,s0,4
804108fc:	0810421f 	j	8041087c <cmd_addcmd+0x50>
80410900:	8e310000 	lw	s1,0(s1)
80410904:	0c103faf 	jal	8040febc <cmd_free_tokens>
80410908:	27a40010 	addiu	a0,sp,16
8041090c:	12000009 	beqz	s0,80410934 <cmd_addcmd+0x108>
80410910:	2402ffff 	li	v0,-1
80410914:	8fa20054 	lw	v0,84(sp)
80410918:	ae17000c 	sw	s7,12(s0)
8041091c:	ae150010 	sw	s5,16(s0)
80410920:	ae02001c 	sw	v0,28(s0)
80410924:	8fa20050 	lw	v0,80(sp)
80410928:	ae160014 	sw	s6,20(s0)
8041092c:	ae020018 	sw	v0,24(s0)
80410930:	00001021 	move	v0,zero
80410934:	8fbf0038 	lw	ra,56(sp)
80410938:	8fb70034 	lw	s7,52(sp)
8041093c:	8fb60030 	lw	s6,48(sp)
80410940:	8fb5002c 	lw	s5,44(sp)
80410944:	8fb40028 	lw	s4,40(sp)
80410948:	8fb30024 	lw	s3,36(sp)
8041094c:	8fb20020 	lw	s2,32(sp)
80410950:	8fb1001c 	lw	s1,28(sp)
80410954:	8fb00018 	lw	s0,24(sp)
80410958:	03e00008 	jr	ra
8041095c:	27bd0040 	addiu	sp,sp,64

80410960 <cmd_init>:
80410960:	3c028042 	lui	v0,0x8042
80410964:	27bdffe0 	addiu	sp,sp,-32
80410968:	2442c264 	addiu	v0,v0,-15772
8041096c:	afa20010 	sw	v0,16(sp)
80410970:	3c048042 	lui	a0,0x8042
80410974:	3c058041 	lui	a1,0x8041
80410978:	3c078042 	lui	a3,0x8042
8041097c:	3c028042 	lui	v0,0x8042
80410980:	24429d54 	addiu	v0,v0,-25260
80410984:	2484c310 	addiu	a0,a0,-15600
80410988:	24a50320 	addiu	a1,a1,800
8041098c:	24e7c318 	addiu	a3,a3,-15592
80410990:	00003021 	move	a2,zero
80410994:	afbf0018 	sw	ra,24(sp)
80410998:	afa20014 	sw	v0,20(sp)
8041099c:	0c10420b 	jal	8041082c <cmd_addcmd>
804109a0:	af808140 	sw	zero,-32448(gp)
804109a4:	8fbf0018 	lw	ra,24(sp)
804109a8:	03e00008 	jr	ra
804109ac:	27bd0020 	addiu	sp,sp,32

804109b0 <cmd_append_tokens>:
804109b0:	27bdffe0 	addiu	sp,sp,-32
804109b4:	afb00018 	sw	s0,24(sp)
804109b8:	00808021 	move	s0,a0
804109bc:	afbf001c 	sw	ra,28(sp)
804109c0:	0c1041b9 	jal	804106e4 <cmd_build_list>
804109c4:	27a40010 	addiu	a0,sp,16
804109c8:	08104276 	j	804109d8 <cmd_append_tokens+0x28>
804109cc:	00000000 	nop
804109d0:	0c103341 	jal	8040cd04 <q_enqueue>
804109d4:	00000000 	nop
804109d8:	0c10334d 	jal	8040cd34 <q_deqnext>
804109dc:	27a40010 	addiu	a0,sp,16
804109e0:	00402821 	move	a1,v0
804109e4:	1440fffa 	bnez	v0,804109d0 <cmd_append_tokens+0x20>
804109e8:	02002021 	move	a0,s0
804109ec:	8fbf001c 	lw	ra,28(sp)
804109f0:	8fb00018 	lw	s0,24(sp)
804109f4:	03e00008 	jr	ra
804109f8:	27bd0020 	addiu	sp,sp,32

804109fc <cmd_squash_and_append>:
804109fc:	27bdffd0 	addiu	sp,sp,-48
80410a00:	afb50024 	sw	s5,36(sp)
80410a04:	afb20018 	sw	s2,24(sp)
80410a08:	afb10014 	sw	s1,20(sp)
80410a0c:	afbf0028 	sw	ra,40(sp)
80410a10:	afb40020 	sw	s4,32(sp)
80410a14:	afb3001c 	sw	s3,28(sp)
80410a18:	afb00010 	sw	s0,16(sp)
80410a1c:	8cb00000 	lw	s0,0(a1)
80410a20:	00a09021 	move	s2,a1
80410a24:	0080a821 	move	s5,a0
80410a28:	00008821 	move	s1,zero
80410a2c:	12120006 	beq	s0,s2,80410a48 <cmd_squash_and_append+0x4c>
80410a30:	3c148042 	lui	s4,0x8042
80410a34:	0c1033bf 	jal	8040cefc <lib_strlen>
80410a38:	26040008 	addiu	a0,s0,8
80410a3c:	8e100000 	lw	s0,0(s0)
80410a40:	0810428b 	j	80410a2c <cmd_squash_and_append+0x30>
80410a44:	02228821 	addu	s1,s1,v0
80410a48:	2625000c 	addiu	a1,s1,12
80410a4c:	26842bec 	addiu	a0,s4,11244
80410a50:	0c103064 	jal	8040c190 <kmalloc>
80410a54:	00003021 	move	a2,zero
80410a58:	00409821 	move	s3,v0
80410a5c:	081042a1 	j	80410a84 <cmd_squash_and_append+0x88>
80410a60:	24510008 	addiu	s1,v0,8
80410a64:	0c10338e 	jal	8040ce38 <lib_strcpy>
80410a68:	00000000 	nop
80410a6c:	0c1033bf 	jal	8040cefc <lib_strlen>
80410a70:	02202021 	move	a0,s1
80410a74:	02002821 	move	a1,s0
80410a78:	26842bec 	addiu	a0,s4,11244
80410a7c:	0c103031 	jal	8040c0c4 <kfree>
80410a80:	02228821 	addu	s1,s1,v0
80410a84:	0c10334d 	jal	8040cd34 <q_deqnext>
80410a88:	02402021 	move	a0,s2
80410a8c:	00408021 	move	s0,v0
80410a90:	02202021 	move	a0,s1
80410a94:	1440fff3 	bnez	v0,80410a64 <cmd_squash_and_append+0x68>
80410a98:	24450008 	addiu	a1,v0,8
80410a9c:	02a02021 	move	a0,s5
80410aa0:	02602821 	move	a1,s3
80410aa4:	8fbf0028 	lw	ra,40(sp)
80410aa8:	8fb50024 	lw	s5,36(sp)
80410aac:	8fb40020 	lw	s4,32(sp)
80410ab0:	8fb3001c 	lw	s3,28(sp)
80410ab4:	8fb20018 	lw	s2,24(sp)
80410ab8:	8fb10014 	lw	s1,20(sp)
80410abc:	8fb00010 	lw	s0,16(sp)
80410ac0:	08103341 	j	8040cd04 <q_enqueue>
80410ac4:	27bd0030 	addiu	sp,sp,48

80410ac8 <cmd_readcommand>:
80410ac8:	27bdffc0 	addiu	sp,sp,-64
80410acc:	afb50034 	sw	s5,52(sp)
80410ad0:	afb40030 	sw	s4,48(sp)
80410ad4:	afb3002c 	sw	s3,44(sp)
80410ad8:	afb10024 	sw	s1,36(sp)
80410adc:	afbf003c 	sw	ra,60(sp)
80410ae0:	afb60038 	sw	s6,56(sp)
80410ae4:	afb20028 	sw	s2,40(sp)
80410ae8:	afb00020 	sw	s0,32(sp)
80410aec:	8c820000 	lw	v0,0(a0)
80410af0:	00808821 	move	s1,a0
80410af4:	00009821 	move	s3,zero
80410af8:	0000a821 	move	s5,zero
80410afc:	0000a021 	move	s4,zero
80410b00:	1051000e 	beq	v0,s1,80410b3c <cmd_readcommand+0x74>
80410b04:	8f8480a0 	lw	a0,-32608(gp)
80410b08:	8e300000 	lw	s0,0(s1)
80410b0c:	0c103424 	jal	8040d090 <lib_strchr>
80410b10:	82050008 	lb	a1,8(s0)
80410b14:	10400009 	beqz	v0,80410b3c <cmd_readcommand+0x74>
80410b18:	02002021 	move	a0,s0
80410b1c:	0c103347 	jal	8040cd1c <q_dequeue>
80410b20:	00000000 	nop
80410b24:	3c048042 	lui	a0,0x8042
80410b28:	24842bec 	addiu	a0,a0,11244
80410b2c:	0c103031 	jal	8040c0c4 <kfree>
80410b30:	02002821 	move	a1,s0
80410b34:	081042c0 	j	80410b00 <cmd_readcommand+0x38>
80410b38:	8e220000 	lw	v0,0(s1)
80410b3c:	8e220000 	lw	v0,0(s1)
80410b40:	10510075 	beq	v0,s1,80410d18 <cmd_readcommand+0x250>
80410b44:	00001821 	move	v1,zero
80410b48:	081042d8 	j	80410b60 <cmd_readcommand+0x98>
80410b4c:	3c168042 	lui	s6,0x8042
80410b50:	08104304 	j	80410c10 <cmd_readcommand+0x148>
80410b54:	24140002 	li	s4,2
80410b58:	08104304 	j	80410c10 <cmd_readcommand+0x148>
80410b5c:	24140003 	li	s4,3
80410b60:	26c42bec 	addiu	a0,s6,11244
80410b64:	24050018 	li	a1,24
80410b68:	0c103064 	jal	8040c190 <kmalloc>
80410b6c:	00003021 	move	a2,zero
80410b70:	24500010 	addiu	s0,v0,16
80410b74:	00409021 	move	s2,v0
80410b78:	ac500014 	sw	s0,20(v0)
80410b7c:	08104300 	j	80410c00 <cmd_readcommand+0x138>
80410b80:	ac500010 	sw	s0,16(v0)
80410b84:	16600014 	bnez	s3,80410bd8 <cmd_readcommand+0x110>
80410b88:	24a30008 	addiu	v1,a1,8
80410b8c:	16a00012 	bnez	s5,80410bd8 <cmd_readcommand+0x110>
80410b90:	2402003b 	li	v0,59
80410b94:	80a40008 	lb	a0,8(a1)
80410b98:	10820003 	beq	a0,v0,80410ba8 <cmd_readcommand+0xe0>
80410b9c:	2402000a 	li	v0,10
80410ba0:	14820003 	bne	a0,v0,80410bb0 <cmd_readcommand+0xe8>
80410ba4:	24020026 	li	v0,38
80410ba8:	08104304 	j	80410c10 <cmd_readcommand+0x148>
80410bac:	24140001 	li	s4,1
80410bb0:	14820004 	bne	a0,v0,80410bc4 <cmd_readcommand+0xfc>
80410bb4:	2402007c 	li	v0,124
80410bb8:	80620001 	lb	v0,1(v1)
80410bbc:	1044ffe4 	beq	v0,a0,80410b50 <cmd_readcommand+0x88>
80410bc0:	2402007c 	li	v0,124
80410bc4:	14820004 	bne	a0,v0,80410bd8 <cmd_readcommand+0x110>
80410bc8:	00000000 	nop
80410bcc:	80620001 	lb	v0,1(v1)
80410bd0:	1044ffe1 	beq	v0,a0,80410b58 <cmd_readcommand+0x90>
80410bd4:	00000000 	nop
80410bd8:	80640000 	lb	a0,0(v1)
80410bdc:	2e630001 	sltiu	v1,s3,1
80410be0:	38820027 	xori	v0,a0,0x27
80410be4:	0062980a 	movz	s3,v1,v0
80410be8:	16600003 	bnez	s3,80410bf8 <cmd_readcommand+0x130>
80410bec:	38830022 	xori	v1,a0,0x22
80410bf0:	3aa20001 	xori	v0,s5,0x1
80410bf4:	0043a80a 	movz	s5,v0,v1
80410bf8:	0c103341 	jal	8040cd04 <q_enqueue>
80410bfc:	02002021 	move	a0,s0
80410c00:	0c10334d 	jal	8040cd34 <q_deqnext>
80410c04:	02202021 	move	a0,s1
80410c08:	1440ffde 	bnez	v0,80410b84 <cmd_readcommand+0xbc>
80410c0c:	00402821 	move	a1,v0
80410c10:	12800003 	beqz	s4,80410c20 <cmd_readcommand+0x158>
80410c14:	ae540008 	sw	s4,8(s2)
80410c18:	0c103031 	jal	8040c0c4 <kfree>
80410c1c:	26c42bec 	addiu	a0,s6,11244
80410c20:	27a20010 	addiu	v0,sp,16
80410c24:	27a30018 	addiu	v1,sp,24
80410c28:	afa20010 	sw	v0,16(sp)
80410c2c:	afa30018 	sw	v1,24(sp)
80410c30:	afa20014 	sw	v0,20(sp)
80410c34:	afa3001c 	sw	v1,28(sp)
80410c38:	26530010 	addiu	s3,s2,16
80410c3c:	00008021 	move	s0,zero
80410c40:	08104332 	j	80410cc8 <cmd_readcommand+0x200>
80410c44:	00008821 	move	s1,zero
80410c48:	80a30008 	lb	v1,8(a1)
80410c4c:	24020022 	li	v0,34
80410c50:	1062000a 	beq	v1,v0,80410c7c <cmd_readcommand+0x1b4>
80410c54:	24020027 	li	v0,39
80410c58:	14620014 	bne	v1,v0,80410cac <cmd_readcommand+0x1e4>
80410c5c:	3c048042 	lui	a0,0x8042
80410c60:	2e100001 	sltiu	s0,s0,1
80410c64:	0c103031 	jal	8040c0c4 <kfree>
80410c68:	24842bec 	addiu	a0,a0,11244
80410c6c:	16000016 	bnez	s0,80410cc8 <cmd_readcommand+0x200>
80410c70:	27a40010 	addiu	a0,sp,16
80410c74:	08104327 	j	80410c9c <cmd_readcommand+0x1d4>
80410c78:	00000000 	nop
80410c7c:	3c048042 	lui	a0,0x8042
80410c80:	0c103031 	jal	8040c0c4 <kfree>
80410c84:	24842bec 	addiu	a0,a0,11244
80410c88:	1600000f 	bnez	s0,80410cc8 <cmd_readcommand+0x200>
80410c8c:	00000000 	nop
80410c90:	2e310001 	sltiu	s1,s1,1
80410c94:	1620000c 	bnez	s1,80410cc8 <cmd_readcommand+0x200>
80410c98:	27a40010 	addiu	a0,sp,16
80410c9c:	0c10427f 	jal	804109fc <cmd_squash_and_append>
80410ca0:	27a50018 	addiu	a1,sp,24
80410ca4:	08104332 	j	80410cc8 <cmd_readcommand+0x200>
80410ca8:	00000000 	nop
80410cac:	16000003 	bnez	s0,80410cbc <cmd_readcommand+0x1f4>
80410cb0:	00000000 	nop
80410cb4:	12200002 	beqz	s1,80410cc0 <cmd_readcommand+0x1f8>
80410cb8:	27a40010 	addiu	a0,sp,16
80410cbc:	27a40018 	addiu	a0,sp,24
80410cc0:	0c103341 	jal	8040cd04 <q_enqueue>
80410cc4:	00000000 	nop
80410cc8:	0c10334d 	jal	8040cd34 <q_deqnext>
80410ccc:	02602021 	move	a0,s3
80410cd0:	1440ffdd 	bnez	v0,80410c48 <cmd_readcommand+0x180>
80410cd4:	00402821 	move	a1,v0
80410cd8:	8fa20018 	lw	v0,24(sp)
80410cdc:	27a50018 	addiu	a1,sp,24
80410ce0:	10450007 	beq	v0,a1,80410d00 <cmd_readcommand+0x238>
80410ce4:	00000000 	nop
80410ce8:	0c10427f 	jal	804109fc <cmd_squash_and_append>
80410cec:	27a40010 	addiu	a0,sp,16
80410cf0:	08104340 	j	80410d00 <cmd_readcommand+0x238>
80410cf4:	00000000 	nop
80410cf8:	0c103341 	jal	8040cd04 <q_enqueue>
80410cfc:	00000000 	nop
80410d00:	0c10334d 	jal	8040cd34 <q_deqnext>
80410d04:	27a40010 	addiu	a0,sp,16
80410d08:	00402821 	move	a1,v0
80410d0c:	1440fffa 	bnez	v0,80410cf8 <cmd_readcommand+0x230>
80410d10:	02602021 	move	a0,s3
80410d14:	02401821 	move	v1,s2
80410d18:	8fbf003c 	lw	ra,60(sp)
80410d1c:	8fb60038 	lw	s6,56(sp)
80410d20:	8fb50034 	lw	s5,52(sp)
80410d24:	8fb40030 	lw	s4,48(sp)
80410d28:	8fb3002c 	lw	s3,44(sp)
80410d2c:	8fb20028 	lw	s2,40(sp)
80410d30:	8fb10024 	lw	s1,36(sp)
80410d34:	8fb00020 	lw	s0,32(sp)
80410d38:	00601021 	move	v0,v1
80410d3c:	03e00008 	jr	ra
80410d40:	27bd0040 	addiu	sp,sp,64

80410d44 <cmd_walk_and_expand>:
80410d44:	27bdffd0 	addiu	sp,sp,-48
80410d48:	27a20010 	addiu	v0,sp,16
80410d4c:	afb30024 	sw	s3,36(sp)
80410d50:	afb20020 	sw	s2,32(sp)
80410d54:	afb1001c 	sw	s1,28(sp)
80410d58:	afbf0028 	sw	ra,40(sp)
80410d5c:	afb00018 	sw	s0,24(sp)
80410d60:	afa20010 	sw	v0,16(sp)
80410d64:	00809821 	move	s3,a0
80410d68:	afa20014 	sw	v0,20(sp)
80410d6c:	24110001 	li	s1,1
80410d70:	0810439f 	j	80410e7c <cmd_walk_and_expand+0x138>
80410d74:	00009021 	move	s2,zero
80410d78:	82050008 	lb	a1,8(s0)
80410d7c:	24020027 	li	v0,39
80410d80:	14a20004 	bne	a1,v0,80410d94 <cmd_walk_and_expand+0x50>
80410d84:	00000000 	nop
80410d88:	2e520001 	sltiu	s2,s2,1
80410d8c:	08104381 	j	80410e04 <cmd_walk_and_expand+0xc0>
80410d90:	00008821 	move	s1,zero
80410d94:	1640001b 	bnez	s2,80410e04 <cmd_walk_and_expand+0xc0>
80410d98:	00000000 	nop
80410d9c:	12200009 	beqz	s1,80410dc4 <cmd_walk_and_expand+0x80>
80410da0:	00000000 	nop
80410da4:	0c103424 	jal	8040d090 <lib_strchr>
80410da8:	8f84809c 	lw	a0,-32612(gp)
80410dac:	14400005 	bnez	v0,80410dc4 <cmd_walk_and_expand+0x80>
80410db0:	00000000 	nop
80410db4:	0c102174 	jal	804085d0 <env_getenv>
80410db8:	26040008 	addiu	a0,s0,8
80410dbc:	14400009 	bnez	v0,80410de4 <cmd_walk_and_expand+0xa0>
80410dc0:	00402821 	move	a1,v0
80410dc4:	82030008 	lb	v1,8(s0)
80410dc8:	24020024 	li	v0,36
80410dcc:	1462000d 	bne	v1,v0,80410e04 <cmd_walk_and_expand+0xc0>
80410dd0:	00000000 	nop
80410dd4:	0c102174 	jal	804085d0 <env_getenv>
80410dd8:	26040009 	addiu	a0,s0,9
80410ddc:	10400003 	beqz	v0,80410dec <cmd_walk_and_expand+0xa8>
80410de0:	00402821 	move	a1,v0
80410de4:	0c10426c 	jal	804109b0 <cmd_append_tokens>
80410de8:	27a40010 	addiu	a0,sp,16
80410dec:	3c048042 	lui	a0,0x8042
80410df0:	24842bec 	addiu	a0,a0,11244
80410df4:	0c103031 	jal	8040c0c4 <kfree>
80410df8:	02002821 	move	a1,s0
80410dfc:	0810439f 	j	80410e7c <cmd_walk_and_expand+0x138>
80410e00:	00000000 	nop
80410e04:	1200001d 	beqz	s0,80410e7c <cmd_walk_and_expand+0x138>
80410e08:	27a40010 	addiu	a0,sp,16
80410e0c:	0c103341 	jal	8040cd04 <q_enqueue>
80410e10:	02002821 	move	a1,s0
80410e14:	82030008 	lb	v1,8(s0)
80410e18:	2402003b 	li	v0,59
80410e1c:	26050008 	addiu	a1,s0,8
80410e20:	10620010 	beq	v1,v0,80410e64 <cmd_walk_and_expand+0x120>
80410e24:	00002021 	move	a0,zero
80410e28:	2862003c 	slti	v0,v1,60
80410e2c:	10400006 	beqz	v0,80410e48 <cmd_walk_and_expand+0x104>
80410e30:	2402007c 	li	v0,124
80410e34:	24020026 	li	v0,38
80410e38:	10620007 	beq	v1,v0,80410e58 <cmd_walk_and_expand+0x114>
80410e3c:	00808821 	move	s1,a0
80410e40:	0810439f 	j	80410e7c <cmd_walk_and_expand+0x138>
80410e44:	00000000 	nop
80410e48:	10620008 	beq	v1,v0,80410e6c <cmd_walk_and_expand+0x128>
80410e4c:	00808821 	move	s1,a0
80410e50:	0810439f 	j	80410e7c <cmd_walk_and_expand+0x138>
80410e54:	00000000 	nop
80410e58:	80a20001 	lb	v0,1(a1)
80410e5c:	14430007 	bne	v0,v1,80410e7c <cmd_walk_and_expand+0x138>
80410e60:	00000000 	nop
80410e64:	0810439e 	j	80410e78 <cmd_walk_and_expand+0x134>
80410e68:	24040001 	li	a0,1
80410e6c:	80a20001 	lb	v0,1(a1)
80410e70:	3842007c 	xori	v0,v0,0x7c
80410e74:	2c440001 	sltiu	a0,v0,1
80410e78:	00808821 	move	s1,a0
80410e7c:	0c10334d 	jal	8040cd34 <q_deqnext>
80410e80:	02602021 	move	a0,s3
80410e84:	1440ffbc 	bnez	v0,80410d78 <cmd_walk_and_expand+0x34>
80410e88:	00408021 	move	s0,v0
80410e8c:	081043a7 	j	80410e9c <cmd_walk_and_expand+0x158>
80410e90:	00000000 	nop
80410e94:	0c103341 	jal	8040cd04 <q_enqueue>
80410e98:	00000000 	nop
80410e9c:	0c10334d 	jal	8040cd34 <q_deqnext>
80410ea0:	27a40010 	addiu	a0,sp,16
80410ea4:	00402821 	move	a1,v0
80410ea8:	1440fffa 	bnez	v0,80410e94 <cmd_walk_and_expand+0x150>
80410eac:	02602021 	move	a0,s3
80410eb0:	8fbf0028 	lw	ra,40(sp)
80410eb4:	8fb30024 	lw	s3,36(sp)
80410eb8:	8fb20020 	lw	s2,32(sp)
80410ebc:	8fb1001c 	lw	s1,28(sp)
80410ec0:	8fb00018 	lw	s0,24(sp)
80410ec4:	03e00008 	jr	ra
80410ec8:	27bd0030 	addiu	sp,sp,48

80410ecc <dumplist>:
80410ecc:	27bdffe0 	addiu	sp,sp,-32
80410ed0:	afb10014 	sw	s1,20(sp)
80410ed4:	afbf0018 	sw	ra,24(sp)
80410ed8:	afb00010 	sw	s0,16(sp)
80410edc:	8c900000 	lw	s0,0(a0)
80410ee0:	00808821 	move	s1,a0
80410ee4:	12110006 	beq	s0,s1,80410f00 <dumplist+0x34>
80410ee8:	3c048042 	lui	a0,0x8042
80410eec:	26050008 	addiu	a1,s0,8
80410ef0:	0c10331a 	jal	8040cc68 <xprintf>
80410ef4:	2484c338 	addiu	a0,a0,-15560
80410ef8:	081043b9 	j	80410ee4 <dumplist+0x18>
80410efc:	8e100000 	lw	s0,0(s0)
80410f00:	3c048042 	lui	a0,0x8042
80410f04:	8fbf0018 	lw	ra,24(sp)
80410f08:	8fb10014 	lw	s1,20(sp)
80410f0c:	8fb00010 	lw	s0,16(sp)
80410f10:	2484a398 	addiu	a0,a0,-23656
80410f14:	0810331a 	j	8040cc68 <xprintf>
80410f18:	27bd0020 	addiu	sp,sp,32

80410f1c <ui_errstring>:
80410f1c:	081020ff 	j	804083fc <cfe_errortext>
80410f20:	00000000 	nop

80410f24 <ui_showerror>:
80410f24:	27bdffe8 	addiu	sp,sp,-24
80410f28:	afb00010 	sw	s0,16(sp)
80410f2c:	00808021 	move	s0,a0
80410f30:	00a02021 	move	a0,a1
80410f34:	27a50020 	addiu	a1,sp,32
80410f38:	afbf0014 	sw	ra,20(sp)
80410f3c:	afa60020 	sw	a2,32(sp)
80410f40:	0c10332f 	jal	8040ccbc <xvprintf>
80410f44:	afa70024 	sw	a3,36(sp)
80410f48:	0c1043c7 	jal	80410f1c <ui_errstring>
80410f4c:	02002021 	move	a0,s0
80410f50:	3c048042 	lui	a0,0x8042
80410f54:	2484a87c 	addiu	a0,a0,-22404
80410f58:	0c10331a 	jal	8040cc68 <xprintf>
80410f5c:	00402821 	move	a1,v0
80410f60:	02001021 	move	v0,s0
80410f64:	8fbf0014 	lw	ra,20(sp)
80410f68:	8fb00010 	lw	s0,16(sp)
80410f6c:	03e00008 	jr	ra
80410f70:	27bd0018 	addiu	sp,sp,24

80410f74 <ui_restart>:
80410f74:	2405ffff 	li	a1,-1
80410f78:	0084280b 	movn	a1,a0,a0
80410f7c:	3c048042 	lui	a0,0x8042
80410f80:	08103550 	j	8040d540 <lib_longjmp>
80410f84:	24841f40 	addiu	a0,a0,8000

80410f88 <ui_init_cmddisp>:
80410f88:	27bdffe8 	addiu	sp,sp,-24
80410f8c:	afbf0010 	sw	ra,16(sp)
80410f90:	0c104258 	jal	80410960 <cmd_init>
80410f94:	00000000 	nop
80410f98:	8fbf0010 	lw	ra,16(sp)
80410f9c:	00001021 	move	v0,zero
80410fa0:	03e00008 	jr	ra
80410fa4:	27bd0018 	addiu	sp,sp,24

80410fa8 <ui_showusage>:
80410fa8:	27bdffe8 	addiu	sp,sp,-24
80410fac:	afbf0010 	sw	ra,16(sp)
80410fb0:	0c104181 	jal	80410604 <cmd_showusage>
80410fb4:	00000000 	nop
80410fb8:	8fbf0010 	lw	ra,16(sp)
80410fbc:	2402fffe 	li	v0,-2
80410fc0:	03e00008 	jr	ra
80410fc4:	27bd0018 	addiu	sp,sp,24

80410fc8 <ui_docommands>:
80410fc8:	27bdfde8 	addiu	sp,sp,-536
80410fcc:	00802821 	move	a1,a0
80410fd0:	27a40010 	addiu	a0,sp,16
80410fd4:	afbf0210 	sw	ra,528(sp)
80410fd8:	afb3020c 	sw	s3,524(sp)
80410fdc:	afb20208 	sw	s2,520(sp)
80410fe0:	afb00200 	sw	s0,512(sp)
80410fe4:	afb10204 	sw	s1,516(sp)
80410fe8:	0c1041b9 	jal	804106e4 <cmd_build_list>
80410fec:	27b00018 	addiu	s0,sp,24
80410ff0:	0c104351 	jal	80410d44 <cmd_walk_and_expand>
80410ff4:	27a40010 	addiu	a0,sp,16
80410ff8:	27b30010 	addiu	s3,sp,16
80410ffc:	afb0001c 	sw	s0,28(sp)
80411000:	afb00018 	sw	s0,24(sp)
80411004:	08104405 	j	80411014 <ui_docommands+0x4c>
80411008:	2412fffd 	li	s2,-3
8041100c:	0c103341 	jal	8040cd04 <q_enqueue>
80411010:	00000000 	nop
80411014:	0c1042b2 	jal	80410ac8 <cmd_readcommand>
80411018:	02602021 	move	a0,s3
8041101c:	00402821 	move	a1,v0
80411020:	1440fffa 	bnez	v0,8041100c <ui_docommands+0x44>
80411024:	02002021 	move	a0,s0
80411028:	08104445 	j	80411114 <ui_docommands+0x14c>
8041102c:	27b30018 	addiu	s3,sp,24
80411030:	27b20020 	addiu	s2,sp,32
80411034:	26240010 	addiu	a0,s1,16
80411038:	0c104127 	jal	8041049c <cmd_lookup>
8041103c:	02402821 	move	a1,s2
80411040:	1440001f 	bnez	v0,804110c0 <ui_docommands+0xf8>
80411044:	00408021 	move	s0,v0
80411048:	8fa501f8 	lw	a1,504(sp)
8041104c:	0c103ec8 	jal	8040fb20 <cmd_sw_validate>
80411050:	02402021 	move	a0,s2
80411054:	00408021 	move	s0,v0
80411058:	2402ffff 	li	v0,-1
8041105c:	1202000a 	beq	s0,v0,80411088 <ui_docommands+0xc0>
80411060:	3c048042 	lui	a0,0x8042
80411064:	02402021 	move	a0,s2
80411068:	0c103e68 	jal	8040f9a0 <cmd_sw_name>
8041106c:	02002821 	move	a1,s0
80411070:	3c048042 	lui	a0,0x8042
80411074:	2484c340 	addiu	a0,a0,-15552
80411078:	0c10331a 	jal	8040cc68 <xprintf>
8041107c:	00402821 	move	a1,v0
80411080:	08104433 	j	804110cc <ui_docommands+0x104>
80411084:	2403fff8 	li	v1,-8
80411088:	0c103542 	jal	8040d508 <lib_setjmp>
8041108c:	24841f40 	addiu	a0,a0,8000
80411090:	1440000e 	bnez	v0,804110cc <ui_docommands+0x104>
80411094:	2403ffff 	li	v1,-1
80411098:	8fa201ec 	lw	v0,492(sp)
8041109c:	8fa50020 	lw	a1,32(sp)
804110a0:	02402021 	move	a0,s2
804110a4:	00023080 	sll	a2,v0,0x2
804110a8:	00a22823 	subu	a1,a1,v0
804110ac:	8fa201e8 	lw	v0,488(sp)
804110b0:	02463021 	addu	a2,s2,a2
804110b4:	0040f809 	jalr	v0
804110b8:	24c60004 	addiu	a2,a2,4
804110bc:	00408021 	move	s0,v0
804110c0:	0c103ea0 	jal	8040fa80 <cmd_free>
804110c4:	02402021 	move	a0,s2
804110c8:	02001821 	move	v1,s0
804110cc:	3c048042 	lui	a0,0x8042
804110d0:	24842bec 	addiu	a0,a0,11244
804110d4:	02202821 	move	a1,s1
804110d8:	00609021 	move	s2,v1
804110dc:	0c103031 	jal	8040c0c4 <kfree>
804110e0:	8e300008 	lw	s0,8(s1)
804110e4:	2402fffd 	li	v0,-3
804110e8:	12420009 	beq	s2,v0,80411110 <ui_docommands+0x148>
804110ec:	24020002 	li	v0,2
804110f0:	16020003 	bne	s0,v0,80411100 <ui_docommands+0x138>
804110f4:	24020003 	li	v0,3
804110f8:	16400012 	bnez	s2,80411144 <ui_docommands+0x17c>
804110fc:	00000000 	nop
80411100:	16020003 	bne	s0,v0,80411110 <ui_docommands+0x148>
80411104:	00000000 	nop
80411108:	1240000e 	beqz	s2,80411144 <ui_docommands+0x17c>
8041110c:	00000000 	nop
80411110:	27b30018 	addiu	s3,sp,24
80411114:	0c10334d 	jal	8040cd34 <q_deqnext>
80411118:	02602021 	move	a0,s3
8041111c:	1440ffc4 	bnez	v0,80411030 <ui_docommands+0x68>
80411120:	00408821 	move	s1,v0
80411124:	08104451 	j	80411144 <ui_docommands+0x17c>
80411128:	00000000 	nop
8041112c:	0c103faf 	jal	8040febc <cmd_free_tokens>
80411130:	00000000 	nop
80411134:	3c048042 	lui	a0,0x8042
80411138:	24842bec 	addiu	a0,a0,11244
8041113c:	0c103031 	jal	8040c0c4 <kfree>
80411140:	02202821 	move	a1,s1
80411144:	0c10334d 	jal	8040cd34 <q_deqnext>
80411148:	02602021 	move	a0,s3
8041114c:	00408821 	move	s1,v0
80411150:	1440fff6 	bnez	v0,8041112c <ui_docommands+0x164>
80411154:	24440010 	addiu	a0,v0,16
80411158:	0c103faf 	jal	8040febc <cmd_free_tokens>
8041115c:	27a40010 	addiu	a0,sp,16
80411160:	02401021 	move	v0,s2
80411164:	8fbf0210 	lw	ra,528(sp)
80411168:	8fb3020c 	lw	s3,524(sp)
8041116c:	8fb20208 	lw	s2,520(sp)
80411170:	8fb10204 	lw	s1,516(sp)
80411174:	8fb00200 	lw	s0,512(sp)
80411178:	03e00008 	jr	ra
8041117c:	27bd0218 	addiu	sp,sp,536

80411180 <_tftp_writemore>:
80411180:	27bdffe0 	addiu	sp,sp,-32
80411184:	afb10014 	sw	s1,20(sp)
80411188:	afbf001c 	sw	ra,28(sp)
8041118c:	afb20018 	sw	s2,24(sp)
80411190:	afb00010 	sw	s0,16(sp)
80411194:	8c820218 	lw	v0,536(a0)
80411198:	00808821 	move	s1,a0
8041119c:	14400078 	bnez	v0,80411380 <_tftp_writemore+0x200>
804111a0:	24030001 	li	v1,1
804111a4:	8c82021c 	lw	v0,540(a0)
804111a8:	14400075 	bnez	v0,80411380 <_tftp_writemore+0x200>
804111ac:	2403ffeb 	li	v1,-21
804111b0:	00009021 	move	s2,zero
804111b4:	0c104ddc 	jal	80413770 <udp_alloc>
804111b8:	00000000 	nop
804111bc:	00408021 	move	s0,v0
804111c0:	1040005c 	beqz	v0,80411334 <_tftp_writemore+0x1b4>
804111c4:	26250004 	addiu	a1,s1,4
804111c8:	8c440008 	lw	a0,8(v0)
804111cc:	8c420020 	lw	v0,32(v0)
804111d0:	00821021 	addu	v0,a0,v0
804111d4:	a0400000 	sb	zero,0(v0)
804111d8:	8e030020 	lw	v1,32(s0)
804111dc:	24840001 	addiu	a0,a0,1
804111e0:	24020003 	li	v0,3
804111e4:	00831821 	addu	v1,a0,v1
804111e8:	a0620000 	sb	v0,0(v1)
804111ec:	8e030020 	lw	v1,32(s0)
804111f0:	96220210 	lhu	v0,528(s1)
804111f4:	24870003 	addiu	a3,a0,3
804111f8:	00831821 	addu	v1,a0,v1
804111fc:	00021202 	srl	v0,v0,0x8
80411200:	a0620001 	sb	v0,1(v1)
80411204:	8e020020 	lw	v0,32(s0)
80411208:	96230210 	lhu	v1,528(s1)
8041120c:	00822021 	addu	a0,a0,v0
80411210:	a0830002 	sb	v1,2(a0)
80411214:	8e040020 	lw	a0,32(s0)
80411218:	ae070008 	sw	a3,8(s0)
8041121c:	8e260204 	lw	a2,516(s1)
80411220:	0c10345e 	jal	8040d178 <lib_memcpy>
80411224:	00872021 	addu	a0,a0,a3
80411228:	8e020008 	lw	v0,8(s0)
8041122c:	8e230204 	lw	v1,516(s1)
80411230:	02002821 	move	a1,s0
80411234:	26260212 	addiu	a2,s1,530
80411238:	00431021 	addu	v0,v0,v1
8041123c:	ae020008 	sw	v0,8(s0)
80411240:	0c104df9 	jal	804137e4 <udp_send>
80411244:	8e240000 	lw	a0,0(s1)
80411248:	8e240000 	lw	a0,0(s1)
8041124c:	0c104e1c 	jal	80413870 <udp_recv_with_timeout>
80411250:	24050001 	li	a1,1
80411254:	1040002d 	beqz	v0,8041130c <_tftp_writemore+0x18c>
80411258:	00408021 	move	s0,v0
8041125c:	8c460020 	lw	a2,32(v0)
80411260:	8c450008 	lw	a1,8(v0)
80411264:	00402021 	move	a0,v0
80411268:	24c30002 	addiu	v1,a2,2
8041126c:	24a2fffe 	addiu	v0,a1,-2
80411270:	ae020008 	sw	v0,8(s0)
80411274:	ae030020 	sw	v1,32(s0)
80411278:	9062fffe 	lbu	v0,-2(v1)
8041127c:	9063ffff 	lbu	v1,-1(v1)
80411280:	24c70004 	addiu	a3,a2,4
80411284:	00021200 	sll	v0,v0,0x8
80411288:	00431825 	or	v1,v0,v1
8041128c:	24020005 	li	v0,5
80411290:	1062002a 	beq	v1,v0,8041133c <_tftp_writemore+0x1bc>
80411294:	24a8fffc 	addiu	t0,a1,-4
80411298:	24020004 	li	v0,4
8041129c:	1462000b 	bne	v1,v0,804112cc <_tftp_writemore+0x14c>
804112a0:	00000000 	nop
804112a4:	ae080008 	sw	t0,8(s0)
804112a8:	ae070020 	sw	a3,32(s0)
804112ac:	90e2fffe 	lbu	v0,-2(a3)
804112b0:	90e3ffff 	lbu	v1,-1(a3)
804112b4:	96250210 	lhu	a1,528(s1)
804112b8:	00021200 	sll	v0,v0,0x8
804112bc:	00431025 	or	v0,v0,v1
804112c0:	30a3ffff 	andi	v1,a1,0xffff
804112c4:	10620005 	beq	v1,v0,804112dc <_tftp_writemore+0x15c>
804112c8:	02002021 	move	a0,s0
804112cc:	0c104de3 	jal	8041378c <udp_free>
804112d0:	26520001 	addiu	s2,s2,1
804112d4:	081044c5 	j	80411314 <_tftp_writemore+0x194>
804112d8:	2a420008 	slti	v0,s2,8
804112dc:	8e220204 	lw	v0,516(s1)
804112e0:	24a30001 	addiu	v1,a1,1
804112e4:	a6230210 	sh	v1,528(s1)
804112e8:	24030200 	li	v1,512
804112ec:	10430003 	beq	v0,v1,804112fc <_tftp_writemore+0x17c>
804112f0:	00000000 	nop
804112f4:	24020001 	li	v0,1
804112f8:	ae220218 	sw	v0,536(s1)
804112fc:	0c104de3 	jal	8041378c <udp_free>
80411300:	02002021 	move	a0,s0
80411304:	081044c7 	j	8041131c <_tftp_writemore+0x19c>
80411308:	24020008 	li	v0,8
8041130c:	26520001 	addiu	s2,s2,1
80411310:	2a420008 	slti	v0,s2,8
80411314:	1440ffa7 	bnez	v0,804111b4 <_tftp_writemore+0x34>
80411318:	24020008 	li	v0,8
8041131c:	16420018 	bne	s2,v0,80411380 <_tftp_writemore+0x200>
80411320:	00001821 	move	v1,zero
80411324:	24020001 	li	v0,1
80411328:	2403ffeb 	li	v1,-21
8041132c:	081044e0 	j	80411380 <_tftp_writemore+0x200>
80411330:	ae22021c 	sw	v0,540(s1)
80411334:	081044e0 	j	80411380 <_tftp_writemore+0x200>
80411338:	2403ffff 	li	v1,-1
8041133c:	24c60004 	addiu	a2,a2,4
80411340:	24a2fffc 	addiu	v0,a1,-4
80411344:	ae060020 	sw	a2,32(s0)
80411348:	ae020008 	sw	v0,8(s0)
8041134c:	90c5fffe 	lbu	a1,-2(a2)
80411350:	90c2ffff 	lbu	v0,-1(a2)
80411354:	3c048042 	lui	a0,0x8042
80411358:	00052a00 	sll	a1,a1,0x8
8041135c:	00a22825 	or	a1,a1,v0
80411360:	0c10331a 	jal	8040cc68 <xprintf>
80411364:	2484c354 	addiu	a0,a0,-15532
80411368:	24020001 	li	v0,1
8041136c:	ae220218 	sw	v0,536(s1)
80411370:	ae22021c 	sw	v0,540(s1)
80411374:	0c104de3 	jal	8041378c <udp_free>
80411378:	02002021 	move	a0,s0
8041137c:	2403fffc 	li	v1,-4
80411380:	8fbf001c 	lw	ra,28(sp)
80411384:	8fb20018 	lw	s2,24(sp)
80411388:	8fb10014 	lw	s1,20(sp)
8041138c:	8fb00010 	lw	s0,16(sp)
80411390:	00601021 	move	v0,v1
80411394:	03e00008 	jr	ra
80411398:	27bd0020 	addiu	sp,sp,32

8041139c <tftp_fileop_init>:
8041139c:	27bdffe8 	addiu	sp,sp,-24
804113a0:	afb00010 	sw	s0,16(sp)
804113a4:	00808021 	move	s0,a0
804113a8:	3c048042 	lui	a0,0x8042
804113ac:	24842bec 	addiu	a0,a0,11244
804113b0:	24050004 	li	a1,4
804113b4:	afbf0014 	sw	ra,20(sp)
804113b8:	0c103064 	jal	8040c190 <kmalloc>
804113bc:	00003021 	move	a2,zero
804113c0:	10400003 	beqz	v0,804113d0 <tftp_fileop_init+0x34>
804113c4:	2403fffb 	li	v1,-5
804113c8:	ae020000 	sw	v0,0(s0)
804113cc:	00001821 	move	v1,zero
804113d0:	8fbf0014 	lw	ra,20(sp)
804113d4:	8fb00010 	lw	s0,16(sp)
804113d8:	00601021 	move	v0,v1
804113dc:	03e00008 	jr	ra
804113e0:	27bd0018 	addiu	sp,sp,24

804113e4 <tftp_fileop_open>:
804113e4:	24e2ffff 	addiu	v0,a3,-1
804113e8:	27bdffc0 	addiu	sp,sp,-64
804113ec:	2c420002 	sltiu	v0,v0,2
804113f0:	afb70034 	sw	s7,52(sp)
804113f4:	afb1001c 	sw	s1,28(sp)
804113f8:	afb00018 	sw	s0,24(sp)
804113fc:	afbf0038 	sw	ra,56(sp)
80411400:	afb60030 	sw	s6,48(sp)
80411404:	afb5002c 	sw	s5,44(sp)
80411408:	afb40028 	sw	s4,40(sp)
8041140c:	afb30024 	sw	s3,36(sp)
80411410:	afb20020 	sw	s2,32(sp)
80411414:	00e08821 	move	s1,a3
80411418:	0080b821 	move	s7,a0
8041141c:	00c08021 	move	s0,a2
80411420:	104000d5 	beqz	v0,80411778 <tftp_fileop_open+0x394>
80411424:	2403ffed 	li	v1,-19
80411428:	3c168042 	lui	s6,0x8042
8041142c:	26c42bec 	addiu	a0,s6,11244
80411430:	24050228 	li	a1,552
80411434:	0c103064 	jal	8040c190 <kmalloc>
80411438:	00003021 	move	a2,zero
8041143c:	00409021 	move	s2,v0
80411440:	104000cd 	beqz	v0,80411778 <tftp_fileop_open+0x394>
80411444:	2403fffb 	li	v1,-5
80411448:	0c1061b9 	jal	804186e4 <lib_strdup>
8041144c:	02002021 	move	a0,s0
80411450:	14400006 	bnez	v0,8041146c <tftp_fileop_open+0x88>
80411454:	ae420224 	sw	v0,548(s2)
80411458:	26c42bec 	addiu	a0,s6,11244
8041145c:	0c103031 	jal	8040c0c4 <kfree>
80411460:	02402821 	move	a1,s2
80411464:	081045de 	j	80411778 <tftp_fileop_open+0x394>
80411468:	2403fffb 	li	v1,-5
8041146c:	00402021 	move	a0,v0
80411470:	27a50010 	addiu	a1,sp,16
80411474:	0c1061db 	jal	8041876c <lib_chop_filename>
80411478:	27a60014 	addiu	a2,sp,20
8041147c:	8fa40010 	lw	a0,16(sp)
80411480:	26550212 	addiu	s5,s2,530
80411484:	3c028042 	lui	v0,0x8042
80411488:	02a02821 	move	a1,s5
8041148c:	2454c370 	addiu	s4,v0,-15504
80411490:	0c104987 	jal	8041261c <dns_lookup>
80411494:	8fb00014 	lw	s0,20(sp)
80411498:	044000a9 	bltz	v0,80411740 <tftp_fileop_open+0x35c>
8041149c:	00000000 	nop
804114a0:	0c104dea 	jal	804137a8 <udp_socket>
804114a4:	24040045 	li	a0,69
804114a8:	ae420000 	sw	v0,0(s2)
804114ac:	ae510220 	sw	s1,544(s2)
804114b0:	ae400218 	sw	zero,536(s2)
804114b4:	ae40021c 	sw	zero,540(s2)
804114b8:	00009821 	move	s3,zero
804114bc:	0c104ddc 	jal	80413770 <udp_alloc>
804114c0:	00000000 	nop
804114c4:	10400040 	beqz	v0,804115c8 <tftp_fileop_open+0x1e4>
804114c8:	00408821 	move	s1,v0
804114cc:	8e440220 	lw	a0,544(s2)
804114d0:	8c450008 	lw	a1,8(v0)
804114d4:	8c430020 	lw	v1,32(v0)
804114d8:	24020001 	li	v0,1
804114dc:	14820009 	bne	a0,v0,80411504 <tftp_fileop_open+0x120>
804114e0:	00000000 	nop
804114e4:	00a31021 	addu	v0,a1,v1
804114e8:	a0400000 	sb	zero,0(v0)
804114ec:	8e220020 	lw	v0,32(s1)
804114f0:	24a30002 	addiu	v1,a1,2
804114f4:	00a21021 	addu	v0,a1,v0
804114f8:	a0440001 	sb	a0,1(v0)
804114fc:	08104549 	j	80411524 <tftp_fileop_open+0x140>
80411500:	ae230008 	sw	v1,8(s1)
80411504:	00a31021 	addu	v0,a1,v1
80411508:	a0400000 	sb	zero,0(v0)
8041150c:	8e220020 	lw	v0,32(s1)
80411510:	24a40002 	addiu	a0,a1,2
80411514:	24030002 	li	v1,2
80411518:	00a21021 	addu	v0,a1,v0
8041151c:	a0430001 	sb	v1,1(v0)
80411520:	ae240008 	sw	a0,8(s1)
80411524:	0c1033bf 	jal	8040cefc <lib_strlen>
80411528:	02002021 	move	a0,s0
8041152c:	8e230020 	lw	v1,32(s1)
80411530:	8e240008 	lw	a0,8(s1)
80411534:	24460001 	addiu	a2,v0,1
80411538:	02002821 	move	a1,s0
8041153c:	0c10345e 	jal	8040d178 <lib_memcpy>
80411540:	00642021 	addu	a0,v1,a0
80411544:	0c1033bf 	jal	8040cefc <lib_strlen>
80411548:	02002021 	move	a0,s0
8041154c:	8e230008 	lw	v1,8(s1)
80411550:	02802021 	move	a0,s4
80411554:	26730001 	addiu	s3,s3,1
80411558:	00621821 	addu	v1,v1,v0
8041155c:	24630001 	addiu	v1,v1,1
80411560:	0c1033bf 	jal	8040cefc <lib_strlen>
80411564:	ae230008 	sw	v1,8(s1)
80411568:	8e230020 	lw	v1,32(s1)
8041156c:	8e240008 	lw	a0,8(s1)
80411570:	24460001 	addiu	a2,v0,1
80411574:	02802821 	move	a1,s4
80411578:	0c10345e 	jal	8040d178 <lib_memcpy>
8041157c:	00642021 	addu	a0,v1,a0
80411580:	0c1033bf 	jal	8040cefc <lib_strlen>
80411584:	02802021 	move	a0,s4
80411588:	8e230008 	lw	v1,8(s1)
8041158c:	02202821 	move	a1,s1
80411590:	02a03021 	move	a2,s5
80411594:	00621821 	addu	v1,v1,v0
80411598:	24630001 	addiu	v1,v1,1
8041159c:	ae230008 	sw	v1,8(s1)
804115a0:	0c104df9 	jal	804137e4 <udp_send>
804115a4:	8e440000 	lw	a0,0(s2)
804115a8:	8e440000 	lw	a0,0(s2)
804115ac:	0c104e1c 	jal	80413870 <udp_recv_with_timeout>
804115b0:	24050001 	li	a1,1
804115b4:	00408821 	move	s1,v0
804115b8:	16200006 	bnez	s1,804115d4 <tftp_fileop_open+0x1f0>
804115bc:	2a620008 	slti	v0,s3,8
804115c0:	1440ffbe 	bnez	v0,804114bc <tftp_fileop_open+0xd8>
804115c4:	00000000 	nop
804115c8:	8e440000 	lw	a0,0(s2)
804115cc:	081045a0 	j	80411680 <tftp_fileop_open+0x29c>
804115d0:	2410ffeb 	li	s0,-21
804115d4:	8e260020 	lw	a2,32(s1)
804115d8:	8e240008 	lw	a0,8(s1)
804115dc:	24c30002 	addiu	v1,a2,2
804115e0:	2482fffe 	addiu	v0,a0,-2
804115e4:	ae220008 	sw	v0,8(s1)
804115e8:	ae230020 	sw	v1,32(s1)
804115ec:	9062fffe 	lbu	v0,-2(v1)
804115f0:	9063ffff 	lbu	v1,-1(v1)
804115f4:	00021200 	sll	v0,v0,0x8
804115f8:	00431825 	or	v1,v0,v1
804115fc:	24020004 	li	v0,4
80411600:	1062000c 	beq	v1,v0,80411634 <tftp_fileop_open+0x250>
80411604:	28620005 	slti	v0,v1,5
80411608:	10400006 	beqz	v0,80411624 <tftp_fileop_open+0x240>
8041160c:	24020005 	li	v0,5
80411610:	24020003 	li	v0,3
80411614:	1062002b 	beq	v1,v0,804116c4 <tftp_fileop_open+0x2e0>
80411618:	24c30004 	addiu	v1,a2,4
8041161c:	0810459c 	j	80411670 <tftp_fileop_open+0x28c>
80411620:	00000000 	nop
80411624:	1062001b 	beq	v1,v0,80411694 <tftp_fileop_open+0x2b0>
80411628:	24c60004 	addiu	a2,a2,4
8041162c:	0810459c 	j	80411670 <tftp_fileop_open+0x28c>
80411630:	00000000 	nop
80411634:	8e430220 	lw	v1,544(s2)
80411638:	24020002 	li	v0,2
8041163c:	1462000c 	bne	v1,v0,80411670 <tftp_fileop_open+0x28c>
80411640:	00000000 	nop
80411644:	8e440000 	lw	a0,0(s2)
80411648:	9625001a 	lhu	a1,26(s1)
8041164c:	0c104e0c 	jal	80413830 <udp_connect>
80411650:	00008021 	move	s0,zero
80411654:	24020001 	li	v0,1
80411658:	a6420210 	sh	v0,528(s2)
8041165c:	ae400204 	sw	zero,516(s2)
80411660:	0c104de3 	jal	8041378c <udp_free>
80411664:	02202021 	move	a0,s1
80411668:	081045d3 	j	8041174c <tftp_fileop_open+0x368>
8041166c:	aef20000 	sw	s2,0(s7)
80411670:	0c104de3 	jal	8041378c <udp_free>
80411674:	02202021 	move	a0,s1
80411678:	8e440000 	lw	a0,0(s2)
8041167c:	2410ffea 	li	s0,-22
80411680:	0c104df2 	jal	804137c8 <udp_close>
80411684:	00000000 	nop
80411688:	2402ffff 	li	v0,-1
8041168c:	081045d6 	j	80411758 <tftp_fileop_open+0x374>
80411690:	ae420000 	sw	v0,0(s2)
80411694:	2482fffc 	addiu	v0,a0,-4
80411698:	ae220008 	sw	v0,8(s1)
8041169c:	ae260020 	sw	a2,32(s1)
804116a0:	90c5fffe 	lbu	a1,-2(a2)
804116a4:	90c2ffff 	lbu	v0,-1(a2)
804116a8:	3c048042 	lui	a0,0x8042
804116ac:	00052a00 	sll	a1,a1,0x8
804116b0:	00a22825 	or	a1,a1,v0
804116b4:	0c10331a 	jal	8040cc68 <xprintf>
804116b8:	2484c378 	addiu	a0,a0,-15496
804116bc:	0810459c 	j	80411670 <tftp_fileop_open+0x28c>
804116c0:	00000000 	nop
804116c4:	2482fffc 	addiu	v0,a0,-4
804116c8:	ae230020 	sw	v1,32(s1)
804116cc:	ae220008 	sw	v0,8(s1)
804116d0:	9070fffe 	lbu	s0,-2(v1)
804116d4:	9062ffff 	lbu	v0,-1(v1)
804116d8:	8e440000 	lw	a0,0(s2)
804116dc:	9625001a 	lhu	a1,26(s1)
804116e0:	00108200 	sll	s0,s0,0x8
804116e4:	0c104e0c 	jal	80413830 <udp_connect>
804116e8:	02028025 	or	s0,s0,v0
804116ec:	8e220008 	lw	v0,8(s1)
804116f0:	8e250020 	lw	a1,32(s1)
804116f4:	26440004 	addiu	a0,s2,4
804116f8:	ae420204 	sw	v0,516(s2)
804116fc:	8e260008 	lw	a2,8(s1)
80411700:	0c10345e 	jal	8040d178 <lib_memcpy>
80411704:	a6500210 	sh	s0,528(s2)
80411708:	8e220020 	lw	v0,32(s1)
8041170c:	8e230008 	lw	v1,8(s1)
80411710:	02202021 	move	a0,s1
80411714:	ae200008 	sw	zero,8(s1)
80411718:	00431021 	addu	v0,v0,v1
8041171c:	0c104de3 	jal	8041378c <udp_free>
80411720:	ae220020 	sw	v0,32(s1)
80411724:	8e420204 	lw	v0,516(s2)
80411728:	28420200 	slti	v0,v0,512
8041172c:	10400002 	beqz	v0,80411738 <tftp_fileop_open+0x354>
80411730:	24020001 	li	v0,1
80411734:	ae420218 	sw	v0,536(s2)
80411738:	081045d2 	j	80411748 <tftp_fileop_open+0x364>
8041173c:	00008021 	move	s0,zero
80411740:	081045d6 	j	80411758 <tftp_fileop_open+0x374>
80411744:	00408021 	move	s0,v0
80411748:	aef20000 	sw	s2,0(s7)
8041174c:	ae400208 	sw	zero,520(s2)
80411750:	081045dd 	j	80411774 <tftp_fileop_open+0x390>
80411754:	ae40020c 	sw	zero,524(s2)
80411758:	8e450224 	lw	a1,548(s2)
8041175c:	0c103031 	jal	8040c0c4 <kfree>
80411760:	26c42bec 	addiu	a0,s6,11244
80411764:	26c42bec 	addiu	a0,s6,11244
80411768:	0c103031 	jal	8040c0c4 <kfree>
8041176c:	02402821 	move	a1,s2
80411770:	aee00000 	sw	zero,0(s7)
80411774:	02001821 	move	v1,s0
80411778:	8fbf0038 	lw	ra,56(sp)
8041177c:	8fb70034 	lw	s7,52(sp)
80411780:	8fb60030 	lw	s6,48(sp)
80411784:	8fb5002c 	lw	s5,44(sp)
80411788:	8fb40028 	lw	s4,40(sp)
8041178c:	8fb30024 	lw	s3,36(sp)
80411790:	8fb20020 	lw	s2,32(sp)
80411794:	8fb1001c 	lw	s1,28(sp)
80411798:	8fb00018 	lw	s0,24(sp)
8041179c:	00601021 	move	v0,v1
804117a0:	03e00008 	jr	ra
804117a4:	27bd0040 	addiu	sp,sp,64

804117a8 <tftp_fileop_read>:
804117a8:	27bdffd0 	addiu	sp,sp,-48
804117ac:	afb50024 	sw	s5,36(sp)
804117b0:	afb3001c 	sw	s3,28(sp)
804117b4:	afb20018 	sw	s2,24(sp)
804117b8:	afb10014 	sw	s1,20(sp)
804117bc:	afbf0028 	sw	ra,40(sp)
804117c0:	afb40020 	sw	s4,32(sp)
804117c4:	afb00010 	sw	s0,16(sp)
804117c8:	8c82021c 	lw	v0,540(a0)
804117cc:	00808821 	move	s1,a0
804117d0:	00a09821 	move	s3,a1
804117d4:	00c09021 	move	s2,a2
804117d8:	0000a821 	move	s5,zero
804117dc:	14400084 	bnez	v0,804119f0 <tftp_fileop_read+0x248>
804117e0:	2404fffc 	li	a0,-4
804117e4:	8e230220 	lw	v1,544(s1)
804117e8:	24020002 	li	v0,2
804117ec:	10620080 	beq	v1,v0,804119f0 <tftp_fileop_read+0x248>
804117f0:	2404ffed 	li	a0,-19
804117f4:	1240007e 	beqz	s2,804119f0 <tftp_fileop_read+0x248>
804117f8:	02a02021 	move	a0,s5
804117fc:	8e240208 	lw	a0,520(s1)
80411800:	8e230204 	lw	v1,516(s1)
80411804:	0083102a 	slt	v0,a0,v1
80411808:	10400078 	beqz	v0,804119ec <tftp_fileop_read+0x244>
8041180c:	00641823 	subu	v1,v1,a0
80411810:	0072102a 	slt	v0,v1,s2
80411814:	00608021 	move	s0,v1
80411818:	12600007 	beqz	s3,80411838 <tftp_fileop_read+0x90>
8041181c:	0242800a 	movz	s0,s2,v0
80411820:	02242821 	addu	a1,s1,a0
80411824:	24a50004 	addiu	a1,a1,4
80411828:	02602021 	move	a0,s3
8041182c:	0c10345e 	jal	8040d178 <lib_memcpy>
80411830:	02003021 	move	a2,s0
80411834:	02709821 	addu	s3,s3,s0
80411838:	8e220208 	lw	v0,520(s1)
8041183c:	8e23020c 	lw	v1,524(s1)
80411840:	8e240204 	lw	a0,516(s1)
80411844:	00501021 	addu	v0,v0,s0
80411848:	00701821 	addu	v1,v1,s0
8041184c:	0044202a 	slt	a0,v0,a0
80411850:	ae23020c 	sw	v1,524(s1)
80411854:	02b0a821 	addu	s5,s5,s0
80411858:	ae220208 	sw	v0,520(s1)
8041185c:	1480ffe5 	bnez	a0,804117f4 <tftp_fileop_read+0x4c>
80411860:	02509023 	subu	s2,s2,s0
80411864:	8e220218 	lw	v0,536(s1)
80411868:	14400061 	bnez	v0,804119f0 <tftp_fileop_read+0x248>
8041186c:	02a02021 	move	a0,s5
80411870:	8e22021c 	lw	v0,540(s1)
80411874:	1440005e 	bnez	v0,804119f0 <tftp_fileop_read+0x248>
80411878:	0000a021 	move	s4,zero
8041187c:	0c104ddc 	jal	80413770 <udp_alloc>
80411880:	00000000 	nop
80411884:	00408021 	move	s0,v0
80411888:	00402821 	move	a1,v0
8041188c:	10400057 	beqz	v0,804119ec <tftp_fileop_read+0x244>
80411890:	26260212 	addiu	a2,s1,530
80411894:	8c440008 	lw	a0,8(v0)
80411898:	8c420020 	lw	v0,32(v0)
8041189c:	00821021 	addu	v0,a0,v0
804118a0:	a0400000 	sb	zero,0(v0)
804118a4:	8e030020 	lw	v1,32(s0)
804118a8:	24840001 	addiu	a0,a0,1
804118ac:	24020004 	li	v0,4
804118b0:	00831821 	addu	v1,a0,v1
804118b4:	a0620000 	sb	v0,0(v1)
804118b8:	8e030020 	lw	v1,32(s0)
804118bc:	96220210 	lhu	v0,528(s1)
804118c0:	24870003 	addiu	a3,a0,3
804118c4:	00831821 	addu	v1,a0,v1
804118c8:	00021202 	srl	v0,v0,0x8
804118cc:	a0620001 	sb	v0,1(v1)
804118d0:	8e020020 	lw	v0,32(s0)
804118d4:	96230210 	lhu	v1,528(s1)
804118d8:	00822021 	addu	a0,a0,v0
804118dc:	a0830002 	sb	v1,2(a0)
804118e0:	ae070008 	sw	a3,8(s0)
804118e4:	0c104df9 	jal	804137e4 <udp_send>
804118e8:	8e240000 	lw	a0,0(s1)
804118ec:	8e240000 	lw	a0,0(s1)
804118f0:	0c104e1c 	jal	80413870 <udp_recv_with_timeout>
804118f4:	24050001 	li	a1,1
804118f8:	1040002d 	beqz	v0,804119b0 <tftp_fileop_read+0x208>
804118fc:	00408021 	move	s0,v0
80411900:	8c430020 	lw	v1,32(v0)
80411904:	8c420008 	lw	v0,8(v0)
80411908:	24670004 	addiu	a3,v1,4
8041190c:	2446fffc 	addiu	a2,v0,-4
80411910:	24630002 	addiu	v1,v1,2
80411914:	2442fffe 	addiu	v0,v0,-2
80411918:	ae020008 	sw	v0,8(s0)
8041191c:	ae030020 	sw	v1,32(s0)
80411920:	9062fffe 	lbu	v0,-2(v1)
80411924:	9063ffff 	lbu	v1,-1(v1)
80411928:	00021200 	sll	v0,v0,0x8
8041192c:	00431025 	or	v0,v0,v1
80411930:	24030003 	li	v1,3
80411934:	1443000b 	bne	v0,v1,80411964 <tftp_fileop_read+0x1bc>
80411938:	02002021 	move	a0,s0
8041193c:	ae070020 	sw	a3,32(s0)
80411940:	ae060008 	sw	a2,8(s0)
80411944:	90e2fffe 	lbu	v0,-2(a3)
80411948:	90e5ffff 	lbu	a1,-1(a3)
8041194c:	96230210 	lhu	v1,528(s1)
80411950:	00021200 	sll	v0,v0,0x8
80411954:	00451025 	or	v0,v0,a1
80411958:	24630001 	addiu	v1,v1,1
8041195c:	10430005 	beq	v0,v1,80411974 <tftp_fileop_read+0x1cc>
80411960:	00000000 	nop
80411964:	0c104de3 	jal	8041378c <udp_free>
80411968:	26940001 	addiu	s4,s4,1
8041196c:	0810466e 	j	804119b8 <tftp_fileop_read+0x210>
80411970:	2a820008 	slti	v0,s4,8
80411974:	ae260204 	sw	a2,516(s1)
80411978:	8e060008 	lw	a2,8(s0)
8041197c:	26240004 	addiu	a0,s1,4
80411980:	a6220210 	sh	v0,528(s1)
80411984:	0c10345e 	jal	8040d178 <lib_memcpy>
80411988:	00e02821 	move	a1,a3
8041198c:	8e020020 	lw	v0,32(s0)
80411990:	8e030008 	lw	v1,8(s0)
80411994:	02002021 	move	a0,s0
80411998:	ae000008 	sw	zero,8(s0)
8041199c:	00431021 	addu	v0,v0,v1
804119a0:	0c104de3 	jal	8041378c <udp_free>
804119a4:	ae020020 	sw	v0,32(s0)
804119a8:	08104670 	j	804119c0 <tftp_fileop_read+0x218>
804119ac:	24020008 	li	v0,8
804119b0:	26940001 	addiu	s4,s4,1
804119b4:	2a820008 	slti	v0,s4,8
804119b8:	1440ffb0 	bnez	v0,8041187c <tftp_fileop_read+0xd4>
804119bc:	24020008 	li	v0,8
804119c0:	16820003 	bne	s4,v0,804119d0 <tftp_fileop_read+0x228>
804119c4:	24020001 	li	v0,1
804119c8:	0810467b 	j	804119ec <tftp_fileop_read+0x244>
804119cc:	ae22021c 	sw	v0,540(s1)
804119d0:	8e220204 	lw	v0,516(s1)
804119d4:	28420200 	slti	v0,v0,512
804119d8:	10400002 	beqz	v0,804119e4 <tftp_fileop_read+0x23c>
804119dc:	24020001 	li	v0,1
804119e0:	ae220218 	sw	v0,536(s1)
804119e4:	081045fd 	j	804117f4 <tftp_fileop_read+0x4c>
804119e8:	ae200208 	sw	zero,520(s1)
804119ec:	02a02021 	move	a0,s5
804119f0:	8fbf0028 	lw	ra,40(sp)
804119f4:	8fb50024 	lw	s5,36(sp)
804119f8:	8fb40020 	lw	s4,32(sp)
804119fc:	8fb3001c 	lw	s3,28(sp)
80411a00:	8fb20018 	lw	s2,24(sp)
80411a04:	8fb10014 	lw	s1,20(sp)
80411a08:	8fb00010 	lw	s0,16(sp)
80411a0c:	00801021 	move	v0,a0
80411a10:	03e00008 	jr	ra
80411a14:	27bd0030 	addiu	sp,sp,48

80411a18 <tftp_fileop_write>:
80411a18:	27bdffd0 	addiu	sp,sp,-48
80411a1c:	afb50024 	sw	s5,36(sp)
80411a20:	afb40020 	sw	s4,32(sp)
80411a24:	afb3001c 	sw	s3,28(sp)
80411a28:	afb20018 	sw	s2,24(sp)
80411a2c:	afbf0028 	sw	ra,40(sp)
80411a30:	afb10014 	sw	s1,20(sp)
80411a34:	afb00010 	sw	s0,16(sp)
80411a38:	8c82021c 	lw	v0,540(a0)
80411a3c:	00809021 	move	s2,a0
80411a40:	00a0a021 	move	s4,a1
80411a44:	00c09821 	move	s3,a2
80411a48:	0000a821 	move	s5,zero
80411a4c:	14400023 	bnez	v0,80411adc <tftp_fileop_write+0xc4>
80411a50:	2404fffc 	li	a0,-4
80411a54:	8e430220 	lw	v1,544(s2)
80411a58:	24020001 	li	v0,1
80411a5c:	1062001f 	beq	v1,v0,80411adc <tftp_fileop_write+0xc4>
80411a60:	2404ffed 	li	a0,-19
80411a64:	1260001c 	beqz	s3,80411ad8 <tftp_fileop_write+0xc0>
80411a68:	24110200 	li	s1,512
80411a6c:	8e440204 	lw	a0,516(s2)
80411a70:	02802821 	move	a1,s4
80411a74:	02241023 	subu	v0,s1,a0
80411a78:	00408021 	move	s0,v0
80411a7c:	0053102a 	slt	v0,v0,s3
80411a80:	0262800a 	movz	s0,s3,v0
80411a84:	02442021 	addu	a0,s2,a0
80411a88:	24840004 	addiu	a0,a0,4
80411a8c:	0c10345e 	jal	8040d178 <lib_memcpy>
80411a90:	02003021 	move	a2,s0
80411a94:	8e430204 	lw	v1,516(s2)
80411a98:	8e42020c 	lw	v0,524(s2)
80411a9c:	02402021 	move	a0,s2
80411aa0:	00701821 	addu	v1,v1,s0
80411aa4:	00501021 	addu	v0,v0,s0
80411aa8:	ae42020c 	sw	v0,524(s2)
80411aac:	02b0a821 	addu	s5,s5,s0
80411ab0:	ae430204 	sw	v1,516(s2)
80411ab4:	02709823 	subu	s3,s3,s0
80411ab8:	1471ffea 	bne	v1,s1,80411a64 <tftp_fileop_write+0x4c>
80411abc:	0290a021 	addu	s4,s4,s0
80411ac0:	0c104460 	jal	80411180 <_tftp_writemore>
80411ac4:	00000000 	nop
80411ac8:	14400004 	bnez	v0,80411adc <tftp_fileop_write+0xc4>
80411acc:	02a02021 	move	a0,s5
80411ad0:	08104699 	j	80411a64 <tftp_fileop_write+0x4c>
80411ad4:	ae400204 	sw	zero,516(s2)
80411ad8:	02a02021 	move	a0,s5
80411adc:	8fbf0028 	lw	ra,40(sp)
80411ae0:	8fb50024 	lw	s5,36(sp)
80411ae4:	8fb40020 	lw	s4,32(sp)
80411ae8:	8fb3001c 	lw	s3,28(sp)
80411aec:	8fb20018 	lw	s2,24(sp)
80411af0:	8fb10014 	lw	s1,20(sp)
80411af4:	8fb00010 	lw	s0,16(sp)
80411af8:	00801021 	move	v0,a0
80411afc:	03e00008 	jr	ra
80411b00:	27bd0030 	addiu	sp,sp,48

80411b04 <tftp_fileop_seek>:
80411b04:	27bdffe8 	addiu	sp,sp,-24
80411b08:	afb00010 	sw	s0,16(sp)
80411b0c:	afbf0014 	sw	ra,20(sp)
80411b10:	8c830220 	lw	v1,544(a0)
80411b14:	24020002 	li	v0,2
80411b18:	00808021 	move	s0,a0
80411b1c:	00a03821 	move	a3,a1
80411b20:	10620016 	beq	v1,v0,80411b7c <tftp_fileop_seek+0x78>
80411b24:	2404ffed 	li	a0,-19
80411b28:	10c00005 	beqz	a2,80411b40 <tftp_fileop_seek+0x3c>
80411b2c:	24020001 	li	v0,1
80411b30:	10c20004 	beq	a2,v0,80411b44 <tftp_fileop_seek+0x40>
80411b34:	00002821 	move	a1,zero
80411b38:	081046d2 	j	80411b48 <tftp_fileop_seek+0x44>
80411b3c:	00e53023 	subu	a2,a3,a1
80411b40:	8e05020c 	lw	a1,524(s0)
80411b44:	00e53023 	subu	a2,a3,a1
80411b48:	04c10006 	bgez	a2,80411b64 <tftp_fileop_seek+0x60>
80411b4c:	00000000 	nop
80411b50:	3c048042 	lui	a0,0x8042
80411b54:	0c10331a 	jal	8040cc68 <xprintf>
80411b58:	2484c38c 	addiu	a0,a0,-15476
80411b5c:	081046df 	j	80411b7c <tftp_fileop_seek+0x78>
80411b60:	2404ffed 	li	a0,-19
80411b64:	02002021 	move	a0,s0
80411b68:	0c1045ea 	jal	804117a8 <tftp_fileop_read>
80411b6c:	00002821 	move	a1,zero
80411b70:	04400002 	bltz	v0,80411b7c <tftp_fileop_seek+0x78>
80411b74:	00402021 	move	a0,v0
80411b78:	8e04020c 	lw	a0,524(s0)
80411b7c:	8fbf0014 	lw	ra,20(sp)
80411b80:	8fb00010 	lw	s0,16(sp)
80411b84:	00801021 	move	v0,a0
80411b88:	03e00008 	jr	ra
80411b8c:	27bd0018 	addiu	sp,sp,24

80411b90 <tftp_fileop_close>:
80411b90:	27bdffd8 	addiu	sp,sp,-40
80411b94:	afb20018 	sw	s2,24(sp)
80411b98:	afb10014 	sw	s1,20(sp)
80411b9c:	afbf0020 	sw	ra,32(sp)
80411ba0:	afb3001c 	sw	s3,28(sp)
80411ba4:	afb00010 	sw	s0,16(sp)
80411ba8:	8c820000 	lw	v0,0(a0)
80411bac:	3c038042 	lui	v1,0x8042
80411bb0:	2472c3bc 	addiu	s2,v1,-15428
80411bb4:	2403ffff 	li	v1,-1
80411bb8:	10430047 	beq	v0,v1,80411cd8 <tftp_fileop_close+0x148>
80411bbc:	00808821 	move	s1,a0
80411bc0:	8c830220 	lw	v1,544(a0)
80411bc4:	24020001 	li	v0,1
80411bc8:	1462003d 	bne	v1,v0,80411cc0 <tftp_fileop_close+0x130>
80411bcc:	00000000 	nop
80411bd0:	0c104ddc 	jal	80413770 <udp_alloc>
80411bd4:	00000000 	nop
80411bd8:	1040003b 	beqz	v0,80411cc8 <tftp_fileop_close+0x138>
80411bdc:	00408021 	move	s0,v0
80411be0:	8c450008 	lw	a1,8(v0)
80411be4:	8e230218 	lw	v1,536(s1)
80411be8:	8c420020 	lw	v0,32(v0)
80411bec:	02402021 	move	a0,s2
80411bf0:	26330212 	addiu	s3,s1,530
80411bf4:	24a80004 	addiu	t0,a1,4
80411bf8:	10600011 	beqz	v1,80411c40 <tftp_fileop_close+0xb0>
80411bfc:	00a23021 	addu	a2,a1,v0
80411c00:	a0c00000 	sb	zero,0(a2)
80411c04:	8e020020 	lw	v0,32(s0)
80411c08:	24030004 	li	v1,4
80411c0c:	00a21021 	addu	v0,a1,v0
80411c10:	a0430001 	sb	v1,1(v0)
80411c14:	8e030020 	lw	v1,32(s0)
80411c18:	96220210 	lhu	v0,528(s1)
80411c1c:	00a31821 	addu	v1,a1,v1
80411c20:	00021202 	srl	v0,v0,0x8
80411c24:	a0620002 	sb	v0,2(v1)
80411c28:	8e020020 	lw	v0,32(s0)
80411c2c:	96230210 	lhu	v1,528(s1)
80411c30:	00a21021 	addu	v0,a1,v0
80411c34:	a0430003 	sb	v1,3(v0)
80411c38:	0810472a 	j	80411ca8 <tftp_fileop_close+0x118>
80411c3c:	ae080008 	sw	t0,8(s0)
80411c40:	a0c00000 	sb	zero,0(a2)
80411c44:	8e020020 	lw	v0,32(s0)
80411c48:	24030005 	li	v1,5
80411c4c:	00a21021 	addu	v0,a1,v0
80411c50:	a0430001 	sb	v1,1(v0)
80411c54:	8e020020 	lw	v0,32(s0)
80411c58:	24030003 	li	v1,3
80411c5c:	00a21021 	addu	v0,a1,v0
80411c60:	a0400002 	sb	zero,2(v0)
80411c64:	8e020020 	lw	v0,32(s0)
80411c68:	00a21021 	addu	v0,a1,v0
80411c6c:	a0430003 	sb	v1,3(v0)
80411c70:	0c1033bf 	jal	8040cefc <lib_strlen>
80411c74:	ae080008 	sw	t0,8(s0)
80411c78:	8e030020 	lw	v1,32(s0)
80411c7c:	8e040008 	lw	a0,8(s0)
80411c80:	24460001 	addiu	a2,v0,1
80411c84:	02402821 	move	a1,s2
80411c88:	0c10345e 	jal	8040d178 <lib_memcpy>
80411c8c:	00642021 	addu	a0,v1,a0
80411c90:	0c1033bf 	jal	8040cefc <lib_strlen>
80411c94:	02402021 	move	a0,s2
80411c98:	8e030008 	lw	v1,8(s0)
80411c9c:	00621821 	addu	v1,v1,v0
80411ca0:	24630001 	addiu	v1,v1,1
80411ca4:	ae030008 	sw	v1,8(s0)
80411ca8:	8e240000 	lw	a0,0(s1)
80411cac:	02002821 	move	a1,s0
80411cb0:	0c104df9 	jal	804137e4 <udp_send>
80411cb4:	02603021 	move	a2,s3
80411cb8:	08104732 	j	80411cc8 <tftp_fileop_close+0x138>
80411cbc:	00000000 	nop
80411cc0:	0c104460 	jal	80411180 <_tftp_writemore>
80411cc4:	00000000 	nop
80411cc8:	0c104df2 	jal	804137c8 <udp_close>
80411ccc:	8e240000 	lw	a0,0(s1)
80411cd0:	2402ffff 	li	v0,-1
80411cd4:	ae220000 	sw	v0,0(s1)
80411cd8:	8e250224 	lw	a1,548(s1)
80411cdc:	3c108042 	lui	s0,0x8042
80411ce0:	0c103031 	jal	8040c0c4 <kfree>
80411ce4:	26042bec 	addiu	a0,s0,11244
80411ce8:	26042bec 	addiu	a0,s0,11244
80411cec:	02202821 	move	a1,s1
80411cf0:	8fbf0020 	lw	ra,32(sp)
80411cf4:	8fb3001c 	lw	s3,28(sp)
80411cf8:	8fb20018 	lw	s2,24(sp)
80411cfc:	8fb10014 	lw	s1,20(sp)
80411d00:	8fb00010 	lw	s0,16(sp)
80411d04:	08103031 	j	8040c0c4 <kfree>
80411d08:	27bd0028 	addiu	sp,sp,40

80411d0c <tftp_fileop_uninit>:
80411d0c:	00802821 	move	a1,a0
80411d10:	3c048042 	lui	a0,0x8042
80411d14:	08103031 	j	8040c0c4 <kfree>
80411d18:	24842bec 	addiu	a0,a0,11244

80411d1c <_ip_alloc>:
80411d1c:	27bdffe8 	addiu	sp,sp,-24
80411d20:	afbf0010 	sw	ra,16(sp)
80411d24:	8c850020 	lw	a1,32(a0)
80411d28:	0c10631d 	jal	80418c74 <eth_alloc>
80411d2c:	8c840018 	lw	a0,24(a0)
80411d30:	00401821 	move	v1,v0
80411d34:	10400006 	beqz	v0,80411d50 <_ip_alloc+0x34>
80411d38:	00002021 	move	a0,zero
80411d3c:	8c420020 	lw	v0,32(v0)
80411d40:	ac600008 	sw	zero,8(v1)
80411d44:	00602021 	move	a0,v1
80411d48:	24420014 	addiu	v0,v0,20
80411d4c:	ac620020 	sw	v0,32(v1)
80411d50:	8fbf0010 	lw	ra,16(sp)
80411d54:	00801021 	move	v0,a0
80411d58:	03e00008 	jr	ra
80411d5c:	27bd0018 	addiu	sp,sp,24

80411d60 <ip_chksum>:
80411d60:	30c70001 	andi	a3,a2,0x1
80411d64:	00c73023 	subu	a2,a2,a3
80411d68:	00a04021 	move	t0,a1
80411d6c:	3084ffff 	andi	a0,a0,0xffff
80411d70:	18c0000a 	blez	a2,80411d9c <ip_chksum+0x3c>
80411d74:	00002821 	move	a1,zero
80411d78:	01051821 	addu	v1,t0,a1
80411d7c:	90620000 	lbu	v0,0(v1)
80411d80:	90630001 	lbu	v1,1(v1)
80411d84:	24a50002 	addiu	a1,a1,2
80411d88:	00021200 	sll	v0,v0,0x8
80411d8c:	00431021 	addu	v0,v0,v1
80411d90:	00a6182a 	slt	v1,a1,a2
80411d94:	1460fff8 	bnez	v1,80411d78 <ip_chksum+0x18>
80411d98:	00822021 	addu	a0,a0,v0
80411d9c:	10e00006 	beqz	a3,80411db8 <ip_chksum+0x58>
80411da0:	00041402 	srl	v0,a0,0x10
80411da4:	01051021 	addu	v0,t0,a1
80411da8:	90420000 	lbu	v0,0(v0)
80411dac:	00021200 	sll	v0,v0,0x8
80411db0:	00822021 	addu	a0,a0,v0
80411db4:	00041402 	srl	v0,a0,0x10
80411db8:	10400004 	beqz	v0,80411dcc <ip_chksum+0x6c>
80411dbc:	3083ffff 	andi	v1,a0,0xffff
80411dc0:	00041402 	srl	v0,a0,0x10
80411dc4:	0810476d 	j	80411db4 <ip_chksum+0x54>
80411dc8:	00622021 	addu	a0,v1,v0
80411dcc:	03e00008 	jr	ra
80411dd0:	3082ffff 	andi	v0,a0,0xffff

80411dd4 <_ip_send>:
80411dd4:	27bdffc8 	addiu	sp,sp,-56
80411dd8:	afbf0030 	sw	ra,48(sp)
80411ddc:	afb3002c 	sw	s3,44(sp)
80411de0:	afb20028 	sw	s2,40(sp)
80411de4:	afb10024 	sw	s1,36(sp)
80411de8:	afb00020 	sw	s0,32(sp)
80411dec:	00808821 	move	s1,a0
80411df0:	9622001c 	lhu	v0,28(s1)
80411df4:	8ca40008 	lw	a0,8(a1)
80411df8:	8ca30020 	lw	v1,32(a1)
80411dfc:	24420001 	addiu	v0,v0,1
80411e00:	24840014 	addiu	a0,a0,20
80411e04:	a622001c 	sh	v0,28(s1)
80411e08:	00a09021 	move	s2,a1
80411e0c:	24020045 	li	v0,69
80411e10:	00042a03 	sra	a1,a0,0x8
80411e14:	a065ffee 	sb	a1,-18(v1)
80411e18:	a062ffec 	sb	v0,-20(v1)
80411e1c:	a064ffef 	sb	a0,-17(v1)
80411e20:	a060ffed 	sb	zero,-19(v1)
80411e24:	9622001c 	lhu	v0,28(s1)
80411e28:	2465fff8 	addiu	a1,v1,-8
80411e2c:	00c09821 	move	s3,a2
80411e30:	00021202 	srl	v0,v0,0x8
80411e34:	a062fff0 	sb	v0,-16(v1)
80411e38:	9624001c 	lhu	a0,28(s1)
80411e3c:	24020064 	li	v0,100
80411e40:	a067fff5 	sb	a3,-11(v1)
80411e44:	a064fff1 	sb	a0,-15(v1)
80411e48:	a062fff4 	sb	v0,-12(v1)
80411e4c:	a060fff2 	sb	zero,-14(v1)
80411e50:	a060fff3 	sb	zero,-13(v1)
80411e54:	a060fff6 	sb	zero,-10(v1)
80411e58:	a060fff7 	sb	zero,-9(v1)
80411e5c:	00a02021 	move	a0,a1
80411e60:	ae450020 	sw	a1,32(s2)
80411e64:	24060004 	li	a2,4
80411e68:	0c10345e 	jal	8040d178 <lib_memcpy>
80411e6c:	02202821 	move	a1,s1
80411e70:	8e420020 	lw	v0,32(s2)
80411e74:	02602821 	move	a1,s3
80411e78:	24060004 	li	a2,4
80411e7c:	24420004 	addiu	v0,v0,4
80411e80:	00402021 	move	a0,v0
80411e84:	0c10345e 	jal	8040d178 <lib_memcpy>
80411e88:	ae420020 	sw	v0,32(s2)
80411e8c:	8e500020 	lw	s0,32(s2)
80411e90:	8e420008 	lw	v0,8(s2)
80411e94:	00002021 	move	a0,zero
80411e98:	2610fff0 	addiu	s0,s0,-16
80411e9c:	24420014 	addiu	v0,v0,20
80411ea0:	ae420008 	sw	v0,8(s2)
80411ea4:	ae500020 	sw	s0,32(s2)
80411ea8:	02002821 	move	a1,s0
80411eac:	0c104758 	jal	80411d60 <ip_chksum>
80411eb0:	24060014 	li	a2,20
80411eb4:	00021027 	nor	v0,zero,v0
80411eb8:	3042ffff 	andi	v0,v0,0xffff
80411ebc:	00021a02 	srl	v1,v0,0x8
80411ec0:	a202000b 	sb	v0,11(s0)
80411ec4:	a203000a 	sb	v1,10(s0)
80411ec8:	926d0000 	lbu	t5,0(s3)
80411ecc:	240200ff 	li	v0,255
80411ed0:	31a300ff 	andi	v1,t5,0xff
80411ed4:	1462000e 	bne	v1,v0,80411f10 <_ip_send+0x13c>
80411ed8:	00000000 	nop
80411edc:	92620001 	lbu	v0,1(s3)
80411ee0:	1443000b 	bne	v0,v1,80411f10 <_ip_send+0x13c>
80411ee4:	00000000 	nop
80411ee8:	92630002 	lbu	v1,2(s3)
80411eec:	14620008 	bne	v1,v0,80411f10 <_ip_send+0x13c>
80411ef0:	00000000 	nop
80411ef4:	92620003 	lbu	v0,3(s3)
80411ef8:	14430005 	bne	v0,v1,80411f10 <_ip_send+0x13c>
80411efc:	02402021 	move	a0,s2
80411f00:	0c1062e3 	jal	80418b8c <eth_send>
80411f04:	278580a4 	addiu	a1,gp,-32604
80411f08:	081047f9 	j	80411fe4 <_ip_send+0x210>
80411f0c:	00000000 	nop
80411f10:	922c0004 	lbu	t4,4(s1)
80411f14:	92240005 	lbu	a0,5(s1)
80411f18:	92250006 	lbu	a1,6(s1)
80411f1c:	92260007 	lbu	a2,7(s1)
80411f20:	01841025 	or	v0,t4,a0
80411f24:	00451025 	or	v0,v0,a1
80411f28:	00461025 	or	v0,v0,a2
80411f2c:	304200ff 	andi	v0,v0,0xff
80411f30:	1040001e 	beqz	v0,80411fac <_ip_send+0x1d8>
80411f34:	00000000 	nop
80411f38:	92620001 	lbu	v0,1(s3)
80411f3c:	92630002 	lbu	v1,2(s3)
80411f40:	92670003 	lbu	a3,3(s3)
80411f44:	92280000 	lbu	t0,0(s1)
80411f48:	92290001 	lbu	t1,1(s1)
80411f4c:	922a0002 	lbu	t2,2(s1)
80411f50:	922b0003 	lbu	t3,3(s1)
80411f54:	010c4024 	and	t0,t0,t4
80411f58:	01244824 	and	t1,t1,a0
80411f5c:	01455024 	and	t2,t2,a1
80411f60:	01665824 	and	t3,t3,a2
80411f64:	00441024 	and	v0,v0,a0
80411f68:	00651824 	and	v1,v1,a1
80411f6c:	00e63824 	and	a3,a3,a2
80411f70:	01ac6024 	and	t4,t5,t4
80411f74:	27a40010 	addiu	a0,sp,16
80411f78:	27a50018 	addiu	a1,sp,24
80411f7c:	24060004 	li	a2,4
80411f80:	a3ac0010 	sb	t4,16(sp)
80411f84:	a3a20011 	sb	v0,17(sp)
80411f88:	a3a30012 	sb	v1,18(sp)
80411f8c:	a3a70013 	sb	a3,19(sp)
80411f90:	a3a80018 	sb	t0,24(sp)
80411f94:	a3a90019 	sb	t1,25(sp)
80411f98:	a3aa001a 	sb	t2,26(sp)
80411f9c:	0c10344d 	jal	8040d134 <lib_memcmp>
80411fa0:	a3ab001b 	sb	t3,27(sp)
80411fa4:	14400005 	bnez	v0,80411fbc <_ip_send+0x1e8>
80411fa8:	00000000 	nop
80411fac:	02202021 	move	a0,s1
80411fb0:	02402821 	move	a1,s2
80411fb4:	081047ff 	j	80411ffc <_ip_send+0x228>
80411fb8:	02603021 	move	a2,s3
80411fbc:	92220008 	lbu	v0,8(s1)
80411fc0:	92230009 	lbu	v1,9(s1)
80411fc4:	9224000a 	lbu	a0,10(s1)
80411fc8:	9225000b 	lbu	a1,11(s1)
80411fcc:	00431025 	or	v0,v0,v1
80411fd0:	00441025 	or	v0,v0,a0
80411fd4:	00451025 	or	v0,v0,a1
80411fd8:	304200ff 	andi	v0,v0,0xff
80411fdc:	14400005 	bnez	v0,80411ff4 <_ip_send+0x220>
80411fe0:	02202021 	move	a0,s1
80411fe4:	0c10621f 	jal	8041887c <eth_free>
80411fe8:	02402021 	move	a0,s2
80411fec:	08104801 	j	80412004 <_ip_send+0x230>
80411ff0:	00001021 	move	v0,zero
80411ff4:	02402821 	move	a1,s2
80411ff8:	26260008 	addiu	a2,s1,8
80411ffc:	0c104bbc 	jal	80412ef0 <_arp_lookup_and_send>
80412000:	00000000 	nop
80412004:	8fbf0030 	lw	ra,48(sp)
80412008:	8fb3002c 	lw	s3,44(sp)
8041200c:	8fb20028 	lw	s2,40(sp)
80412010:	8fb10024 	lw	s1,36(sp)
80412014:	8fb00020 	lw	s0,32(sp)
80412018:	03e00008 	jr	ra
8041201c:	27bd0038 	addiu	sp,sp,56

80412020 <ip_rx_callback>:
80412020:	27bdffc0 	addiu	sp,sp,-64
80412024:	afb3002c 	sw	s3,44(sp)
80412028:	afb10024 	sw	s1,36(sp)
8041202c:	afbf0038 	sw	ra,56(sp)
80412030:	afb50034 	sw	s5,52(sp)
80412034:	afb40030 	sw	s4,48(sp)
80412038:	afb20028 	sw	s2,40(sp)
8041203c:	afb00020 	sw	s0,32(sp)
80412040:	8c820008 	lw	v0,8(a0)
80412044:	00808821 	move	s1,a0
80412048:	8c840020 	lw	a0,32(a0)
8041204c:	2442ffff 	addiu	v0,v0,-1
80412050:	ae220008 	sw	v0,8(s1)
80412054:	90860000 	lbu	a2,0(a0)
80412058:	24820001 	addiu	v0,a0,1
8041205c:	ae220020 	sw	v0,32(s1)
80412060:	30c300f0 	andi	v1,a2,0xf0
80412064:	24020040 	li	v0,64
80412068:	14620076 	bne	v1,v0,80412244 <ip_rx_callback+0x224>
8041206c:	00a09821 	move	s3,a1
80412070:	30c2000f 	andi	v0,a2,0xf
80412074:	00029080 	sll	s2,v0,0x2
80412078:	2a420014 	slti	v0,s2,20
8041207c:	14400072 	bnez	v0,80412248 <ip_rx_callback+0x228>
80412080:	00001021 	move	v0,zero
80412084:	9090000a 	lbu	s0,10(a0)
80412088:	9082000b 	lbu	v0,11(a0)
8041208c:	a080000a 	sb	zero,10(a0)
80412090:	a080000b 	sb	zero,11(a0)
80412094:	00802821 	move	a1,a0
80412098:	00108200 	sll	s0,s0,0x8
8041209c:	00002021 	move	a0,zero
804120a0:	02403021 	move	a2,s2
804120a4:	0c104758 	jal	80411d60 <ip_chksum>
804120a8:	02028025 	or	s0,s0,v0
804120ac:	00021027 	nor	v0,zero,v0
804120b0:	3042ffff 	andi	v0,v0,0xffff
804120b4:	14500064 	bne	v0,s0,80412248 <ip_rx_callback+0x228>
804120b8:	00001021 	move	v0,zero
804120bc:	8e280008 	lw	t0,8(s1)
804120c0:	8e270020 	lw	a3,32(s1)
804120c4:	2503fffd 	addiu	v1,t0,-3
804120c8:	24e20003 	addiu	v0,a3,3
804120cc:	ae230008 	sw	v1,8(s1)
804120d0:	ae220020 	sw	v0,32(s1)
804120d4:	24e30007 	addiu	v1,a3,7
804120d8:	2505fff9 	addiu	a1,t0,-7
804120dc:	9046ffff 	lbu	a2,-1(v0)
804120e0:	9044fffe 	lbu	a0,-2(v0)
804120e4:	ae250008 	sw	a1,8(s1)
804120e8:	ae230020 	sw	v1,32(s1)
804120ec:	9062fffe 	lbu	v0,-2(v1)
804120f0:	9063ffff 	lbu	v1,-1(v1)
804120f4:	00042200 	sll	a0,a0,0x8
804120f8:	00021200 	sll	v0,v0,0x8
804120fc:	00431025 	or	v0,v0,v1
80412100:	30423fff 	andi	v0,v0,0x3fff
80412104:	1440004f 	bnez	v0,80412244 <ip_rx_callback+0x224>
80412108:	0086a025 	or	s4,a0,a2
8041210c:	24e20008 	addiu	v0,a3,8
80412110:	2503fff7 	addiu	v1,t0,-9
80412114:	ae220020 	sw	v0,32(s1)
80412118:	ae230008 	sw	v1,8(s1)
8041211c:	2502fff5 	addiu	v0,t0,-11
80412120:	24e3000b 	addiu	v1,a3,11
80412124:	00602821 	move	a1,v1
80412128:	90f50008 	lbu	s5,8(a3)
8041212c:	27a40010 	addiu	a0,sp,16
80412130:	ae230020 	sw	v1,32(s1)
80412134:	24060004 	li	a2,4
80412138:	0c10345e 	jal	8040d178 <lib_memcpy>
8041213c:	ae220008 	sw	v0,8(s1)
80412140:	8e250020 	lw	a1,32(s1)
80412144:	8e220008 	lw	v0,8(s1)
80412148:	27b00018 	addiu	s0,sp,24
8041214c:	24a50004 	addiu	a1,a1,4
80412150:	2442fffc 	addiu	v0,v0,-4
80412154:	ae250020 	sw	a1,32(s1)
80412158:	02002021 	move	a0,s0
8041215c:	ae220008 	sw	v0,8(s1)
80412160:	0c10345e 	jal	8040d178 <lib_memcpy>
80412164:	24060004 	li	a2,4
80412168:	8e220020 	lw	v0,32(s1)
8041216c:	02921823 	subu	v1,s4,s2
80412170:	ae230008 	sw	v1,8(s1)
80412174:	00521021 	addu	v0,v0,s2
80412178:	2442fff0 	addiu	v0,v0,-16
8041217c:	ae220020 	sw	v0,32(s1)
80412180:	92620000 	lbu	v0,0(s3)
80412184:	92630001 	lbu	v1,1(s3)
80412188:	92640002 	lbu	a0,2(s3)
8041218c:	92650003 	lbu	a1,3(s3)
80412190:	00431025 	or	v0,v0,v1
80412194:	00441025 	or	v0,v0,a0
80412198:	00451025 	or	v0,v0,a1
8041219c:	304200ff 	andi	v0,v0,0xff
804121a0:	10400014 	beqz	v0,804121f4 <ip_rx_callback+0x1d4>
804121a4:	26650024 	addiu	a1,s3,36
804121a8:	02002021 	move	a0,s0
804121ac:	02602821 	move	a1,s3
804121b0:	0c10344d 	jal	8040d134 <lib_memcmp>
804121b4:	24060004 	li	a2,4
804121b8:	1040000e 	beqz	v0,804121f4 <ip_rx_callback+0x1d4>
804121bc:	26650024 	addiu	a1,s3,36
804121c0:	93a30018 	lbu	v1,24(sp)
804121c4:	240200ff 	li	v0,255
804121c8:	1462001f 	bne	v1,v0,80412248 <ip_rx_callback+0x228>
804121cc:	00001021 	move	v0,zero
804121d0:	93a20019 	lbu	v0,25(sp)
804121d4:	1443001b 	bne	v0,v1,80412244 <ip_rx_callback+0x224>
804121d8:	93a3001a 	lbu	v1,26(sp)
804121dc:	1462001a 	bne	v1,v0,80412248 <ip_rx_callback+0x228>
804121e0:	00001021 	move	v0,zero
804121e4:	93a2001b 	lbu	v0,27(sp)
804121e8:	14430017 	bne	v0,v1,80412248 <ip_rx_callback+0x228>
804121ec:	00001021 	move	v0,zero
804121f0:	26650024 	addiu	a1,s3,36
804121f4:	00003021 	move	a2,zero
804121f8:	00001821 	move	v1,zero
804121fc:	8ca80004 	lw	t0,4(a1)
80412200:	24630001 	addiu	v1,v1,1
80412204:	11000004 	beqz	t0,80412218 <ip_rx_callback+0x1f8>
80412208:	28640004 	slti	a0,v1,4
8041220c:	90a20000 	lbu	v0,0(a1)
80412210:	10550005 	beq	v0,s5,80412228 <ip_rx_callback+0x208>
80412214:	00000000 	nop
80412218:	1480fff8 	bnez	a0,804121fc <ip_rx_callback+0x1dc>
8041221c:	24a5000c 	addiu	a1,a1,12
80412220:	08104892 	j	80412248 <ip_rx_callback+0x228>
80412224:	00c01021 	move	v0,a2
80412228:	8ca40008 	lw	a0,8(a1)
8041222c:	02003021 	move	a2,s0
80412230:	02202821 	move	a1,s1
80412234:	0100f809 	jalr	t0
80412238:	27a70010 	addiu	a3,sp,16
8041223c:	08104888 	j	80412220 <ip_rx_callback+0x200>
80412240:	00403021 	move	a2,v0
80412244:	00001021 	move	v0,zero
80412248:	8fbf0038 	lw	ra,56(sp)
8041224c:	8fb50034 	lw	s5,52(sp)
80412250:	8fb40030 	lw	s4,48(sp)
80412254:	8fb3002c 	lw	s3,44(sp)
80412258:	8fb20028 	lw	s2,40(sp)
8041225c:	8fb10024 	lw	s1,36(sp)
80412260:	8fb00020 	lw	s0,32(sp)
80412264:	03e00008 	jr	ra
80412268:	27bd0040 	addiu	sp,sp,64

8041226c <_ip_init>:
8041226c:	27bdffd0 	addiu	sp,sp,-48
80412270:	afb10024 	sw	s1,36(sp)
80412274:	3c118042 	lui	s1,0x8042
80412278:	afb20028 	sw	s2,40(sp)
8041227c:	24050064 	li	a1,100
80412280:	00003021 	move	a2,zero
80412284:	00809021 	move	s2,a0
80412288:	afb00020 	sw	s0,32(sp)
8041228c:	afbf002c 	sw	ra,44(sp)
80412290:	0c103064 	jal	8040c190 <kmalloc>
80412294:	26242bec 	addiu	a0,s1,11244
80412298:	00408021 	move	s0,v0
8041229c:	24060064 	li	a2,100
804122a0:	00402021 	move	a0,v0
804122a4:	00002821 	move	a1,zero
804122a8:	1040001c 	beqz	v0,8041231c <_ip_init+0xb0>
804122ac:	00001821 	move	v1,zero
804122b0:	0c103468 	jal	8040d1a0 <lib_memset>
804122b4:	00000000 	nop
804122b8:	02002021 	move	a0,s0
804122bc:	0c104d55 	jal	80413554 <_arp_init>
804122c0:	ae120018 	sw	s2,24(s0)
804122c4:	3c078041 	lui	a3,0x8041
804122c8:	24e72020 	addiu	a3,a3,8224
804122cc:	24050001 	li	a1,1
804122d0:	27a60018 	addiu	a2,sp,24
804122d4:	0440000e 	bltz	v0,80412310 <_ip_init+0xa4>
804122d8:	26242bec 	addiu	a0,s1,11244
804122dc:	24020008 	li	v0,8
804122e0:	a3a20018 	sb	v0,24(sp)
804122e4:	a3a00019 	sb	zero,25(sp)
804122e8:	8e040018 	lw	a0,24(s0)
804122ec:	0c1061f5 	jal	804187d4 <eth_open>
804122f0:	afb00010 	sw	s0,16(sp)
804122f4:	ae020020 	sw	v0,32(s0)
804122f8:	02002021 	move	a0,s0
804122fc:	04410007 	bgez	v0,8041231c <_ip_init+0xb0>
80412300:	02001821 	move	v1,s0
80412304:	0c104d8e 	jal	80413638 <_arp_uninit>
80412308:	00000000 	nop
8041230c:	26242bec 	addiu	a0,s1,11244
80412310:	0c103031 	jal	8040c0c4 <kfree>
80412314:	02002821 	move	a1,s0
80412318:	00001821 	move	v1,zero
8041231c:	8fbf002c 	lw	ra,44(sp)
80412320:	8fb20028 	lw	s2,40(sp)
80412324:	8fb10024 	lw	s1,36(sp)
80412328:	8fb00020 	lw	s0,32(sp)
8041232c:	00601021 	move	v0,v1
80412330:	03e00008 	jr	ra
80412334:	27bd0030 	addiu	sp,sp,48

80412338 <_ip_uninit>:
80412338:	27bdffe8 	addiu	sp,sp,-24
8041233c:	afbf0014 	sw	ra,20(sp)
80412340:	afb00010 	sw	s0,16(sp)
80412344:	8c850020 	lw	a1,32(a0)
80412348:	00808021 	move	s0,a0
8041234c:	0c106213 	jal	8041884c <eth_close>
80412350:	8c840018 	lw	a0,24(a0)
80412354:	0c104d8e 	jal	80413638 <_arp_uninit>
80412358:	02002021 	move	a0,s0
8041235c:	8e020010 	lw	v0,16(s0)
80412360:	3c048042 	lui	a0,0x8042
80412364:	24842bec 	addiu	a0,a0,11244
80412368:	10400003 	beqz	v0,80412378 <_ip_uninit+0x40>
8041236c:	00402821 	move	a1,v0
80412370:	0c103031 	jal	8040c0c4 <kfree>
80412374:	00000000 	nop
80412378:	8e020014 	lw	v0,20(s0)
8041237c:	3c048042 	lui	a0,0x8042
80412380:	24842bec 	addiu	a0,a0,11244
80412384:	10400003 	beqz	v0,80412394 <_ip_uninit+0x5c>
80412388:	00402821 	move	a1,v0
8041238c:	0c103031 	jal	8040c0c4 <kfree>
80412390:	00000000 	nop
80412394:	3c048042 	lui	a0,0x8042
80412398:	02002821 	move	a1,s0
8041239c:	8fbf0014 	lw	ra,20(sp)
804123a0:	8fb00010 	lw	s0,16(sp)
804123a4:	24842bec 	addiu	a0,a0,11244
804123a8:	08103031 	j	8040c0c4 <kfree>
804123ac:	27bd0018 	addiu	sp,sp,24

804123b0 <_ip_timer_tick>:
804123b0:	08104d19 	j	80413464 <_arp_timer_tick>
804123b4:	00000000 	nop

804123b8 <_ip_free>:
804123b8:	0810621f 	j	8041887c <eth_free>
804123bc:	00a02021 	move	a0,a1

804123c0 <_ip_getaddr>:
804123c0:	00801021 	move	v0,a0
804123c4:	24060004 	li	a2,4
804123c8:	00a02021 	move	a0,a1
804123cc:	0810345e 	j	8040d178 <lib_memcpy>
804123d0:	00402821 	move	a1,v0

804123d4 <_ip_getparam>:
804123d4:	2ca20009 	sltiu	v0,a1,9
804123d8:	10400018 	beqz	v0,8041243c <_ip_getparam+0x68>
804123dc:	00001821 	move	v1,zero
804123e0:	3c038042 	lui	v1,0x8042
804123e4:	00051080 	sll	v0,a1,0x2
804123e8:	24639d7c 	addiu	v1,v1,-25220
804123ec:	00431021 	addu	v0,v0,v1
804123f0:	8c420000 	lw	v0,0(v0)
804123f4:	00400008 	jr	v0
804123f8:	00000000 	nop
804123fc:	0810490f 	j	8041243c <_ip_getparam+0x68>
80412400:	00801821 	move	v1,a0
80412404:	0810490f 	j	8041243c <_ip_getparam+0x68>
80412408:	24830004 	addiu	v1,a0,4
8041240c:	0810490f 	j	8041243c <_ip_getparam+0x68>
80412410:	24830008 	addiu	v1,a0,8
80412414:	0810490f 	j	8041243c <_ip_getparam+0x68>
80412418:	2483000c 	addiu	v1,a0,12
8041241c:	0810490f 	j	8041243c <_ip_getparam+0x68>
80412420:	2483005c 	addiu	v1,a0,92
80412424:	0810490f 	j	8041243c <_ip_getparam+0x68>
80412428:	8c830010 	lw	v1,16(a0)
8041242c:	0810490f 	j	8041243c <_ip_getparam+0x68>
80412430:	8c830014 	lw	v1,20(a0)
80412434:	03e00008 	jr	ra
80412438:	00001021 	move	v0,zero
8041243c:	03e00008 	jr	ra
80412440:	00601021 	move	v0,v1

80412444 <_ip_setparam>:
80412444:	27bdffe0 	addiu	sp,sp,-32
80412448:	2ca20009 	sltiu	v0,a1,9
8041244c:	afb20018 	sw	s2,24(sp)
80412450:	afb10014 	sw	s1,20(sp)
80412454:	afb00010 	sw	s0,16(sp)
80412458:	afbf001c 	sw	ra,28(sp)
8041245c:	00808021 	move	s0,a0
80412460:	00c08821 	move	s1,a2
80412464:	10400046 	beqz	v0,80412580 <_ip_setparam+0x13c>
80412468:	2412ffff 	li	s2,-1
8041246c:	3c038042 	lui	v1,0x8042
80412470:	00051080 	sll	v0,a1,0x2
80412474:	24639da0 	addiu	v1,v1,-25184
80412478:	00431021 	addu	v0,v0,v1
8041247c:	8c420000 	lw	v0,0(v0)
80412480:	00400008 	jr	v0
80412484:	00000000 	nop
80412488:	00c02821 	move	a1,a2
8041248c:	0c10345e 	jal	8040d178 <lib_memcpy>
80412490:	24060004 	li	a2,4
80412494:	0c104d47 	jal	8041351c <_arp_send_gratuitous>
80412498:	02002021 	move	a0,s0
8041249c:	08104960 	j	80412580 <_ip_setparam+0x13c>
804124a0:	00009021 	move	s2,zero
804124a4:	0810492e 	j	804124b8 <_ip_setparam+0x74>
804124a8:	24840004 	addiu	a0,a0,4
804124ac:	0810492e 	j	804124b8 <_ip_setparam+0x74>
804124b0:	24840008 	addiu	a0,a0,8
804124b4:	2484000c 	addiu	a0,a0,12
804124b8:	02202821 	move	a1,s1
804124bc:	0c10345e 	jal	8040d178 <lib_memcpy>
804124c0:	24060004 	li	a2,4
804124c4:	08104960 	j	80412580 <_ip_setparam+0x13c>
804124c8:	00009021 	move	s2,zero
804124cc:	8c850010 	lw	a1,16(a0)
804124d0:	10a00005 	beqz	a1,804124e8 <_ip_setparam+0xa4>
804124d4:	00000000 	nop
804124d8:	3c048042 	lui	a0,0x8042
804124dc:	0c103031 	jal	8040c0c4 <kfree>
804124e0:	24842bec 	addiu	a0,a0,11244
804124e4:	ae000010 	sw	zero,16(s0)
804124e8:	12200026 	beqz	s1,80412584 <_ip_setparam+0x140>
804124ec:	02401021 	move	v0,s2
804124f0:	0c1061b9 	jal	804186e4 <lib_strdup>
804124f4:	02202021 	move	a0,s1
804124f8:	08104960 	j	80412580 <_ip_setparam+0x13c>
804124fc:	ae020010 	sw	v0,16(s0)
80412500:	8c850014 	lw	a1,20(a0)
80412504:	10a00005 	beqz	a1,8041251c <_ip_setparam+0xd8>
80412508:	00000000 	nop
8041250c:	3c048042 	lui	a0,0x8042
80412510:	0c103031 	jal	8040c0c4 <kfree>
80412514:	24842bec 	addiu	a0,a0,11244
80412518:	ae000014 	sw	zero,20(s0)
8041251c:	12200019 	beqz	s1,80412584 <_ip_setparam+0x140>
80412520:	02401021 	move	v0,s2
80412524:	0c1061b9 	jal	804186e4 <lib_strdup>
80412528:	02202021 	move	a0,s1
8041252c:	08104960 	j	80412580 <_ip_setparam+0x13c>
80412530:	ae020014 	sw	v0,20(s0)
80412534:	00c02821 	move	a1,a2
80412538:	2484005c 	addiu	a0,a0,92
8041253c:	0c10345e 	jal	8040d178 <lib_memcpy>
80412540:	24060006 	li	a2,6
80412544:	8e040018 	lw	a0,24(s0)
80412548:	02202821 	move	a1,s1
8041254c:	0c106288 	jal	80418a20 <eth_sethwaddr>
80412550:	00009021 	move	s2,zero
80412554:	08104961 	j	80412584 <_ip_setparam+0x140>
80412558:	02401021 	move	v0,s2
8041255c:	8c840018 	lw	a0,24(a0)
80412560:	0c1062a1 	jal	80418a84 <eth_setspeed>
80412564:	8cc50000 	lw	a1,0(a2)
80412568:	08104960 	j	80412580 <_ip_setparam+0x13c>
8041256c:	00409021 	move	s2,v0
80412570:	8c840018 	lw	a0,24(a0)
80412574:	0c1062b2 	jal	80418ac8 <eth_setloopback>
80412578:	8cc50000 	lw	a1,0(a2)
8041257c:	00409021 	move	s2,v0
80412580:	02401021 	move	v0,s2
80412584:	8fbf001c 	lw	ra,28(sp)
80412588:	8fb20018 	lw	s2,24(sp)
8041258c:	8fb10014 	lw	s1,20(sp)
80412590:	8fb00010 	lw	s0,16(sp)
80412594:	03e00008 	jr	ra
80412598:	27bd0020 	addiu	sp,sp,32

8041259c <_ip_register>:
8041259c:	00004021 	move	t0,zero
804125a0:	24830028 	addiu	v1,a0,40
804125a4:	8c620000 	lw	v0,0(v1)
804125a8:	10400005 	beqz	v0,804125c0 <_ip_register+0x24>
804125ac:	2463000c 	addiu	v1,v1,12
804125b0:	25080001 	addiu	t0,t0,1
804125b4:	29020004 	slti	v0,t0,4
804125b8:	1440fffa 	bnez	v0,804125a4 <_ip_register+0x8>
804125bc:	00000000 	nop
804125c0:	24020004 	li	v0,4
804125c4:	11020007 	beq	t0,v0,804125e4 <_ip_register+0x48>
804125c8:	00081040 	sll	v0,t0,0x1
804125cc:	00481021 	addu	v0,v0,t0
804125d0:	00021080 	sll	v0,v0,0x2
804125d4:	00441021 	addu	v0,v0,a0
804125d8:	ac47002c 	sw	a3,44(v0)
804125dc:	a0450024 	sb	a1,36(v0)
804125e0:	ac460028 	sw	a2,40(v0)
804125e4:	03e00008 	jr	ra
804125e8:	00000000 	nop

804125ec <_ip_deregister>:
804125ec:	30a500ff 	andi	a1,a1,0xff
804125f0:	24030003 	li	v1,3
804125f4:	90820024 	lbu	v0,36(a0)
804125f8:	14450004 	bne	v0,a1,8041260c <_ip_deregister+0x20>
804125fc:	2463ffff 	addiu	v1,v1,-1
80412600:	a0800024 	sb	zero,36(a0)
80412604:	ac80002c 	sw	zero,44(a0)
80412608:	ac800028 	sw	zero,40(a0)
8041260c:	0461fff9 	bgez	v1,804125f4 <_ip_deregister+0x8>
80412610:	2484000c 	addiu	a0,a0,12
80412614:	03e00008 	jr	ra
80412618:	00000000 	nop

8041261c <dns_lookup>:
8041261c:	27bdff58 	addiu	sp,sp,-168
80412620:	afb7009c 	sw	s7,156(sp)
80412624:	afbf00a4 	sw	ra,164(sp)
80412628:	afbe00a0 	sw	s8,160(sp)
8041262c:	afb60098 	sw	s6,152(sp)
80412630:	afb50094 	sw	s5,148(sp)
80412634:	afb40090 	sw	s4,144(sp)
80412638:	afb3008c 	sw	s3,140(sp)
8041263c:	afb20088 	sw	s2,136(sp)
80412640:	afb10084 	sw	s1,132(sp)
80412644:	afb00080 	sw	s0,128(sp)
80412648:	0080b821 	move	s7,a0
8041264c:	0c1016d5 	jal	80405b54 <lib_parseipaddr>
80412650:	afa500ac 	sw	a1,172(sp)
80412654:	1040014c 	beqz	v0,80412b88 <dns_lookup+0x56c>
80412658:	24030001 	li	v1,1
8041265c:	02e02021 	move	a0,s7
80412660:	0c103424 	jal	8040d090 <lib_strchr>
80412664:	2405002e 	li	a1,46
80412668:	1440000b 	bnez	v0,80412698 <dns_lookup+0x7c>
8041266c:	00000000 	nop
80412670:	0c104fa8 	jal	80413ea0 <net_getparam>
80412674:	24040005 	li	a0,5
80412678:	10400007 	beqz	v0,80412698 <dns_lookup+0x7c>
8041267c:	3c058042 	lui	a1,0x8042
80412680:	02e03021 	move	a2,s7
80412684:	24a5c3d0 	addiu	a1,a1,-15408
80412688:	00403821 	move	a3,v0
8041268c:	0c103311 	jal	8040cc44 <xsprintf>
80412690:	27a40010 	addiu	a0,sp,16
80412694:	27b70010 	addiu	s7,sp,16
80412698:	0c104fa8 	jal	80413ea0 <net_getparam>
8041269c:	24040003 	li	a0,3
804126a0:	0040a821 	move	s5,v0
804126a4:	10400138 	beqz	v0,80412b88 <dns_lookup+0x56c>
804126a8:	2403ffe9 	li	v1,-23
804126ac:	92a30001 	lbu	v1,1(s5)
804126b0:	90420000 	lbu	v0,0(v0)
804126b4:	92a40002 	lbu	a0,2(s5)
804126b8:	92a50003 	lbu	a1,3(s5)
804126bc:	00431025 	or	v0,v0,v1
804126c0:	00441025 	or	v0,v0,a0
804126c4:	00451025 	or	v0,v0,a1
804126c8:	304200ff 	andi	v0,v0,0xff
804126cc:	1040012e 	beqz	v0,80412b88 <dns_lookup+0x56c>
804126d0:	2403ffe8 	li	v1,-24
804126d4:	0c104dea 	jal	804137a8 <udp_socket>
804126d8:	24040035 	li	a0,53
804126dc:	0040b021 	move	s6,v0
804126e0:	04400129 	bltz	v0,80412b88 <dns_lookup+0x56c>
804126e4:	2403ffe7 	li	v1,-25
804126e8:	afa00078 	sw	zero,120(sp)
804126ec:	8f83813c 	lw	v1,-32452(gp)
804126f0:	8f828138 	lw	v0,-32456(gp)
804126f4:	02e0a021 	move	s4,s7
804126f8:	0c104ddc 	jal	80413770 <udp_alloc>
804126fc:	307effff 	andi	s8,v1,0xffff
80412700:	00408821 	move	s1,v0
80412704:	8c430008 	lw	v1,8(v0)
80412708:	8c420020 	lw	v0,32(v0)
8041270c:	001e2202 	srl	a0,s8,0x8
80412710:	24050001 	li	a1,1
80412714:	00621021 	addu	v0,v1,v0
80412718:	a0440000 	sb	a0,0(v0)
8041271c:	8e220020 	lw	v0,32(s1)
80412720:	24630001 	addiu	v1,v1,1
80412724:	2464000b 	addiu	a0,v1,11
80412728:	00621021 	addu	v0,v1,v0
8041272c:	a05e0000 	sb	s8,0(v0)
80412730:	8e220020 	lw	v0,32(s1)
80412734:	00621021 	addu	v0,v1,v0
80412738:	a0450001 	sb	a1,1(v0)
8041273c:	8e220020 	lw	v0,32(s1)
80412740:	00621021 	addu	v0,v1,v0
80412744:	a0400002 	sb	zero,2(v0)
80412748:	8e220020 	lw	v0,32(s1)
8041274c:	00621021 	addu	v0,v1,v0
80412750:	a0400003 	sb	zero,3(v0)
80412754:	8e220020 	lw	v0,32(s1)
80412758:	00621021 	addu	v0,v1,v0
8041275c:	a0450004 	sb	a1,4(v0)
80412760:	8e220020 	lw	v0,32(s1)
80412764:	00621021 	addu	v0,v1,v0
80412768:	a0400005 	sb	zero,5(v0)
8041276c:	8e220020 	lw	v0,32(s1)
80412770:	00621021 	addu	v0,v1,v0
80412774:	a0400006 	sb	zero,6(v0)
80412778:	8e220020 	lw	v0,32(s1)
8041277c:	00621021 	addu	v0,v1,v0
80412780:	a0400007 	sb	zero,7(v0)
80412784:	8e220020 	lw	v0,32(s1)
80412788:	00621021 	addu	v0,v1,v0
8041278c:	a0400008 	sb	zero,8(v0)
80412790:	8e220020 	lw	v0,32(s1)
80412794:	00621021 	addu	v0,v1,v0
80412798:	a0400009 	sb	zero,9(v0)
8041279c:	8e220020 	lw	v0,32(s1)
804127a0:	00621821 	addu	v1,v1,v0
804127a4:	a060000a 	sb	zero,10(v1)
804127a8:	081049f7 	j	804127dc <dns_lookup+0x1c0>
804127ac:	ae240008 	sw	a0,8(s1)
804127b0:	02031021 	addu	v0,s0,v1
804127b4:	a0530000 	sb	s3,0(v0)
804127b8:	8e220020 	lw	v0,32(s1)
804127bc:	26040001 	addiu	a0,s0,1
804127c0:	ae240008 	sw	a0,8(s1)
804127c4:	0c10345e 	jal	8040d178 <lib_memcpy>
804127c8:	00442021 	addu	a0,v0,a0
804127cc:	8e220008 	lw	v0,8(s1)
804127d0:	26540001 	addiu	s4,s2,1
804127d4:	00531021 	addu	v0,v0,s3
804127d8:	ae220008 	sw	v0,8(s1)
804127dc:	2405002e 	li	a1,46
804127e0:	0c103424 	jal	8040d090 <lib_strchr>
804127e4:	02802021 	move	a0,s4
804127e8:	00549823 	subu	s3,v0,s4
804127ec:	00409021 	move	s2,v0
804127f0:	02802821 	move	a1,s4
804127f4:	02603021 	move	a2,s3
804127f8:	8e300008 	lw	s0,8(s1)
804127fc:	1440ffec 	bnez	v0,804127b0 <dns_lookup+0x194>
80412800:	8e230020 	lw	v1,32(s1)
80412804:	26020001 	addiu	v0,s0,1
80412808:	02802021 	move	a0,s4
8041280c:	ae220008 	sw	v0,8(s1)
80412810:	0c1033bf 	jal	8040cefc <lib_strlen>
80412814:	02038021 	addu	s0,s0,v1
80412818:	a2020000 	sb	v0,0(s0)
8041281c:	0c1033bf 	jal	8040cefc <lib_strlen>
80412820:	02802021 	move	a0,s4
80412824:	8e230020 	lw	v1,32(s1)
80412828:	8e240008 	lw	a0,8(s1)
8041282c:	00403021 	move	a2,v0
80412830:	02802821 	move	a1,s4
80412834:	0c10345e 	jal	8040d178 <lib_memcpy>
80412838:	00642021 	addu	a0,v1,a0
8041283c:	0c1033bf 	jal	8040cefc <lib_strlen>
80412840:	02802021 	move	a0,s4
80412844:	8e270008 	lw	a3,8(s1)
80412848:	8e230020 	lw	v1,32(s1)
8041284c:	24080001 	li	t0,1
80412850:	00e23821 	addu	a3,a3,v0
80412854:	00e31821 	addu	v1,a3,v1
80412858:	a0600000 	sb	zero,0(v1)
8041285c:	8e220020 	lw	v0,32(s1)
80412860:	24e30005 	addiu	v1,a3,5
80412864:	02c02021 	move	a0,s6
80412868:	00e21021 	addu	v0,a3,v0
8041286c:	a0400001 	sb	zero,1(v0)
80412870:	8e220020 	lw	v0,32(s1)
80412874:	02202821 	move	a1,s1
80412878:	02a03021 	move	a2,s5
8041287c:	00e21021 	addu	v0,a3,v0
80412880:	a0480002 	sb	t0,2(v0)
80412884:	8e220020 	lw	v0,32(s1)
80412888:	00e21021 	addu	v0,a3,v0
8041288c:	a0400003 	sb	zero,3(v0)
80412890:	8e220020 	lw	v0,32(s1)
80412894:	00e23821 	addu	a3,a3,v0
80412898:	a0e80004 	sb	t0,4(a3)
8041289c:	0c104df9 	jal	804137e4 <udp_send>
804128a0:	ae230008 	sw	v1,8(s1)
804128a4:	8f83813c 	lw	v1,-32452(gp)
804128a8:	8f828138 	lw	v0,-32456(gp)
804128ac:	2473000a 	addiu	s3,v1,10
804128b0:	2e64000a 	sltiu	a0,s3,10
804128b4:	08104abd 	j	80412af4 <dns_lookup+0x4d8>
804128b8:	00449021 	addu	s2,v0,a0
804128bc:	0c103c5c 	jal	8040f170 <background>
804128c0:	00000000 	nop
804128c4:	0c104e15 	jal	80413854 <udp_recv>
804128c8:	02c02021 	move	a0,s6
804128cc:	10400089 	beqz	v0,80412af4 <dns_lookup+0x4d8>
804128d0:	00408821 	move	s1,v0
804128d4:	8c460020 	lw	a2,32(v0)
804128d8:	8c470008 	lw	a3,8(v0)
804128dc:	24c30002 	addiu	v1,a2,2
804128e0:	24e2fffe 	addiu	v0,a3,-2
804128e4:	ae220008 	sw	v0,8(s1)
804128e8:	ae230020 	sw	v1,32(s1)
804128ec:	9062fffe 	lbu	v0,-2(v1)
804128f0:	9063ffff 	lbu	v1,-1(v1)
804128f4:	00021200 	sll	v0,v0,0x8
804128f8:	00431825 	or	v1,v0,v1
804128fc:	17c3007b 	bne	s8,v1,80412aec <dns_lookup+0x4d0>
80412900:	24c30004 	addiu	v1,a2,4
80412904:	24e2fffc 	addiu	v0,a3,-4
80412908:	ae220008 	sw	v0,8(s1)
8041290c:	ae230020 	sw	v1,32(s1)
80412910:	9062fffe 	lbu	v0,-2(v1)
80412914:	9063ffff 	lbu	v1,-1(v1)
80412918:	00021200 	sll	v0,v0,0x8
8041291c:	00431825 	or	v1,v0,v1
80412920:	00031400 	sll	v0,v1,0x10
80412924:	00021403 	sra	v0,v0,0x10
80412928:	04410070 	bgez	v0,80412aec <dns_lookup+0x4d0>
8041292c:	3062000f 	andi	v0,v1,0xf
80412930:	14400081 	bnez	v0,80412b38 <dns_lookup+0x51c>
80412934:	24c30006 	addiu	v1,a2,6
80412938:	24e2fffa 	addiu	v0,a3,-6
8041293c:	ae220008 	sw	v0,8(s1)
80412940:	ae230020 	sw	v1,32(s1)
80412944:	24c40008 	addiu	a0,a2,8
80412948:	24e2fff8 	addiu	v0,a3,-8
8041294c:	9065ffff 	lbu	a1,-1(v1)
80412950:	9063fffe 	lbu	v1,-2(v1)
80412954:	ae220008 	sw	v0,8(s1)
80412958:	ae240020 	sw	a0,32(s1)
8041295c:	9082fffe 	lbu	v0,-2(a0)
80412960:	9084ffff 	lbu	a0,-1(a0)
80412964:	00031a00 	sll	v1,v1,0x8
80412968:	00021200 	sll	v0,v0,0x8
8041296c:	00448025 	or	s0,v0,a0
80412970:	24c2000c 	addiu	v0,a2,12
80412974:	24e4fff4 	addiu	a0,a3,-12
80412978:	00652825 	or	a1,v1,a1
8041297c:	ae220020 	sw	v0,32(s1)
80412980:	1200005a 	beqz	s0,80412aec <dns_lookup+0x4d0>
80412984:	ae240008 	sw	a0,8(s1)
80412988:	10a0001a 	beqz	a1,804129f4 <dns_lookup+0x3d8>
8041298c:	00000000 	nop
80412990:	8e220008 	lw	v0,8(s1)
80412994:	10400055 	beqz	v0,80412aec <dns_lookup+0x4d0>
80412998:	00000000 	nop
8041299c:	8e220008 	lw	v0,8(s1)
804129a0:	8e230020 	lw	v1,32(s1)
804129a4:	2442ffff 	addiu	v0,v0,-1
804129a8:	ae220008 	sw	v0,8(s1)
804129ac:	90640000 	lbu	a0,0(v1)
804129b0:	24630001 	addiu	v1,v1,1
804129b4:	ae230020 	sw	v1,32(s1)
804129b8:	00441023 	subu	v0,v0,a0
804129bc:	10800004 	beqz	a0,804129d0 <dns_lookup+0x3b4>
804129c0:	00641821 	addu	v1,v1,a0
804129c4:	ae230020 	sw	v1,32(s1)
804129c8:	08104a65 	j	80412994 <dns_lookup+0x378>
804129cc:	ae220008 	sw	v0,8(s1)
804129d0:	8e220008 	lw	v0,8(s1)
804129d4:	8e230020 	lw	v1,32(s1)
804129d8:	24a4ffff 	addiu	a0,a1,-1
804129dc:	2442fffc 	addiu	v0,v0,-4
804129e0:	24630004 	addiu	v1,v1,4
804129e4:	3085ffff 	andi	a1,a0,0xffff
804129e8:	ae220008 	sw	v0,8(s1)
804129ec:	08104a62 	j	80412988 <dns_lookup+0x36c>
804129f0:	ae230020 	sw	v1,32(s1)
804129f4:	1200003d 	beqz	s0,80412aec <dns_lookup+0x4d0>
804129f8:	260bffff 	addiu	t3,s0,-1
804129fc:	8e240020 	lw	a0,32(s1)
80412a00:	8e250008 	lw	a1,8(s1)
80412a04:	24830004 	addiu	v1,a0,4
80412a08:	24a2fffc 	addiu	v0,a1,-4
80412a0c:	ae220008 	sw	v0,8(s1)
80412a10:	ae230020 	sw	v1,32(s1)
80412a14:	24820006 	addiu	v0,a0,6
80412a18:	24a6fffa 	addiu	a2,a1,-6
80412a1c:	9067ffff 	lbu	a3,-1(v1)
80412a20:	2488000c 	addiu	t0,a0,12
80412a24:	9063fffe 	lbu	v1,-2(v1)
80412a28:	24a9fff4 	addiu	t1,a1,-12
80412a2c:	ae260008 	sw	a2,8(s1)
80412a30:	ae220020 	sw	v0,32(s1)
80412a34:	9046ffff 	lbu	a2,-1(v0)
80412a38:	9044fffe 	lbu	a0,-2(v0)
80412a3c:	ae280020 	sw	t0,32(s1)
80412a40:	ae290008 	sw	t1,8(s1)
80412a44:	9102fffe 	lbu	v0,-2(t0)
80412a48:	9105ffff 	lbu	a1,-1(t0)
80412a4c:	00031a00 	sll	v1,v1,0x8
80412a50:	00021200 	sll	v0,v0,0x8
80412a54:	00671825 	or	v1,v1,a3
80412a58:	00042200 	sll	a0,a0,0x8
80412a5c:	00453825 	or	a3,v0,a1
80412a60:	24020001 	li	v0,1
80412a64:	01075021 	addu	t2,t0,a3
80412a68:	01272823 	subu	a1,t1,a3
80412a6c:	10620005 	beq	v1,v0,80412a84 <dns_lookup+0x468>
80412a70:	00862025 	or	a0,a0,a2
80412a74:	3170ffff 	andi	s0,t3,0xffff
80412a78:	ae250008 	sw	a1,8(s1)
80412a7c:	08104a7d 	j	804129f4 <dns_lookup+0x3d8>
80412a80:	ae2a0020 	sw	t2,32(s1)
80412a84:	01271023 	subu	v0,t1,a3
80412a88:	260affff 	addiu	t2,s0,-1
80412a8c:	01076021 	addu	t4,t0,a3
80412a90:	10830005 	beq	a0,v1,80412aa8 <dns_lookup+0x48c>
80412a94:	00402821 	move	a1,v0
80412a98:	3150ffff 	andi	s0,t2,0xffff
80412a9c:	ae220008 	sw	v0,8(s1)
80412aa0:	08104a7d 	j	804129f4 <dns_lookup+0x3d8>
80412aa4:	ae2c0020 	sw	t4,32(s1)
80412aa8:	24020004 	li	v0,4
80412aac:	10e20005 	beq	a3,v0,80412ac4 <dns_lookup+0x4a8>
80412ab0:	8fa400ac 	lw	a0,172(sp)
80412ab4:	3150ffff 	andi	s0,t2,0xffff
80412ab8:	ae250008 	sw	a1,8(s1)
80412abc:	08104a7d 	j	804129f4 <dns_lookup+0x3d8>
80412ac0:	ae2c0020 	sw	t4,32(s1)
80412ac4:	01002821 	move	a1,t0
80412ac8:	0c10345e 	jal	8040d178 <lib_memcpy>
80412acc:	24060004 	li	a2,4
80412ad0:	8e220020 	lw	v0,32(s1)
80412ad4:	8e230008 	lw	v1,8(s1)
80412ad8:	24420004 	addiu	v0,v0,4
80412adc:	2463fffc 	addiu	v1,v1,-4
80412ae0:	ae220020 	sw	v0,32(s1)
80412ae4:	16000018 	bnez	s0,80412b48 <dns_lookup+0x52c>
80412ae8:	ae230008 	sw	v1,8(s1)
80412aec:	0c104de3 	jal	8041378c <udp_free>
80412af0:	02202021 	move	a0,s1
80412af4:	02531025 	or	v0,s2,s3
80412af8:	1040ff70 	beqz	v0,804128bc <dns_lookup+0x2a0>
80412afc:	00000000 	nop
80412b00:	8f828138 	lw	v0,-32456(gp)
80412b04:	0242102a 	slt	v0,s2,v0
80412b08:	14400012 	bnez	v0,80412b54 <dns_lookup+0x538>
80412b0c:	2410ffeb 	li	s0,-21
80412b10:	8f828138 	lw	v0,-32456(gp)
80412b14:	1452ff69 	bne	v0,s2,804128bc <dns_lookup+0x2a0>
80412b18:	00000000 	nop
80412b1c:	8f82813c 	lw	v0,-32452(gp)
80412b20:	0262102b 	sltu	v0,s3,v0
80412b24:	1440000c 	bnez	v0,80412b58 <dns_lookup+0x53c>
80412b28:	2402ffeb 	li	v0,-21
80412b2c:	8f82813c 	lw	v0,-32452(gp)
80412b30:	08104a2f 	j	804128bc <dns_lookup+0x2a0>
80412b34:	00000000 	nop
80412b38:	0c104de3 	jal	8041378c <udp_free>
80412b3c:	02202021 	move	a0,s1
80412b40:	08104ad5 	j	80412b54 <dns_lookup+0x538>
80412b44:	2410ffec 	li	s0,-20
80412b48:	0c104de3 	jal	8041378c <udp_free>
80412b4c:	02202021 	move	a0,s1
80412b50:	24100001 	li	s0,1
80412b54:	2402ffeb 	li	v0,-21
80412b58:	12020003 	beq	s0,v0,80412b68 <dns_lookup+0x54c>
80412b5c:	8fa20078 	lw	v0,120(sp)
80412b60:	06010006 	bgez	s0,80412b7c <dns_lookup+0x560>
80412b64:	00000000 	nop
80412b68:	24420001 	addiu	v0,v0,1
80412b6c:	afa20078 	sw	v0,120(sp)
80412b70:	28420008 	slti	v0,v0,8
80412b74:	1440fedd 	bnez	v0,804126ec <dns_lookup+0xd0>
80412b78:	00000000 	nop
80412b7c:	0c104df2 	jal	804137c8 <udp_close>
80412b80:	02c02021 	move	a0,s6
80412b84:	02001821 	move	v1,s0
80412b88:	8fbf00a4 	lw	ra,164(sp)
80412b8c:	8fbe00a0 	lw	s8,160(sp)
80412b90:	8fb7009c 	lw	s7,156(sp)
80412b94:	8fb60098 	lw	s6,152(sp)
80412b98:	8fb50094 	lw	s5,148(sp)
80412b9c:	8fb40090 	lw	s4,144(sp)
80412ba0:	8fb3008c 	lw	s3,140(sp)
80412ba4:	8fb20088 	lw	s2,136(sp)
80412ba8:	8fb10084 	lw	s1,132(sp)
80412bac:	8fb00080 	lw	s0,128(sp)
80412bb0:	00601021 	move	v0,v1
80412bb4:	03e00008 	jr	ra
80412bb8:	27bd00a8 	addiu	sp,sp,168

80412bbc <arp_tx_query>:
80412bbc:	27bdffd8 	addiu	sp,sp,-40
80412bc0:	afb20020 	sw	s2,32(sp)
80412bc4:	afb1001c 	sw	s1,28(sp)
80412bc8:	afb00018 	sw	s0,24(sp)
80412bcc:	afbf0024 	sw	ra,36(sp)
80412bd0:	00808821 	move	s1,a0
80412bd4:	00a09021 	move	s2,a1
80412bd8:	8c840018 	lw	a0,24(a0)
80412bdc:	0c10631d 	jal	80418c74 <eth_alloc>
80412be0:	8e250058 	lw	a1,88(s1)
80412be4:	00408021 	move	s0,v0
80412be8:	24080001 	li	t0,1
80412bec:	2625005c 	addiu	a1,s1,92
80412bf0:	24060006 	li	a2,6
80412bf4:	12000049 	beqz	s0,80412d1c <arp_tx_query+0x160>
80412bf8:	2402ffff 	li	v0,-1
80412bfc:	8e040008 	lw	a0,8(s0)
80412c00:	8e020020 	lw	v0,32(s0)
80412c04:	24030008 	li	v1,8
80412c08:	00821021 	addu	v0,a0,v0
80412c0c:	a0400000 	sb	zero,0(v0)
80412c10:	8e020020 	lw	v0,32(s0)
80412c14:	24840001 	addiu	a0,a0,1
80412c18:	24870007 	addiu	a3,a0,7
80412c1c:	00821021 	addu	v0,a0,v0
80412c20:	a0480000 	sb	t0,0(v0)
80412c24:	8e020020 	lw	v0,32(s0)
80412c28:	00821021 	addu	v0,a0,v0
80412c2c:	a0430001 	sb	v1,1(v0)
80412c30:	8e020020 	lw	v0,32(s0)
80412c34:	24030006 	li	v1,6
80412c38:	00821021 	addu	v0,a0,v0
80412c3c:	a0400002 	sb	zero,2(v0)
80412c40:	8e020020 	lw	v0,32(s0)
80412c44:	00821021 	addu	v0,a0,v0
80412c48:	a0430003 	sb	v1,3(v0)
80412c4c:	8e020020 	lw	v0,32(s0)
80412c50:	24030004 	li	v1,4
80412c54:	00821021 	addu	v0,a0,v0
80412c58:	a0430004 	sb	v1,4(v0)
80412c5c:	8e020020 	lw	v0,32(s0)
80412c60:	00821021 	addu	v0,a0,v0
80412c64:	a0400005 	sb	zero,5(v0)
80412c68:	8e020020 	lw	v0,32(s0)
80412c6c:	00822021 	addu	a0,a0,v0
80412c70:	a0880006 	sb	t0,6(a0)
80412c74:	8e040020 	lw	a0,32(s0)
80412c78:	ae070008 	sw	a3,8(s0)
80412c7c:	0c10345e 	jal	8040d178 <lib_memcpy>
80412c80:	00872021 	addu	a0,a0,a3
80412c84:	8e020008 	lw	v0,8(s0)
80412c88:	8e040020 	lw	a0,32(s0)
80412c8c:	02202821 	move	a1,s1
80412c90:	24420006 	addiu	v0,v0,6
80412c94:	00822021 	addu	a0,a0,v0
80412c98:	24060004 	li	a2,4
80412c9c:	0c10345e 	jal	8040d178 <lib_memcpy>
80412ca0:	ae020008 	sw	v0,8(s0)
80412ca4:	8e020008 	lw	v0,8(s0)
80412ca8:	27a40010 	addiu	a0,sp,16
80412cac:	00002821 	move	a1,zero
80412cb0:	24420004 	addiu	v0,v0,4
80412cb4:	24060006 	li	a2,6
80412cb8:	0c103468 	jal	8040d1a0 <lib_memset>
80412cbc:	ae020008 	sw	v0,8(s0)
80412cc0:	8e020020 	lw	v0,32(s0)
80412cc4:	8e040008 	lw	a0,8(s0)
80412cc8:	27a50010 	addiu	a1,sp,16
80412ccc:	24060006 	li	a2,6
80412cd0:	0c10345e 	jal	8040d178 <lib_memcpy>
80412cd4:	00442021 	addu	a0,v0,a0
80412cd8:	8e020008 	lw	v0,8(s0)
80412cdc:	8e040020 	lw	a0,32(s0)
80412ce0:	24060004 	li	a2,4
80412ce4:	24420006 	addiu	v0,v0,6
80412ce8:	02402821 	move	a1,s2
80412cec:	00822021 	addu	a0,a0,v0
80412cf0:	0c10345e 	jal	8040d178 <lib_memcpy>
80412cf4:	ae020008 	sw	v0,8(s0)
80412cf8:	8e020008 	lw	v0,8(s0)
80412cfc:	02002021 	move	a0,s0
80412d00:	278580a4 	addiu	a1,gp,-32604
80412d04:	24420004 	addiu	v0,v0,4
80412d08:	0c1062e3 	jal	80418b8c <eth_send>
80412d0c:	ae020008 	sw	v0,8(s0)
80412d10:	0c10621f 	jal	8041887c <eth_free>
80412d14:	02002021 	move	a0,s0
80412d18:	00001021 	move	v0,zero
80412d1c:	8fbf0024 	lw	ra,36(sp)
80412d20:	8fb20020 	lw	s2,32(sp)
80412d24:	8fb1001c 	lw	s1,28(sp)
80412d28:	8fb00018 	lw	s0,24(sp)
80412d2c:	03e00008 	jr	ra
80412d30:	27bd0028 	addiu	sp,sp,40

80412d34 <arp_delete>:
80412d34:	27bdffe8 	addiu	sp,sp,-24
80412d38:	afb00010 	sw	s0,16(sp)
80412d3c:	afbf0014 	sw	ra,20(sp)
80412d40:	08104b54 	j	80412d50 <arp_delete+0x1c>
80412d44:	00808021 	move	s0,a0
80412d48:	0c10621f 	jal	8041887c <eth_free>
80412d4c:	00000000 	nop
80412d50:	0c10334d 	jal	8040cd34 <q_deqnext>
80412d54:	26040020 	addiu	a0,s0,32
80412d58:	1440fffb 	bnez	v0,80412d48 <arp_delete+0x14>
80412d5c:	00402021 	move	a0,v0
80412d60:	ae000000 	sw	zero,0(s0)
80412d64:	ae000008 	sw	zero,8(s0)
80412d68:	ae000004 	sw	zero,4(s0)
80412d6c:	ae00000c 	sw	zero,12(s0)
80412d70:	8fbf0014 	lw	ra,20(sp)
80412d74:	8fb00010 	lw	s0,16(sp)
80412d78:	03e00008 	jr	ra
80412d7c:	27bd0018 	addiu	sp,sp,24

80412d80 <arp_new_entry>:
80412d80:	27bdffe8 	addiu	sp,sp,-24
80412d84:	afb00010 	sw	s0,16(sp)
80412d88:	afbf0014 	sw	ra,20(sp)
80412d8c:	8c860054 	lw	a2,84(a0)
80412d90:	3c027fff 	lui	v0,0x7fff
80412d94:	3447ffff 	ori	a3,v0,0xffff
80412d98:	00008021 	move	s0,zero
80412d9c:	00c01821 	move	v1,a2
80412da0:	00002021 	move	a0,zero
80412da4:	8c620000 	lw	v0,0(v1)
80412da8:	24840001 	addiu	a0,a0,1
80412dac:	14400003 	bnez	v0,80412dbc <arp_new_entry+0x3c>
80412db0:	28850008 	slti	a1,a0,8
80412db4:	08104b7f 	j	80412dfc <arp_new_entry+0x7c>
80412db8:	00601021 	move	v0,v1
80412dbc:	14a0fff9 	bnez	a1,80412da4 <arp_new_entry+0x24>
80412dc0:	24630028 	addiu	v1,v1,40
80412dc4:	00c01821 	move	v1,a2
80412dc8:	24040007 	li	a0,7
80412dcc:	8c650004 	lw	a1,4(v1)
80412dd0:	00a7102a 	slt	v0,a1,a3
80412dd4:	10400003 	beqz	v0,80412de4 <arp_new_entry+0x64>
80412dd8:	2484ffff 	addiu	a0,a0,-1
80412ddc:	00a03821 	move	a3,a1
80412de0:	00608021 	move	s0,v1
80412de4:	0481fff9 	bgez	a0,80412dcc <arp_new_entry+0x4c>
80412de8:	24630028 	addiu	v1,v1,40
80412dec:	00d0800a 	movz	s0,a2,s0
80412df0:	0c104b4d 	jal	80412d34 <arp_delete>
80412df4:	02002021 	move	a0,s0
80412df8:	02001021 	move	v0,s0
80412dfc:	8fbf0014 	lw	ra,20(sp)
80412e00:	8fb00010 	lw	s0,16(sp)
80412e04:	03e00008 	jr	ra
80412e08:	27bd0018 	addiu	sp,sp,24

80412e0c <arp_tx_waiting>:
80412e0c:	27bdffe0 	addiu	sp,sp,-32
80412e10:	afb10014 	sw	s1,20(sp)
80412e14:	afbf0018 	sw	ra,24(sp)
80412e18:	afb00010 	sw	s0,16(sp)
80412e1c:	08104b8d 	j	80412e34 <arp_tx_waiting+0x28>
80412e20:	00808821 	move	s1,a0
80412e24:	0c1062e3 	jal	80418b8c <eth_send>
80412e28:	00000000 	nop
80412e2c:	0c10621f 	jal	8041887c <eth_free>
80412e30:	02002021 	move	a0,s0
80412e34:	0c10334d 	jal	8040cd34 <q_deqnext>
80412e38:	26240020 	addiu	a0,s1,32
80412e3c:	00408021 	move	s0,v0
80412e40:	00402021 	move	a0,v0
80412e44:	1440fff7 	bnez	v0,80412e24 <arp_tx_waiting+0x18>
80412e48:	26250018 	addiu	a1,s1,24
80412e4c:	8fbf0018 	lw	ra,24(sp)
80412e50:	8fb10014 	lw	s1,20(sp)
80412e54:	8fb00010 	lw	s0,16(sp)
80412e58:	03e00008 	jr	ra
80412e5c:	27bd0020 	addiu	sp,sp,32

80412e60 <arp_find_entry>:
80412e60:	27bdffe0 	addiu	sp,sp,-32
80412e64:	afb20018 	sw	s2,24(sp)
80412e68:	afb10014 	sw	s1,20(sp)
80412e6c:	afbf001c 	sw	ra,28(sp)
80412e70:	afb00010 	sw	s0,16(sp)
80412e74:	8c900054 	lw	s0,84(a0)
80412e78:	00a09021 	move	s2,a1
80412e7c:	00008821 	move	s1,zero
80412e80:	8e020000 	lw	v0,0(s0)
80412e84:	26310001 	addiu	s1,s1,1
80412e88:	26040014 	addiu	a0,s0,20
80412e8c:	02402821 	move	a1,s2
80412e90:	1040000d 	beqz	v0,80412ec8 <arp_find_entry+0x68>
80412e94:	24060004 	li	a2,4
80412e98:	0c10344d 	jal	8040d134 <lib_memcmp>
80412e9c:	00000000 	nop
80412ea0:	1440000a 	bnez	v0,80412ecc <arp_find_entry+0x6c>
80412ea4:	2a220008 	slti	v0,s1,8
80412ea8:	8e030000 	lw	v1,0(s0)
80412eac:	24020002 	li	v0,2
80412eb0:	14620003 	bne	v1,v0,80412ec0 <arp_find_entry+0x60>
80412eb4:	00000000 	nop
80412eb8:	2402003c 	li	v0,60
80412ebc:	ae020008 	sw	v0,8(s0)
80412ec0:	08104bb6 	j	80412ed8 <arp_find_entry+0x78>
80412ec4:	02001021 	move	v0,s0
80412ec8:	2a220008 	slti	v0,s1,8
80412ecc:	1440ffec 	bnez	v0,80412e80 <arp_find_entry+0x20>
80412ed0:	26100028 	addiu	s0,s0,40
80412ed4:	00001021 	move	v0,zero
80412ed8:	8fbf001c 	lw	ra,28(sp)
80412edc:	8fb20018 	lw	s2,24(sp)
80412ee0:	8fb10014 	lw	s1,20(sp)
80412ee4:	8fb00010 	lw	s0,16(sp)
80412ee8:	03e00008 	jr	ra
80412eec:	27bd0020 	addiu	sp,sp,32

80412ef0 <_arp_lookup_and_send>:
80412ef0:	27bdffd8 	addiu	sp,sp,-40
80412ef4:	afb20018 	sw	s2,24(sp)
80412ef8:	00a09021 	move	s2,a1
80412efc:	00c02821 	move	a1,a2
80412f00:	afb40020 	sw	s4,32(sp)
80412f04:	afb3001c 	sw	s3,28(sp)
80412f08:	afb10014 	sw	s1,20(sp)
80412f0c:	0080a021 	move	s4,a0
80412f10:	afbf0024 	sw	ra,36(sp)
80412f14:	afb00010 	sw	s0,16(sp)
80412f18:	0c104b98 	jal	80412e60 <arp_find_entry>
80412f1c:	00c09821 	move	s3,a2
80412f20:	00408821 	move	s1,v0
80412f24:	14400016 	bnez	v0,80412f80 <_arp_lookup_and_send+0x90>
80412f28:	02802021 	move	a0,s4
80412f2c:	0c104b60 	jal	80412d80 <arp_new_entry>
80412f30:	00000000 	nop
80412f34:	24500014 	addiu	s0,v0,20
80412f38:	00408821 	move	s1,v0
80412f3c:	02602821 	move	a1,s3
80412f40:	02002021 	move	a0,s0
80412f44:	0c10345e 	jal	8040d178 <lib_memcpy>
80412f48:	24060004 	li	a2,4
80412f4c:	02402821 	move	a1,s2
80412f50:	0c103341 	jal	8040cd04 <q_enqueue>
80412f54:	26240020 	addiu	a0,s1,32
80412f58:	24030001 	li	v1,1
80412f5c:	24020004 	li	v0,4
80412f60:	ae230000 	sw	v1,0(s1)
80412f64:	ae22000c 	sw	v0,12(s1)
80412f68:	ae230008 	sw	v1,8(s1)
80412f6c:	02802021 	move	a0,s4
80412f70:	0c104aef 	jal	80412bbc <arp_tx_query>
80412f74:	02002821 	move	a1,s0
80412f78:	08104bff 	j	80412ffc <_arp_lookup_and_send+0x10c>
80412f7c:	8fbf0024 	lw	ra,36(sp)
80412f80:	8c430000 	lw	v1,0(v0)
80412f84:	24500020 	addiu	s0,v0,32
80412f88:	24450018 	addiu	a1,v0,24
80412f8c:	24020002 	li	v0,2
80412f90:	1462000d 	bne	v1,v0,80412fc8 <_arp_lookup_and_send+0xd8>
80412f94:	02002021 	move	a0,s0
80412f98:	8e220004 	lw	v0,4(s1)
80412f9c:	8e230010 	lw	v1,16(s1)
80412fa0:	02402021 	move	a0,s2
80412fa4:	24420001 	addiu	v0,v0,1
80412fa8:	14600003 	bnez	v1,80412fb8 <_arp_lookup_and_send+0xc8>
80412fac:	ae220004 	sw	v0,4(s1)
80412fb0:	2402003c 	li	v0,60
80412fb4:	ae220008 	sw	v0,8(s1)
80412fb8:	0c1062e3 	jal	80418b8c <eth_send>
80412fbc:	00000000 	nop
80412fc0:	08104bfc 	j	80412ff0 <_arp_lookup_and_send+0x100>
80412fc4:	00000000 	nop
80412fc8:	0c103377 	jal	8040cddc <q_count>
80412fcc:	00000000 	nop
80412fd0:	28420002 	slti	v0,v0,2
80412fd4:	02002021 	move	a0,s0
80412fd8:	10400005 	beqz	v0,80412ff0 <_arp_lookup_and_send+0x100>
80412fdc:	02402821 	move	a1,s2
80412fe0:	0c103341 	jal	8040cd04 <q_enqueue>
80412fe4:	00000000 	nop
80412fe8:	08104bff 	j	80412ffc <_arp_lookup_and_send+0x10c>
80412fec:	8fbf0024 	lw	ra,36(sp)
80412ff0:	0c10621f 	jal	8041887c <eth_free>
80412ff4:	02402021 	move	a0,s2
80412ff8:	8fbf0024 	lw	ra,36(sp)
80412ffc:	8fb40020 	lw	s4,32(sp)
80413000:	8fb3001c 	lw	s3,28(sp)
80413004:	8fb20018 	lw	s2,24(sp)
80413008:	8fb10014 	lw	s1,20(sp)
8041300c:	8fb00010 	lw	s0,16(sp)
80413010:	00001021 	move	v0,zero
80413014:	03e00008 	jr	ra
80413018:	27bd0028 	addiu	sp,sp,40

8041301c <_arp_lookup>:
8041301c:	27bdffe8 	addiu	sp,sp,-24
80413020:	afbf0010 	sw	ra,16(sp)
80413024:	0c104b98 	jal	80412e60 <arp_find_entry>
80413028:	00000000 	nop
8041302c:	24430018 	addiu	v1,v0,24
80413030:	8fbf0010 	lw	ra,16(sp)
80413034:	0002180a 	movz	v1,zero,v0
80413038:	00601021 	move	v0,v1
8041303c:	03e00008 	jr	ra
80413040:	27bd0018 	addiu	sp,sp,24

80413044 <_arp_add>:
80413044:	27bdffd8 	addiu	sp,sp,-40
80413048:	afb20018 	sw	s2,24(sp)
8041304c:	00a09021 	move	s2,a1
80413050:	00c02821 	move	a1,a2
80413054:	afb3001c 	sw	s3,28(sp)
80413058:	afb10014 	sw	s1,20(sp)
8041305c:	afb00010 	sw	s0,16(sp)
80413060:	afbf0020 	sw	ra,32(sp)
80413064:	00808021 	move	s0,a0
80413068:	0c104b98 	jal	80412e60 <arp_find_entry>
8041306c:	00c09821 	move	s3,a2
80413070:	00408821 	move	s1,v0
80413074:	14400004 	bnez	v0,80413088 <_arp_add+0x44>
80413078:	02002021 	move	a0,s0
8041307c:	0c104b60 	jal	80412d80 <arp_new_entry>
80413080:	00000000 	nop
80413084:	00408821 	move	s1,v0
80413088:	02402821 	move	a1,s2
8041308c:	26240014 	addiu	a0,s1,20
80413090:	0c10345e 	jal	8040d178 <lib_memcpy>
80413094:	24060004 	li	a2,4
80413098:	26240018 	addiu	a0,s1,24
8041309c:	02602821 	move	a1,s3
804130a0:	0c10345e 	jal	8040d178 <lib_memcpy>
804130a4:	24060006 	li	a2,6
804130a8:	24020001 	li	v0,1
804130ac:	ae220010 	sw	v0,16(s1)
804130b0:	24020002 	li	v0,2
804130b4:	ae220000 	sw	v0,0(s1)
804130b8:	ae20000c 	sw	zero,12(s1)
804130bc:	ae200008 	sw	zero,8(s1)
804130c0:	02202021 	move	a0,s1
804130c4:	8fbf0020 	lw	ra,32(sp)
804130c8:	8fb3001c 	lw	s3,28(sp)
804130cc:	8fb20018 	lw	s2,24(sp)
804130d0:	8fb10014 	lw	s1,20(sp)
804130d4:	8fb00010 	lw	s0,16(sp)
804130d8:	08104b83 	j	80412e0c <arp_tx_waiting>
804130dc:	27bd0028 	addiu	sp,sp,40

804130e0 <arp_rx_callback>:
804130e0:	27bdffa8 	addiu	sp,sp,-88
804130e4:	afb40040 	sw	s4,64(sp)
804130e8:	afb10034 	sw	s1,52(sp)
804130ec:	afbf0050 	sw	ra,80(sp)
804130f0:	afb7004c 	sw	s7,76(sp)
804130f4:	afb60048 	sw	s6,72(sp)
804130f8:	afb50044 	sw	s5,68(sp)
804130fc:	afb3003c 	sw	s3,60(sp)
80413100:	afb20038 	sw	s2,56(sp)
80413104:	afb00030 	sw	s0,48(sp)
80413108:	00808821 	move	s1,a0
8041310c:	8c840008 	lw	a0,8(a0)
80413110:	2c82001c 	sltiu	v0,a0,28
80413114:	144000c7 	bnez	v0,80413434 <arp_rx_callback+0x354>
80413118:	00a0a021 	move	s4,a1
8041311c:	8e250020 	lw	a1,32(s1)
80413120:	2482fffe 	addiu	v0,a0,-2
80413124:	ae220008 	sw	v0,8(s1)
80413128:	24a20002 	addiu	v0,a1,2
8041312c:	ae220020 	sw	v0,32(s1)
80413130:	9043fffe 	lbu	v1,-2(v0)
80413134:	9042ffff 	lbu	v0,-1(v0)
80413138:	24160001 	li	s6,1
8041313c:	00031a00 	sll	v1,v1,0x8
80413140:	00621825 	or	v1,v1,v0
80413144:	147600bb 	bne	v1,s6,80413434 <arp_rx_callback+0x354>
80413148:	24a30004 	addiu	v1,a1,4
8041314c:	2482fffc 	addiu	v0,a0,-4
80413150:	ae220008 	sw	v0,8(s1)
80413154:	ae230020 	sw	v1,32(s1)
80413158:	9062fffe 	lbu	v0,-2(v1)
8041315c:	9063ffff 	lbu	v1,-1(v1)
80413160:	00021200 	sll	v0,v0,0x8
80413164:	00431825 	or	v1,v0,v1
80413168:	24020800 	li	v0,2048
8041316c:	146200b1 	bne	v1,v0,80413434 <arp_rx_callback+0x354>
80413170:	2482fffb 	addiu	v0,a0,-5
80413174:	ae220008 	sw	v0,8(s1)
80413178:	90b30004 	lbu	s3,4(a1)
8041317c:	24a20005 	addiu	v0,a1,5
80413180:	24170006 	li	s7,6
80413184:	167700ab 	bne	s3,s7,80413434 <arp_rx_callback+0x354>
80413188:	ae220020 	sw	v0,32(s1)
8041318c:	2482fffa 	addiu	v0,a0,-6
80413190:	ae220008 	sw	v0,8(s1)
80413194:	90b30005 	lbu	s3,5(a1)
80413198:	24a20006 	addiu	v0,a1,6
8041319c:	ae220020 	sw	v0,32(s1)
804131a0:	24020004 	li	v0,4
804131a4:	166200a4 	bne	s3,v0,80413438 <arp_rx_callback+0x358>
804131a8:	8fbf0050 	lw	ra,80(sp)
804131ac:	24a50008 	addiu	a1,a1,8
804131b0:	2482fff8 	addiu	v0,a0,-8
804131b4:	ae250020 	sw	a1,32(s1)
804131b8:	ae220008 	sw	v0,8(s1)
804131bc:	90a2fffe 	lbu	v0,-2(a1)
804131c0:	90a3ffff 	lbu	v1,-1(a1)
804131c4:	27b50018 	addiu	s5,sp,24
804131c8:	00021200 	sll	v0,v0,0x8
804131cc:	02a02021 	move	a0,s5
804131d0:	24060006 	li	a2,6
804131d4:	0c10345e 	jal	8040d178 <lib_memcpy>
804131d8:	00439025 	or	s2,v0,v1
804131dc:	8e230020 	lw	v1,32(s1)
804131e0:	8e220008 	lw	v0,8(s1)
804131e4:	27a40010 	addiu	a0,sp,16
804131e8:	24630006 	addiu	v1,v1,6
804131ec:	2442fffa 	addiu	v0,v0,-6
804131f0:	00602821 	move	a1,v1
804131f4:	ae230020 	sw	v1,32(s1)
804131f8:	24060004 	li	a2,4
804131fc:	0c10345e 	jal	8040d178 <lib_memcpy>
80413200:	ae220008 	sw	v0,8(s1)
80413204:	8e230020 	lw	v1,32(s1)
80413208:	8e220008 	lw	v0,8(s1)
8041320c:	27a40028 	addiu	a0,sp,40
80413210:	24630004 	addiu	v1,v1,4
80413214:	2442fffc 	addiu	v0,v0,-4
80413218:	00602821 	move	a1,v1
8041321c:	ae230020 	sw	v1,32(s1)
80413220:	24060006 	li	a2,6
80413224:	0c10345e 	jal	8040d178 <lib_memcpy>
80413228:	ae220008 	sw	v0,8(s1)
8041322c:	8e230020 	lw	v1,32(s1)
80413230:	8e220008 	lw	v0,8(s1)
80413234:	27b00020 	addiu	s0,sp,32
80413238:	24630006 	addiu	v1,v1,6
8041323c:	2442fffa 	addiu	v0,v0,-6
80413240:	00602821 	move	a1,v1
80413244:	ae230020 	sw	v1,32(s1)
80413248:	02002021 	move	a0,s0
8041324c:	24060004 	li	a2,4
80413250:	0c10345e 	jal	8040d178 <lib_memcpy>
80413254:	ae220008 	sw	v0,8(s1)
80413258:	8e220020 	lw	v0,32(s1)
8041325c:	8e230008 	lw	v1,8(s1)
80413260:	02002021 	move	a0,s0
80413264:	24420004 	addiu	v0,v0,4
80413268:	2463fffc 	addiu	v1,v1,-4
8041326c:	ae220020 	sw	v0,32(s1)
80413270:	ae230008 	sw	v1,8(s1)
80413274:	02802821 	move	a1,s4
80413278:	0c10344d 	jal	8040d134 <lib_memcmp>
8041327c:	24060004 	li	a2,4
80413280:	1440006d 	bnez	v0,80413438 <arp_rx_callback+0x358>
80413284:	8fbf0050 	lw	ra,80(sp)
80413288:	12560005 	beq	s2,s6,804132a0 <arp_rx_callback+0x1c0>
8041328c:	24020002 	li	v0,2
80413290:	1242004e 	beq	s2,v0,804133cc <arp_rx_callback+0x2ec>
80413294:	27b20010 	addiu	s2,sp,16
80413298:	08104d0f 	j	8041343c <arp_rx_callback+0x35c>
8041329c:	8fb7004c 	lw	s7,76(sp)
804132a0:	8e840018 	lw	a0,24(s4)
804132a4:	8e850058 	lw	a1,88(s4)
804132a8:	0c10631d 	jal	80418c74 <eth_alloc>
804132ac:	2631002a 	addiu	s1,s1,42
804132b0:	10400060 	beqz	v0,80413434 <arp_rx_callback+0x354>
804132b4:	00408021 	move	s0,v0
804132b8:	8c440008 	lw	a0,8(v0)
804132bc:	8c420020 	lw	v0,32(v0)
804132c0:	2685005c 	addiu	a1,s4,92
804132c4:	24060006 	li	a2,6
804132c8:	00821021 	addu	v0,a0,v0
804132cc:	a0400000 	sb	zero,0(v0)
804132d0:	8e020020 	lw	v0,32(s0)
804132d4:	24840001 	addiu	a0,a0,1
804132d8:	24870007 	addiu	a3,a0,7
804132dc:	00821021 	addu	v0,a0,v0
804132e0:	a0520000 	sb	s2,0(v0)
804132e4:	8e030020 	lw	v1,32(s0)
804132e8:	24020008 	li	v0,8
804132ec:	00831821 	addu	v1,a0,v1
804132f0:	a0620001 	sb	v0,1(v1)
804132f4:	8e020020 	lw	v0,32(s0)
804132f8:	00821021 	addu	v0,a0,v0
804132fc:	a0400002 	sb	zero,2(v0)
80413300:	8e020020 	lw	v0,32(s0)
80413304:	00821021 	addu	v0,a0,v0
80413308:	a0570003 	sb	s7,3(v0)
8041330c:	8e020020 	lw	v0,32(s0)
80413310:	00821021 	addu	v0,a0,v0
80413314:	a0530004 	sb	s3,4(v0)
80413318:	8e020020 	lw	v0,32(s0)
8041331c:	00821021 	addu	v0,a0,v0
80413320:	a0400005 	sb	zero,5(v0)
80413324:	8e020020 	lw	v0,32(s0)
80413328:	00822021 	addu	a0,a0,v0
8041332c:	24020002 	li	v0,2
80413330:	a0820006 	sb	v0,6(a0)
80413334:	8e040020 	lw	a0,32(s0)
80413338:	ae070008 	sw	a3,8(s0)
8041333c:	0c10345e 	jal	8040d178 <lib_memcpy>
80413340:	00872021 	addu	a0,a0,a3
80413344:	8e020008 	lw	v0,8(s0)
80413348:	8e040020 	lw	a0,32(s0)
8041334c:	02802821 	move	a1,s4
80413350:	24420006 	addiu	v0,v0,6
80413354:	00822021 	addu	a0,a0,v0
80413358:	ae020008 	sw	v0,8(s0)
8041335c:	0c10345e 	jal	8040d178 <lib_memcpy>
80413360:	24060004 	li	a2,4
80413364:	8e020008 	lw	v0,8(s0)
80413368:	8e040020 	lw	a0,32(s0)
8041336c:	02a02821 	move	a1,s5
80413370:	24420004 	addiu	v0,v0,4
80413374:	00822021 	addu	a0,a0,v0
80413378:	ae020008 	sw	v0,8(s0)
8041337c:	0c10345e 	jal	8040d178 <lib_memcpy>
80413380:	24060006 	li	a2,6
80413384:	8e020008 	lw	v0,8(s0)
80413388:	8e040020 	lw	a0,32(s0)
8041338c:	27a50010 	addiu	a1,sp,16
80413390:	24420006 	addiu	v0,v0,6
80413394:	24060004 	li	a2,4
80413398:	00822021 	addu	a0,a0,v0
8041339c:	0c10345e 	jal	8040d178 <lib_memcpy>
804133a0:	ae020008 	sw	v0,8(s0)
804133a4:	8e020008 	lw	v0,8(s0)
804133a8:	02002021 	move	a0,s0
804133ac:	02202821 	move	a1,s1
804133b0:	24420004 	addiu	v0,v0,4
804133b4:	0c1062e3 	jal	80418b8c <eth_send>
804133b8:	ae020008 	sw	v0,8(s0)
804133bc:	0c10621f 	jal	8041887c <eth_free>
804133c0:	02002021 	move	a0,s0
804133c4:	08104d0e 	j	80413438 <arp_rx_callback+0x358>
804133c8:	8fbf0050 	lw	ra,80(sp)
804133cc:	8e900054 	lw	s0,84(s4)
804133d0:	24110007 	li	s1,7
804133d4:	8e020000 	lw	v0,0(s0)
804133d8:	2631ffff 	addiu	s1,s1,-1
804133dc:	26040014 	addiu	a0,s0,20
804133e0:	02402821 	move	a1,s2
804133e4:	10400011 	beqz	v0,8041342c <arp_rx_callback+0x34c>
804133e8:	24060004 	li	a2,4
804133ec:	0c10344d 	jal	8040d134 <lib_memcmp>
804133f0:	00000000 	nop
804133f4:	26040018 	addiu	a0,s0,24
804133f8:	02a02821 	move	a1,s5
804133fc:	1440000b 	bnez	v0,8041342c <arp_rx_callback+0x34c>
80413400:	24060006 	li	a2,6
80413404:	0c10345e 	jal	8040d178 <lib_memcpy>
80413408:	00000000 	nop
8041340c:	24020002 	li	v0,2
80413410:	ae020000 	sw	v0,0(s0)
80413414:	2402003c 	li	v0,60
80413418:	ae020008 	sw	v0,8(s0)
8041341c:	ae00000c 	sw	zero,12(s0)
80413420:	ae000010 	sw	zero,16(s0)
80413424:	0c104b83 	jal	80412e0c <arp_tx_waiting>
80413428:	02002021 	move	a0,s0
8041342c:	0621ffe9 	bgez	s1,804133d4 <arp_rx_callback+0x2f4>
80413430:	26100028 	addiu	s0,s0,40
80413434:	8fbf0050 	lw	ra,80(sp)
80413438:	8fb7004c 	lw	s7,76(sp)
8041343c:	8fb60048 	lw	s6,72(sp)
80413440:	8fb50044 	lw	s5,68(sp)
80413444:	8fb40040 	lw	s4,64(sp)
80413448:	8fb3003c 	lw	s3,60(sp)
8041344c:	8fb20038 	lw	s2,56(sp)
80413450:	8fb10034 	lw	s1,52(sp)
80413454:	8fb00030 	lw	s0,48(sp)
80413458:	00001021 	move	v0,zero
8041345c:	03e00008 	jr	ra
80413460:	27bd0058 	addiu	sp,sp,88

80413464 <_arp_timer_tick>:
80413464:	27bdffe0 	addiu	sp,sp,-32
80413468:	afb20018 	sw	s2,24(sp)
8041346c:	afb10014 	sw	s1,20(sp)
80413470:	afbf001c 	sw	ra,28(sp)
80413474:	afb00010 	sw	s0,16(sp)
80413478:	8c900054 	lw	s0,84(a0)
8041347c:	00809021 	move	s2,a0
80413480:	24110007 	li	s1,7
80413484:	8e030000 	lw	v1,0(s0)
80413488:	24020001 	li	v0,1
8041348c:	10620005 	beq	v1,v0,804134a4 <_arp_timer_tick+0x40>
80413490:	24020002 	li	v0,2
80413494:	10620011 	beq	v1,v0,804134dc <_arp_timer_tick+0x78>
80413498:	00000000 	nop
8041349c:	08104d3f 	j	804134fc <_arp_timer_tick+0x98>
804134a0:	2631ffff 	addiu	s1,s1,-1
804134a4:	8e020008 	lw	v0,8(s0)
804134a8:	2442ffff 	addiu	v0,v0,-1
804134ac:	1c400012 	bgtz	v0,804134f8 <_arp_timer_tick+0x94>
804134b0:	ae020008 	sw	v0,8(s0)
804134b4:	8e02000c 	lw	v0,12(s0)
804134b8:	1040000d 	beqz	v0,804134f0 <_arp_timer_tick+0x8c>
804134bc:	2442ffff 	addiu	v0,v0,-1
804134c0:	ae02000c 	sw	v0,12(s0)
804134c4:	ae030008 	sw	v1,8(s0)
804134c8:	02402021 	move	a0,s2
804134cc:	0c104aef 	jal	80412bbc <arp_tx_query>
804134d0:	26050014 	addiu	a1,s0,20
804134d4:	08104d3f 	j	804134fc <_arp_timer_tick+0x98>
804134d8:	2631ffff 	addiu	s1,s1,-1
804134dc:	8e020008 	lw	v0,8(s0)
804134e0:	10400005 	beqz	v0,804134f8 <_arp_timer_tick+0x94>
804134e4:	2442ffff 	addiu	v0,v0,-1
804134e8:	14400003 	bnez	v0,804134f8 <_arp_timer_tick+0x94>
804134ec:	ae020008 	sw	v0,8(s0)
804134f0:	0c104b4d 	jal	80412d34 <arp_delete>
804134f4:	02002021 	move	a0,s0
804134f8:	2631ffff 	addiu	s1,s1,-1
804134fc:	0621ffe1 	bgez	s1,80413484 <_arp_timer_tick+0x20>
80413500:	26100028 	addiu	s0,s0,40
80413504:	8fbf001c 	lw	ra,28(sp)
80413508:	8fb20018 	lw	s2,24(sp)
8041350c:	8fb10014 	lw	s1,20(sp)
80413510:	8fb00010 	lw	s0,16(sp)
80413514:	03e00008 	jr	ra
80413518:	27bd0020 	addiu	sp,sp,32

8041351c <_arp_send_gratuitous>:
8041351c:	90820000 	lbu	v0,0(a0)
80413520:	90830001 	lbu	v1,1(a0)
80413524:	90860002 	lbu	a2,2(a0)
80413528:	90870003 	lbu	a3,3(a0)
8041352c:	00431025 	or	v0,v0,v1
80413530:	00461025 	or	v0,v0,a2
80413534:	00471025 	or	v0,v0,a3
80413538:	304200ff 	andi	v0,v0,0xff
8041353c:	10400003 	beqz	v0,8041354c <_arp_send_gratuitous+0x30>
80413540:	00802821 	move	a1,a0
80413544:	08104aef 	j	80412bbc <arp_tx_query>
80413548:	00000000 	nop
8041354c:	03e00008 	jr	ra
80413550:	00000000 	nop

80413554 <_arp_init>:
80413554:	27bdffd0 	addiu	sp,sp,-48
80413558:	afb10024 	sw	s1,36(sp)
8041355c:	3c118042 	lui	s1,0x8042
80413560:	afb00020 	sw	s0,32(sp)
80413564:	24050140 	li	a1,320
80413568:	00808021 	move	s0,a0
8041356c:	00003021 	move	a2,zero
80413570:	afbf0028 	sw	ra,40(sp)
80413574:	0c103064 	jal	8040c190 <kmalloc>
80413578:	26242bec 	addiu	a0,s1,11244
8041357c:	ae020054 	sw	v0,84(s0)
80413580:	10400027 	beqz	v0,80413620 <_arp_init+0xcc>
80413584:	00001821 	move	v1,zero
80413588:	00401821 	move	v1,v0
8041358c:	24040007 	li	a0,7
80413590:	24620020 	addiu	v0,v1,32
80413594:	2484ffff 	addiu	a0,a0,-1
80413598:	ac620020 	sw	v0,32(v1)
8041359c:	ac600000 	sw	zero,0(v1)
804135a0:	ac600008 	sw	zero,8(v1)
804135a4:	ac600004 	sw	zero,4(v1)
804135a8:	ac60000c 	sw	zero,12(v1)
804135ac:	ac600010 	sw	zero,16(v1)
804135b0:	ac620024 	sw	v0,36(v1)
804135b4:	0481fff6 	bgez	a0,80413590 <_arp_init+0x3c>
804135b8:	24630028 	addiu	v1,v1,40
804135bc:	8e040018 	lw	a0,24(s0)
804135c0:	24020008 	li	v0,8
804135c4:	3c078041 	lui	a3,0x8041
804135c8:	a3a20018 	sb	v0,24(sp)
804135cc:	24e730e0 	addiu	a3,a3,12512
804135d0:	24020006 	li	v0,6
804135d4:	24050001 	li	a1,1
804135d8:	27a60018 	addiu	a2,sp,24
804135dc:	a3a20019 	sb	v0,25(sp)
804135e0:	0c1061f5 	jal	804187d4 <eth_open>
804135e4:	afb00010 	sw	s0,16(sp)
804135e8:	04410007 	bgez	v0,80413608 <_arp_init+0xb4>
804135ec:	ae020058 	sw	v0,88(s0)
804135f0:	8e050054 	lw	a1,84(s0)
804135f4:	0c103031 	jal	8040c0c4 <kfree>
804135f8:	26242bec 	addiu	a0,s1,11244
804135fc:	2403ffff 	li	v1,-1
80413600:	08104d88 	j	80413620 <_arp_init+0xcc>
80413604:	ae000054 	sw	zero,84(s0)
80413608:	8e040018 	lw	a0,24(s0)
8041360c:	0c106283 	jal	80418a0c <eth_gethwaddr>
80413610:	2605005c 	addiu	a1,s0,92
80413614:	0c104d47 	jal	8041351c <_arp_send_gratuitous>
80413618:	02002021 	move	a0,s0
8041361c:	00001821 	move	v1,zero
80413620:	8fbf0028 	lw	ra,40(sp)
80413624:	8fb10024 	lw	s1,36(sp)
80413628:	8fb00020 	lw	s0,32(sp)
8041362c:	00601021 	move	v0,v1
80413630:	03e00008 	jr	ra
80413634:	27bd0030 	addiu	sp,sp,48

80413638 <_arp_uninit>:
80413638:	27bdffe0 	addiu	sp,sp,-32
8041363c:	afb20018 	sw	s2,24(sp)
80413640:	afb10014 	sw	s1,20(sp)
80413644:	afb00010 	sw	s0,16(sp)
80413648:	afbf001c 	sw	ra,28(sp)
8041364c:	00809021 	move	s2,a0
80413650:	8e450058 	lw	a1,88(s2)
80413654:	8c840018 	lw	a0,24(a0)
80413658:	0c106213 	jal	8041884c <eth_close>
8041365c:	24110007 	li	s1,7
80413660:	8e500054 	lw	s0,84(s2)
80413664:	8e020000 	lw	v0,0(s0)
80413668:	02002021 	move	a0,s0
8041366c:	2631ffff 	addiu	s1,s1,-1
80413670:	10400003 	beqz	v0,80413680 <_arp_uninit+0x48>
80413674:	26100028 	addiu	s0,s0,40
80413678:	0c104b4d 	jal	80412d34 <arp_delete>
8041367c:	00000000 	nop
80413680:	0621fff8 	bgez	s1,80413664 <_arp_uninit+0x2c>
80413684:	3c048042 	lui	a0,0x8042
80413688:	8e450054 	lw	a1,84(s2)
8041368c:	0c103031 	jal	8040c0c4 <kfree>
80413690:	24842bec 	addiu	a0,a0,11244
80413694:	2402ffff 	li	v0,-1
80413698:	ae420058 	sw	v0,88(s2)
8041369c:	ae400054 	sw	zero,84(s2)
804136a0:	8fbf001c 	lw	ra,28(sp)
804136a4:	8fb20018 	lw	s2,24(sp)
804136a8:	8fb10014 	lw	s1,20(sp)
804136ac:	8fb00010 	lw	s0,16(sp)
804136b0:	03e00008 	jr	ra
804136b4:	27bd0020 	addiu	sp,sp,32

804136b8 <_arp_enumerate>:
804136b8:	27bdffe0 	addiu	sp,sp,-32
804136bc:	afb10014 	sw	s1,20(sp)
804136c0:	afbf0018 	sw	ra,24(sp)
804136c4:	afb00010 	sw	s0,16(sp)
804136c8:	8c900054 	lw	s0,84(a0)
804136cc:	00e08821 	move	s1,a3
804136d0:	00c02021 	move	a0,a2
804136d4:	00001821 	move	v1,zero
804136d8:	8e020000 	lw	v0,0(s0)
804136dc:	24630001 	addiu	v1,v1,1
804136e0:	1040000d 	beqz	v0,80413718 <_arp_enumerate+0x60>
804136e4:	28670008 	slti	a3,v1,8
804136e8:	14a0000b 	bnez	a1,80413718 <_arp_enumerate+0x60>
804136ec:	24a5ffff 	addiu	a1,a1,-1
804136f0:	24a50001 	addiu	a1,a1,1
804136f4:	26050014 	addiu	a1,s0,20
804136f8:	0c10345e 	jal	8040d178 <lib_memcpy>
804136fc:	24060004 	li	a2,4
80413700:	02202021 	move	a0,s1
80413704:	26050018 	addiu	a1,s0,24
80413708:	0c10345e 	jal	8040d178 <lib_memcpy>
8041370c:	24060006 	li	a2,6
80413710:	08104dc9 	j	80413724 <_arp_enumerate+0x6c>
80413714:	00001021 	move	v0,zero
80413718:	14e0ffef 	bnez	a3,804136d8 <_arp_enumerate+0x20>
8041371c:	26100028 	addiu	s0,s0,40
80413720:	2402ffff 	li	v0,-1
80413724:	8fbf0018 	lw	ra,24(sp)
80413728:	8fb10014 	lw	s1,20(sp)
8041372c:	8fb00010 	lw	s0,16(sp)
80413730:	03e00008 	jr	ra
80413734:	27bd0020 	addiu	sp,sp,32

80413738 <_arp_delete>:
80413738:	27bdffe8 	addiu	sp,sp,-24
8041373c:	afbf0010 	sw	ra,16(sp)
80413740:	0c104b98 	jal	80412e60 <arp_find_entry>
80413744:	00000000 	nop
80413748:	00402021 	move	a0,v0
8041374c:	10400004 	beqz	v0,80413760 <_arp_delete+0x28>
80413750:	2403ffff 	li	v1,-1
80413754:	0c104b4d 	jal	80412d34 <arp_delete>
80413758:	00000000 	nop
8041375c:	00001821 	move	v1,zero
80413760:	8fbf0010 	lw	ra,16(sp)
80413764:	00601021 	move	v0,v1
80413768:	03e00008 	jr	ra
8041376c:	27bd0018 	addiu	sp,sp,24

80413770 <udp_alloc>:
80413770:	8f83811c 	lw	v1,-32484(gp)
80413774:	10600003 	beqz	v1,80413784 <udp_alloc+0x14>
80413778:	00001021 	move	v0,zero
8041377c:	08106549 	j	80419524 <_udp_alloc>
80413780:	8c640014 	lw	a0,20(v1)
80413784:	03e00008 	jr	ra
80413788:	00000000 	nop

8041378c <udp_free>:
8041378c:	8f82811c 	lw	v0,-32484(gp)
80413790:	10400003 	beqz	v0,804137a0 <udp_free+0x14>
80413794:	00802821 	move	a1,a0
80413798:	08106559 	j	80419564 <_udp_free>
8041379c:	8c440014 	lw	a0,20(v0)
804137a0:	03e00008 	jr	ra
804137a4:	00000000 	nop

804137a8 <udp_socket>:
804137a8:	8f82811c 	lw	v0,-32484(gp)
804137ac:	3084ffff 	andi	a0,a0,0xffff
804137b0:	10400003 	beqz	v0,804137c0 <udp_socket+0x18>
804137b4:	00802821 	move	a1,a0
804137b8:	081063c5 	j	80418f14 <_udp_socket>
804137bc:	8c440014 	lw	a0,20(v0)
804137c0:	03e00008 	jr	ra
804137c4:	2402ffff 	li	v0,-1

804137c8 <udp_close>:
804137c8:	8f82811c 	lw	v0,-32484(gp)
804137cc:	10400003 	beqz	v0,804137dc <udp_close+0x14>
804137d0:	00802821 	move	a1,a0
804137d4:	081063f6 	j	80418fd8 <_udp_close>
804137d8:	8c440014 	lw	a0,20(v0)
804137dc:	03e00008 	jr	ra
804137e0:	00000000 	nop

804137e4 <udp_send>:
804137e4:	8f83811c 	lw	v1,-32484(gp)
804137e8:	00a01021 	move	v0,a1
804137ec:	00c03821 	move	a3,a2
804137f0:	00802821 	move	a1,a0
804137f4:	10600003 	beqz	v1,80413804 <udp_send+0x20>
804137f8:	00403021 	move	a2,v0
804137fc:	08106410 	j	80419040 <_udp_send>
80413800:	8c640014 	lw	a0,20(v1)
80413804:	03e00008 	jr	ra
80413808:	2402ffff 	li	v0,-1

8041380c <udp_bind>:
8041380c:	8f82811c 	lw	v0,-32484(gp)
80413810:	30a5ffff 	andi	a1,a1,0xffff
80413814:	00a03021 	move	a2,a1
80413818:	10400003 	beqz	v0,80413828 <udp_bind+0x1c>
8041381c:	00802821 	move	a1,a0
80413820:	08106461 	j	80419184 <_udp_bind>
80413824:	8c440014 	lw	a0,20(v0)
80413828:	03e00008 	jr	ra
8041382c:	2402ffff 	li	v0,-1

80413830 <udp_connect>:
80413830:	8f82811c 	lw	v0,-32484(gp)
80413834:	30a5ffff 	andi	a1,a1,0xffff
80413838:	00a03021 	move	a2,a1
8041383c:	10400003 	beqz	v0,8041384c <udp_connect+0x1c>
80413840:	00802821 	move	a1,a0
80413844:	08106477 	j	804191dc <_udp_connect>
80413848:	8c440014 	lw	a0,20(v0)
8041384c:	03e00008 	jr	ra
80413850:	2402ffff 	li	v0,-1

80413854 <udp_recv>:
80413854:	8f82811c 	lw	v0,-32484(gp)
80413858:	10400003 	beqz	v0,80413868 <udp_recv+0x14>
8041385c:	00802821 	move	a1,a0
80413860:	081064f6 	j	804193d8 <_udp_recv>
80413864:	8c440014 	lw	a0,20(v0)
80413868:	03e00008 	jr	ra
8041386c:	00001021 	move	v0,zero

80413870 <udp_recv_with_timeout>:
80413870:	8f82811c 	lw	v0,-32484(gp)
80413874:	27bdffe0 	addiu	sp,sp,-32
80413878:	afb20018 	sw	s2,24(sp)
8041387c:	afbf001c 	sw	ra,28(sp)
80413880:	afb10014 	sw	s1,20(sp)
80413884:	afb00010 	sw	s0,16(sp)
80413888:	00809021 	move	s2,a0
8041388c:	00003821 	move	a3,zero
80413890:	10400026 	beqz	v0,8041392c <udp_recv_with_timeout+0xbc>
80413894:	00001821 	move	v1,zero
80413898:	00051080 	sll	v0,a1,0x2
8041389c:	00451021 	addu	v0,v0,a1
804138a0:	8f85813c 	lw	a1,-32452(gp)
804138a4:	00021040 	sll	v0,v0,0x1
804138a8:	8f848138 	lw	a0,-32456(gp)
804138ac:	00401821 	move	v1,v0
804138b0:	00a38821 	addu	s1,a1,v1
804138b4:	000217c3 	sra	v0,v0,0x1f
804138b8:	00828021 	addu	s0,a0,v0
804138bc:	0223302b 	sltu	a2,s1,v1
804138c0:	02068021 	addu	s0,s0,a2
804138c4:	08104e3d 	j	804138f4 <udp_recv_with_timeout+0x84>
804138c8:	02111025 	or	v0,s0,s1
804138cc:	8f82813c 	lw	v0,-32452(gp)
804138d0:	0c103c5c 	jal	8040f170 <background>
804138d4:	00000000 	nop
804138d8:	8f82811c 	lw	v0,-32484(gp)
804138dc:	02402821 	move	a1,s2
804138e0:	0c1064f6 	jal	804193d8 <_udp_recv>
804138e4:	8c440014 	lw	a0,20(v0)
804138e8:	00403821 	move	a3,v0
804138ec:	14e0000e 	bnez	a3,80413928 <udp_recv_with_timeout+0xb8>
804138f0:	02111025 	or	v0,s0,s1
804138f4:	1040fff6 	beqz	v0,804138d0 <udp_recv_with_timeout+0x60>
804138f8:	00000000 	nop
804138fc:	8f828138 	lw	v0,-32456(gp)
80413900:	0202102a 	slt	v0,s0,v0
80413904:	14400009 	bnez	v0,8041392c <udp_recv_with_timeout+0xbc>
80413908:	00e01821 	move	v1,a3
8041390c:	8f828138 	lw	v0,-32456(gp)
80413910:	1450ffef 	bne	v0,s0,804138d0 <udp_recv_with_timeout+0x60>
80413914:	00000000 	nop
80413918:	8f82813c 	lw	v0,-32452(gp)
8041391c:	0222102b 	sltu	v0,s1,v0
80413920:	1040ffea 	beqz	v0,804138cc <udp_recv_with_timeout+0x5c>
80413924:	00000000 	nop
80413928:	00e01821 	move	v1,a3
8041392c:	8fbf001c 	lw	ra,28(sp)
80413930:	8fb20018 	lw	s2,24(sp)
80413934:	8fb10014 	lw	s1,20(sp)
80413938:	8fb00010 	lw	s0,16(sp)
8041393c:	00601021 	move	v0,v1
80413940:	03e00008 	jr	ra
80413944:	27bd0020 	addiu	sp,sp,32

80413948 <tcp_socket>:
80413948:	8f83811c 	lw	v1,-32484(gp)
8041394c:	10600003 	beqz	v1,8041395c <tcp_socket+0x14>
80413950:	2402ffff 	li	v0,-1
80413954:	08105137 	j	804144dc <_tcp_socket>
80413958:	8c64001c 	lw	a0,28(v1)
8041395c:	03e00008 	jr	ra
80413960:	00000000 	nop

80413964 <tcp_connect>:
80413964:	8f82811c 	lw	v0,-32484(gp)
80413968:	27bdffd0 	addiu	sp,sp,-48
8041396c:	afb20028 	sw	s2,40(sp)
80413970:	afb10024 	sw	s1,36(sp)
80413974:	afb00020 	sw	s0,32(sp)
80413978:	afbf002c 	sw	ra,44(sp)
8041397c:	00808821 	move	s1,a0
80413980:	00a09021 	move	s2,a1
80413984:	30d0ffff 	andi	s0,a2,0xffff
80413988:	1040002e 	beqz	v0,80413a44 <tcp_connect+0xe0>
8041398c:	2403ffff 	li	v1,-1
80413990:	8c44001c 	lw	a0,28(v0)
80413994:	02202821 	move	a1,s1
80413998:	0c1051e1 	jal	80414784 <_tcp_getflags>
8041399c:	27a60018 	addiu	a2,sp,24
804139a0:	04400028 	bltz	v0,80413a44 <tcp_connect+0xe0>
804139a4:	00401821 	move	v1,v0
804139a8:	8fa20018 	lw	v0,24(sp)
804139ac:	00021042 	srl	v0,v0,0x1
804139b0:	30420001 	andi	v0,v0,0x1
804139b4:	10400008 	beqz	v0,804139d8 <tcp_connect+0x74>
804139b8:	8f83811c 	lw	v1,-32484(gp)
804139bc:	8c64001c 	lw	a0,28(v1)
804139c0:	02202821 	move	a1,s1
804139c4:	02403021 	move	a2,s2
804139c8:	0c105479 	jal	804151e4 <_tcp_connect>
804139cc:	02003821 	move	a3,s0
804139d0:	08104e91 	j	80413a44 <tcp_connect+0xe0>
804139d4:	00401821 	move	v1,v0
804139d8:	8c64001c 	lw	a0,28(v1)
804139dc:	02403021 	move	a2,s2
804139e0:	02003821 	move	a3,s0
804139e4:	0c105479 	jal	804151e4 <_tcp_connect>
804139e8:	02202821 	move	a1,s1
804139ec:	04400015 	bltz	v0,80413a44 <tcp_connect+0xe0>
804139f0:	00401821 	move	v1,v0
804139f4:	afa0001c 	sw	zero,28(sp)
804139f8:	0c103c5c 	jal	8040f170 <background>
804139fc:	00000000 	nop
80413a00:	8f82811c 	lw	v0,-32484(gp)
80413a04:	02202821 	move	a1,s1
80413a08:	27a6001c 	addiu	a2,sp,28
80413a0c:	8c44001c 	lw	a0,28(v0)
80413a10:	00003821 	move	a3,zero
80413a14:	0c105241 	jal	80414904 <_tcp_status>
80413a18:	afa00010 	sw	zero,16(sp)
80413a1c:	04400005 	bltz	v0,80413a34 <tcp_connect+0xd0>
80413a20:	00402021 	move	a0,v0
80413a24:	8fa3001c 	lw	v1,28(sp)
80413a28:	24020001 	li	v0,1
80413a2c:	1062fff2 	beq	v1,v0,804139f8 <tcp_connect+0x94>
80413a30:	00000000 	nop
80413a34:	8fa2001c 	lw	v0,28(sp)
80413a38:	2403ffd9 	li	v1,-39
80413a3c:	38420002 	xori	v0,v0,0x2
80413a40:	0082180a 	movz	v1,a0,v0
80413a44:	8fbf002c 	lw	ra,44(sp)
80413a48:	8fb20028 	lw	s2,40(sp)
80413a4c:	8fb10024 	lw	s1,36(sp)
80413a50:	8fb00020 	lw	s0,32(sp)
80413a54:	00601021 	move	v0,v1
80413a58:	03e00008 	jr	ra
80413a5c:	27bd0030 	addiu	sp,sp,48

80413a60 <tcp_close>:
80413a60:	8f82811c 	lw	v0,-32484(gp)
80413a64:	10400003 	beqz	v0,80413a74 <tcp_close+0x14>
80413a68:	00802821 	move	a1,a0
80413a6c:	08105447 	j	8041511c <_tcp_close>
80413a70:	8c44001c 	lw	a0,28(v0)
80413a74:	03e00008 	jr	ra
80413a78:	2402ffff 	li	v0,-1

80413a7c <tcp_send>:
80413a7c:	8f82811c 	lw	v0,-32484(gp)
80413a80:	27bdffd0 	addiu	sp,sp,-48
80413a84:	afb30024 	sw	s3,36(sp)
80413a88:	afb1001c 	sw	s1,28(sp)
80413a8c:	afb00018 	sw	s0,24(sp)
80413a90:	afbf0028 	sw	ra,40(sp)
80413a94:	afb20020 	sw	s2,32(sp)
80413a98:	00809821 	move	s3,a0
80413a9c:	00a08821 	move	s1,a1
80413aa0:	00c08021 	move	s0,a2
80413aa4:	10400031 	beqz	v0,80413b6c <tcp_send+0xf0>
80413aa8:	2403ffff 	li	v1,-1
80413aac:	8c44001c 	lw	a0,28(v0)
80413ab0:	02602821 	move	a1,s3
80413ab4:	0c1051e1 	jal	80414784 <_tcp_getflags>
80413ab8:	27a60010 	addiu	a2,sp,16
80413abc:	0440002b 	bltz	v0,80413b6c <tcp_send+0xf0>
80413ac0:	00401821 	move	v1,v0
80413ac4:	8fa20010 	lw	v0,16(sp)
80413ac8:	00021042 	srl	v0,v0,0x1
80413acc:	30420001 	andi	v0,v0,0x1
80413ad0:	10400008 	beqz	v0,80413af4 <tcp_send+0x78>
80413ad4:	8f83811c 	lw	v1,-32484(gp)
80413ad8:	8c64001c 	lw	a0,28(v1)
80413adc:	02602821 	move	a1,s3
80413ae0:	02203021 	move	a2,s1
80413ae4:	0c10534b 	jal	80414d2c <_tcp_send>
80413ae8:	02003821 	move	a3,s0
80413aec:	08104edb 	j	80413b6c <tcp_send+0xf0>
80413af0:	00401821 	move	v1,v0
80413af4:	8c64001c 	lw	a0,28(v1)
80413af8:	02602821 	move	a1,s3
80413afc:	02203021 	move	a2,s1
80413b00:	0c10534b 	jal	80414d2c <_tcp_send>
80413b04:	02003821 	move	a3,s0
80413b08:	04400018 	bltz	v0,80413b6c <tcp_send+0xf0>
80413b0c:	00401821 	move	v1,v0
80413b10:	02028023 	subu	s0,s0,v0
80413b14:	02228821 	addu	s1,s1,v0
80413b18:	00409021 	move	s2,v0
80413b1c:	1a00000e 	blez	s0,80413b58 <tcp_send+0xdc>
80413b20:	00000000 	nop
80413b24:	0c103c5c 	jal	8040f170 <background>
80413b28:	00000000 	nop
80413b2c:	8f82811c 	lw	v0,-32484(gp)
80413b30:	02203021 	move	a2,s1
80413b34:	02003821 	move	a3,s0
80413b38:	8c44001c 	lw	a0,28(v0)
80413b3c:	0c10534b 	jal	80414d2c <_tcp_send>
80413b40:	02602821 	move	a1,s3
80413b44:	02028023 	subu	s0,s0,v0
80413b48:	04400003 	bltz	v0,80413b58 <tcp_send+0xdc>
80413b4c:	02228821 	addu	s1,s1,v0
80413b50:	08104ec7 	j	80413b1c <tcp_send+0xa0>
80413b54:	02429021 	addu	s2,s2,v0
80413b58:	16400004 	bnez	s2,80413b6c <tcp_send+0xf0>
80413b5c:	02401821 	move	v1,s2
80413b60:	04400002 	bltz	v0,80413b6c <tcp_send+0xf0>
80413b64:	00401821 	move	v1,v0
80413b68:	02401821 	move	v1,s2
80413b6c:	8fbf0028 	lw	ra,40(sp)
80413b70:	8fb30024 	lw	s3,36(sp)
80413b74:	8fb20020 	lw	s2,32(sp)
80413b78:	8fb1001c 	lw	s1,28(sp)
80413b7c:	8fb00018 	lw	s0,24(sp)
80413b80:	00601021 	move	v0,v1
80413b84:	03e00008 	jr	ra
80413b88:	27bd0030 	addiu	sp,sp,48

80413b8c <tcp_recv>:
80413b8c:	8f83811c 	lw	v1,-32484(gp)
80413b90:	27bdffc8 	addiu	sp,sp,-56
80413b94:	afb40030 	sw	s4,48(sp)
80413b98:	afb20028 	sw	s2,40(sp)
80413b9c:	afb10024 	sw	s1,36(sp)
80413ba0:	afbf0034 	sw	ra,52(sp)
80413ba4:	afb3002c 	sw	s3,44(sp)
80413ba8:	afb00020 	sw	s0,32(sp)
80413bac:	0080a021 	move	s4,a0
80413bb0:	00a09021 	move	s2,a1
80413bb4:	00c08821 	move	s1,a2
80413bb8:	10600042 	beqz	v1,80413cc4 <tcp_recv+0x138>
80413bbc:	2402ffff 	li	v0,-1
80413bc0:	8c64001c 	lw	a0,28(v1)
80413bc4:	02802821 	move	a1,s4
80413bc8:	0c1051e1 	jal	80414784 <_tcp_getflags>
80413bcc:	27a60018 	addiu	a2,sp,24
80413bd0:	00408021 	move	s0,v0
80413bd4:	0600003c 	bltz	s0,80413cc8 <tcp_recv+0x13c>
80413bd8:	8fbf0034 	lw	ra,52(sp)
80413bdc:	8fa20018 	lw	v0,24(sp)
80413be0:	00021042 	srl	v0,v0,0x1
80413be4:	30420001 	andi	v0,v0,0x1
80413be8:	10400008 	beqz	v0,80413c0c <tcp_recv+0x80>
80413bec:	8f83811c 	lw	v1,-32484(gp)
80413bf0:	8c64001c 	lw	a0,28(v1)
80413bf4:	02802821 	move	a1,s4
80413bf8:	02403021 	move	a2,s2
80413bfc:	0c1051ae 	jal	804146b8 <_tcp_recv>
80413c00:	02203821 	move	a3,s1
80413c04:	08104f32 	j	80413cc8 <tcp_recv+0x13c>
80413c08:	8fbf0034 	lw	ra,52(sp)
80413c0c:	8c64001c 	lw	a0,28(v1)
80413c10:	02802821 	move	a1,s4
80413c14:	02403021 	move	a2,s2
80413c18:	0c1051ae 	jal	804146b8 <_tcp_recv>
80413c1c:	02203821 	move	a3,s1
80413c20:	00408021 	move	s0,v0
80413c24:	06000027 	bltz	s0,80413cc4 <tcp_recv+0x138>
80413c28:	02308823 	subu	s1,s1,s0
80413c2c:	08104f0f 	j	80413c3c <tcp_recv+0xb0>
80413c30:	02509021 	addu	s2,s2,s0
80413c34:	08104f2c 	j	80413cb0 <tcp_recv+0x124>
80413c38:	2410ffd9 	li	s0,-39
80413c3c:	02009821 	move	s3,s0
80413c40:	1a20001b 	blez	s1,80413cb0 <tcp_recv+0x124>
80413c44:	00000000 	nop
80413c48:	0c103c5c 	jal	8040f170 <background>
80413c4c:	00000000 	nop
80413c50:	8f82811c 	lw	v0,-32484(gp)
80413c54:	02403021 	move	a2,s2
80413c58:	02203821 	move	a3,s1
80413c5c:	8c44001c 	lw	a0,28(v0)
80413c60:	0c1051ae 	jal	804146b8 <_tcp_recv>
80413c64:	02802821 	move	a1,s4
80413c68:	00408021 	move	s0,v0
80413c6c:	02802821 	move	a1,s4
80413c70:	27a60018 	addiu	a2,sp,24
80413c74:	00003821 	move	a3,zero
80413c78:	02228823 	subu	s1,s1,v0
80413c7c:	0440000c 	bltz	v0,80413cb0 <tcp_recv+0x124>
80413c80:	02429021 	addu	s2,s2,v0
80413c84:	14400008 	bnez	v0,80413ca8 <tcp_recv+0x11c>
80413c88:	8f82811c 	lw	v0,-32484(gp)
80413c8c:	8c44001c 	lw	a0,28(v0)
80413c90:	0c105241 	jal	80414904 <_tcp_status>
80413c94:	afa00010 	sw	zero,16(sp)
80413c98:	8fa30018 	lw	v1,24(sp)
80413c9c:	24020002 	li	v0,2
80413ca0:	1462ffe4 	bne	v1,v0,80413c34 <tcp_recv+0xa8>
80413ca4:	00000000 	nop
80413ca8:	08104f10 	j	80413c40 <tcp_recv+0xb4>
80413cac:	02709821 	addu	s3,s3,s0
80413cb0:	16600004 	bnez	s3,80413cc4 <tcp_recv+0x138>
80413cb4:	02601021 	move	v0,s3
80413cb8:	06000002 	bltz	s0,80413cc4 <tcp_recv+0x138>
80413cbc:	02001021 	move	v0,s0
80413cc0:	02601021 	move	v0,s3
80413cc4:	8fbf0034 	lw	ra,52(sp)
80413cc8:	8fb40030 	lw	s4,48(sp)
80413ccc:	8fb3002c 	lw	s3,44(sp)
80413cd0:	8fb20028 	lw	s2,40(sp)
80413cd4:	8fb10024 	lw	s1,36(sp)
80413cd8:	8fb00020 	lw	s0,32(sp)
80413cdc:	03e00008 	jr	ra
80413ce0:	27bd0038 	addiu	sp,sp,56

80413ce4 <tcp_bind>:
80413ce4:	8f82811c 	lw	v0,-32484(gp)
80413ce8:	30a5ffff 	andi	a1,a1,0xffff
80413cec:	00a03021 	move	a2,a1
80413cf0:	10400003 	beqz	v0,80413d00 <tcp_bind+0x1c>
80413cf4:	00802821 	move	a1,a0
80413cf8:	081051c1 	j	80414704 <_tcp_bind>
80413cfc:	8c44001c 	lw	a0,28(v0)
80413d00:	03e00008 	jr	ra
80413d04:	2402ffff 	li	v0,-1

80413d08 <tcp_peeraddr>:
80413d08:	8f83811c 	lw	v1,-32484(gp)
80413d0c:	00a01021 	move	v0,a1
80413d10:	00c03821 	move	a3,a2
80413d14:	00802821 	move	a1,a0
80413d18:	10600003 	beqz	v1,80413d28 <tcp_peeraddr+0x20>
80413d1c:	00403021 	move	a2,v0
80413d20:	081051eb 	j	804147ac <_tcp_peeraddr>
80413d24:	8c64001c 	lw	a0,28(v1)
80413d28:	03e00008 	jr	ra
80413d2c:	2402ffff 	li	v0,-1

80413d30 <tcp_setflags>:
80413d30:	8f82811c 	lw	v0,-32484(gp)
80413d34:	00a03021 	move	a2,a1
80413d38:	10400003 	beqz	v0,80413d48 <tcp_setflags+0x18>
80413d3c:	00802821 	move	a1,a0
80413d40:	081051d8 	j	80414760 <_tcp_setflags>
80413d44:	8c44001c 	lw	a0,28(v0)
80413d48:	03e00008 	jr	ra
80413d4c:	2402ffff 	li	v0,-1

80413d50 <tcp_getflags>:
80413d50:	8f82811c 	lw	v0,-32484(gp)
80413d54:	00a03021 	move	a2,a1
80413d58:	10400003 	beqz	v0,80413d68 <tcp_getflags+0x18>
80413d5c:	00802821 	move	a1,a0
80413d60:	081051e1 	j	80414784 <_tcp_getflags>
80413d64:	8c44001c 	lw	a0,28(v0)
80413d68:	03e00008 	jr	ra
80413d6c:	2402ffff 	li	v0,-1

80413d70 <tcp_listen>:
80413d70:	8f82811c 	lw	v0,-32484(gp)
80413d74:	30a5ffff 	andi	a1,a1,0xffff
80413d78:	00a03021 	move	a2,a1
80413d7c:	10400003 	beqz	v0,80413d8c <tcp_listen+0x1c>
80413d80:	00802821 	move	a1,a0
80413d84:	0810520c 	j	80414830 <_tcp_listen>
80413d88:	8c44001c 	lw	a0,28(v0)
80413d8c:	03e00008 	jr	ra
80413d90:	2402ffff 	li	v0,-1

80413d94 <tcp_status>:
80413d94:	8f88811c 	lw	t0,-32484(gp)
80413d98:	00a01021 	move	v0,a1
80413d9c:	00c01821 	move	v1,a2
80413da0:	27bdffe0 	addiu	sp,sp,-32
80413da4:	00403021 	move	a2,v0
80413da8:	00e04821 	move	t1,a3
80413dac:	afbf0018 	sw	ra,24(sp)
80413db0:	00802821 	move	a1,a0
80413db4:	00603821 	move	a3,v1
80413db8:	11000004 	beqz	t0,80413dcc <tcp_status+0x38>
80413dbc:	2402ffff 	li	v0,-1
80413dc0:	8d04001c 	lw	a0,28(t0)
80413dc4:	0c105241 	jal	80414904 <_tcp_status>
80413dc8:	afa90010 	sw	t1,16(sp)
80413dcc:	8fbf0018 	lw	ra,24(sp)
80413dd0:	03e00008 	jr	ra
80413dd4:	27bd0020 	addiu	sp,sp,32

80413dd8 <tcp_debug>:
80413dd8:	8f82811c 	lw	v0,-32484(gp)
80413ddc:	00a03021 	move	a2,a1
80413de0:	10400003 	beqz	v0,80413df0 <tcp_debug+0x18>
80413de4:	00802821 	move	a1,a0
80413de8:	0810526c 	j	804149b0 <_tcp_debug>
80413dec:	8c44001c 	lw	a0,28(v0)
80413df0:	03e00008 	jr	ra
80413df4:	2402ffff 	li	v0,-1

80413df8 <arp_add>:
80413df8:	8f82811c 	lw	v0,-32484(gp)
80413dfc:	00a03021 	move	a2,a1
80413e00:	10400003 	beqz	v0,80413e10 <arp_add+0x18>
80413e04:	00802821 	move	a1,a0
80413e08:	08104c11 	j	80413044 <_arp_add>
80413e0c:	8c44000c 	lw	a0,12(v0)
80413e10:	03e00008 	jr	ra
80413e14:	00000000 	nop

80413e18 <arp_lookup>:
80413e18:	8f82811c 	lw	v0,-32484(gp)
80413e1c:	10400003 	beqz	v0,80413e2c <arp_lookup+0x14>
80413e20:	00802821 	move	a1,a0
80413e24:	08104c07 	j	8041301c <_arp_lookup>
80413e28:	8c44000c 	lw	a0,12(v0)
80413e2c:	03e00008 	jr	ra
80413e30:	00001021 	move	v0,zero

80413e34 <arp_enumerate>:
80413e34:	8f83811c 	lw	v1,-32484(gp)
80413e38:	00a01021 	move	v0,a1
80413e3c:	00c03821 	move	a3,a2
80413e40:	00802821 	move	a1,a0
80413e44:	10600003 	beqz	v1,80413e54 <arp_enumerate+0x20>
80413e48:	00403021 	move	a2,v0
80413e4c:	08104dae 	j	804136b8 <_arp_enumerate>
80413e50:	8c64000c 	lw	a0,12(v1)
80413e54:	03e00008 	jr	ra
80413e58:	2402ffff 	li	v0,-1

80413e5c <arp_delete>:
80413e5c:	8f82811c 	lw	v0,-32484(gp)
80413e60:	10400003 	beqz	v0,80413e70 <arp_delete+0x14>
80413e64:	00802821 	move	a1,a0
80413e68:	08104dce 	j	80413738 <_arp_delete>
80413e6c:	8c44000c 	lw	a0,12(v0)
80413e70:	03e00008 	jr	ra
80413e74:	2402ffff 	li	v0,-1

80413e78 <icmp_ping>:
80413e78:	8f83811c 	lw	v1,-32484(gp)
80413e7c:	00a01021 	move	v0,a1
80413e80:	00c03821 	move	a3,a2
80413e84:	00802821 	move	a1,a0
80413e88:	10600003 	beqz	v1,80413e98 <icmp_ping+0x20>
80413e8c:	00403021 	move	a2,v0
80413e90:	08102243 	j	8040890c <_icmp_ping>
80413e94:	8c640018 	lw	a0,24(v1)
80413e98:	03e00008 	jr	ra
80413e9c:	2402ffff 	li	v0,-1

80413ea0 <net_getparam>:
80413ea0:	8f83811c 	lw	v1,-32484(gp)
80413ea4:	10600008 	beqz	v1,80413ec8 <net_getparam+0x28>
80413ea8:	00001021 	move	v0,zero
80413eac:	2402000a 	li	v0,10
80413eb0:	14820003 	bne	a0,v0,80413ec0 <net_getparam+0x20>
80413eb4:	00802821 	move	a1,a0
80413eb8:	03e00008 	jr	ra
80413ebc:	8c620008 	lw	v0,8(v1)
80413ec0:	081048f5 	j	804123d4 <_ip_getparam>
80413ec4:	8c64000c 	lw	a0,12(v1)
80413ec8:	03e00008 	jr	ra
80413ecc:	00000000 	nop

80413ed0 <net_setparam>:
80413ed0:	8f82811c 	lw	v0,-32484(gp)
80413ed4:	00a03021 	move	a2,a1
80413ed8:	10400003 	beqz	v0,80413ee8 <net_setparam+0x18>
80413edc:	00802821 	move	a1,a0
80413ee0:	08104911 	j	80412444 <_ip_setparam>
80413ee4:	8c44000c 	lw	a0,12(v0)
80413ee8:	03e00008 	jr	ra
80413eec:	00001021 	move	v0,zero

80413ef0 <net_poll>:
80413ef0:	8f82811c 	lw	v0,-32484(gp)
80413ef4:	27bdffe8 	addiu	sp,sp,-24
80413ef8:	10400022 	beqz	v0,80413f84 <net_poll+0x94>
80413efc:	afbf0010 	sw	ra,16(sp)
80413f00:	0c106223 	jal	8041888c <eth_poll>
80413f04:	8c440010 	lw	a0,16(v0)
80413f08:	8f83811c 	lw	v1,-32484(gp)
80413f0c:	8c620000 	lw	v0,0(v1)
80413f10:	8c650004 	lw	a1,4(v1)
80413f14:	00402021 	move	a0,v0
80413f18:	00451025 	or	v0,v0,a1
80413f1c:	1040001a 	beqz	v0,80413f88 <net_poll+0x98>
80413f20:	8fbf0010 	lw	ra,16(sp)
80413f24:	8f828138 	lw	v0,-32456(gp)
80413f28:	0082102a 	slt	v0,a0,v0
80413f2c:	1440000b 	bnez	v0,80413f5c <net_poll+0x6c>
80413f30:	00000000 	nop
80413f34:	8f828138 	lw	v0,-32456(gp)
80413f38:	14440013 	bne	v0,a0,80413f88 <net_poll+0x98>
80413f3c:	00000000 	nop
80413f40:	8f82813c 	lw	v0,-32452(gp)
80413f44:	00a2102b 	sltu	v0,a1,v0
80413f48:	14400004 	bnez	v0,80413f5c <net_poll+0x6c>
80413f4c:	00000000 	nop
80413f50:	8f82813c 	lw	v0,-32452(gp)
80413f54:	08104fe2 	j	80413f88 <net_poll+0x98>
80413f58:	00000000 	nop
80413f5c:	0c1048ec 	jal	804123b0 <_ip_timer_tick>
80413f60:	8c64000c 	lw	a0,12(v1)
80413f64:	8f83813c 	lw	v1,-32452(gp)
80413f68:	8f828138 	lw	v0,-32456(gp)
80413f6c:	2463000a 	addiu	v1,v1,10
80413f70:	2c64000a 	sltiu	a0,v1,10
80413f74:	00441021 	addu	v0,v0,a0
80413f78:	8f84811c 	lw	a0,-32484(gp)
80413f7c:	ac830004 	sw	v1,4(a0)
80413f80:	ac820000 	sw	v0,0(a0)
80413f84:	8fbf0010 	lw	ra,16(sp)
80413f88:	03e00008 	jr	ra
80413f8c:	27bd0018 	addiu	sp,sp,24

80413f90 <net_uninit>:
80413f90:	8f82811c 	lw	v0,-32484(gp)
80413f94:	27bdffe8 	addiu	sp,sp,-24
80413f98:	3c048041 	lui	a0,0x8041
80413f9c:	afb00010 	sw	s0,16(sp)
80413fa0:	afbf0014 	sw	ra,20(sp)
80413fa4:	24845bb4 	addiu	a0,a0,23476
80413fa8:	10400024 	beqz	v0,8041403c <net_uninit+0xac>
80413fac:	3c108042 	lui	s0,0x8042
80413fb0:	0c103c35 	jal	8040f0d4 <cfe_bg_remove>
80413fb4:	00000000 	nop
80413fb8:	8f82811c 	lw	v0,-32484(gp)
80413fbc:	0c105110 	jal	80414440 <_tcp_uninit>
80413fc0:	8c44001c 	lw	a0,28(v0)
80413fc4:	8f82811c 	lw	v0,-32484(gp)
80413fc8:	00003821 	move	a3,zero
80413fcc:	00003021 	move	a2,zero
80413fd0:	8c440018 	lw	a0,24(v0)
80413fd4:	ac470004 	sw	a3,4(v0)
80413fd8:	0c102235 	jal	804088d4 <_icmp_uninit>
80413fdc:	ac460000 	sw	a2,0(v0)
80413fe0:	8f82811c 	lw	v0,-32484(gp)
80413fe4:	0c106527 	jal	8041949c <_udp_uninit>
80413fe8:	8c440014 	lw	a0,20(v0)
80413fec:	8f82811c 	lw	v0,-32484(gp)
80413ff0:	0c1048ce 	jal	80412338 <_ip_uninit>
80413ff4:	8c44000c 	lw	a0,12(v0)
80413ff8:	8f82811c 	lw	v0,-32484(gp)
80413ffc:	0c1063a0 	jal	80418e80 <eth_uninit>
80414000:	8c440010 	lw	a0,16(v0)
80414004:	8f82811c 	lw	v0,-32484(gp)
80414008:	26042bec 	addiu	a0,s0,11244
8041400c:	0c103031 	jal	8040c0c4 <kfree>
80414010:	8c450008 	lw	a1,8(v0)
80414014:	8f85811c 	lw	a1,-32484(gp)
80414018:	0c103031 	jal	8040c0c4 <kfree>
8041401c:	26042bec 	addiu	a0,s0,11244
80414020:	3c048041 	lui	a0,0x8041
80414024:	8fbf0014 	lw	ra,20(sp)
80414028:	8fb00010 	lw	s0,16(sp)
8041402c:	24843ef0 	addiu	a0,a0,16112
80414030:	27bd0018 	addiu	sp,sp,24
80414034:	08103c35 	j	8040f0d4 <cfe_bg_remove>
80414038:	af80811c 	sw	zero,-32484(gp)
8041403c:	8fbf0014 	lw	ra,20(sp)
80414040:	8fb00010 	lw	s0,16(sp)
80414044:	03e00008 	jr	ra
80414048:	27bd0018 	addiu	sp,sp,24

8041404c <net_init>:
8041404c:	8f82811c 	lw	v0,-32484(gp)
80414050:	27bdffe0 	addiu	sp,sp,-32
80414054:	afb10014 	sw	s1,20(sp)
80414058:	afbf0018 	sw	ra,24(sp)
8041405c:	afb00010 	sw	s0,16(sp)
80414060:	10400003 	beqz	v0,80414070 <net_init+0x24>
80414064:	00808821 	move	s1,a0
80414068:	0c104fe4 	jal	80413f90 <net_uninit>
8041406c:	00000000 	nop
80414070:	3c048042 	lui	a0,0x8042
80414074:	24842bec 	addiu	a0,a0,11244
80414078:	24050020 	li	a1,32
8041407c:	0c103064 	jal	8040c190 <kmalloc>
80414080:	00003021 	move	a2,zero
80414084:	00408021 	move	s0,v0
80414088:	10400035 	beqz	v0,80414160 <net_init+0x114>
8041408c:	2403ffff 	li	v1,-1
80414090:	0c1061b9 	jal	804186e4 <lib_strdup>
80414094:	02202021 	move	a0,s1
80414098:	ae020008 	sw	v0,8(s0)
8041409c:	0c106348 	jal	80418d20 <eth_init>
804140a0:	02202021 	move	a0,s1
804140a4:	ae020010 	sw	v0,16(s0)
804140a8:	1040002d 	beqz	v0,80414160 <net_init+0x114>
804140ac:	2403ffff 	li	v1,-1
804140b0:	0c10489b 	jal	8041226c <_ip_init>
804140b4:	00402021 	move	a0,v0
804140b8:	10400010 	beqz	v0,804140fc <net_init+0xb0>
804140bc:	ae02000c 	sw	v0,12(s0)
804140c0:	00402021 	move	a0,v0
804140c4:	0c1064fc 	jal	804193f0 <_udp_init>
804140c8:	00402821 	move	a1,v0
804140cc:	ae020014 	sw	v0,20(s0)
804140d0:	10400008 	beqz	v0,804140f4 <net_init+0xa8>
804140d4:	8e04000c 	lw	a0,12(s0)
804140d8:	0c102217 	jal	8040885c <_icmp_init>
804140dc:	00000000 	nop
804140e0:	1440000a 	bnez	v0,8041410c <net_init+0xc0>
804140e4:	ae020018 	sw	v0,24(s0)
804140e8:	0c106527 	jal	8041949c <_udp_uninit>
804140ec:	8e040014 	lw	a0,20(s0)
804140f0:	8e04000c 	lw	a0,12(s0)
804140f4:	0c1048ce 	jal	80412338 <_ip_uninit>
804140f8:	00000000 	nop
804140fc:	0c1063a0 	jal	80418e80 <eth_uninit>
80414100:	8e040010 	lw	a0,16(s0)
80414104:	08105058 	j	80414160 <net_init+0x114>
80414108:	2403ffff 	li	v1,-1
8041410c:	3c048041 	lui	a0,0x8041
80414110:	24843ef0 	addiu	a0,a0,16112
80414114:	0c103c22 	jal	8040f088 <cfe_bg_add>
80414118:	02002821 	move	a1,s0
8041411c:	8f83813c 	lw	v1,-32452(gp)
80414120:	8f828138 	lw	v0,-32456(gp)
80414124:	8e04000c 	lw	a0,12(s0)
80414128:	2463000a 	addiu	v1,v1,10
8041412c:	2c65000a 	sltiu	a1,v1,10
80414130:	00451021 	addu	v0,v0,a1
80414134:	ae030004 	sw	v1,4(s0)
80414138:	00802821 	move	a1,a0
8041413c:	0c1050c3 	jal	8041430c <_tcp_init>
80414140:	ae020000 	sw	v0,0(s0)
80414144:	3c048041 	lui	a0,0x8041
80414148:	ae02001c 	sw	v0,28(s0)
8041414c:	24845bb4 	addiu	a0,a0,23476
80414150:	0c103c22 	jal	8040f088 <cfe_bg_add>
80414154:	00402821 	move	a1,v0
80414158:	af90811c 	sw	s0,-32484(gp)
8041415c:	00001821 	move	v1,zero
80414160:	8fbf0018 	lw	ra,24(sp)
80414164:	8fb10014 	lw	s1,20(sp)
80414168:	8fb00010 	lw	s0,16(sp)
8041416c:	00601021 	move	v0,v1
80414170:	03e00008 	jr	ra
80414174:	27bd0020 	addiu	sp,sp,32

80414178 <net_setnetvars>:
80414178:	27bdff90 	addiu	sp,sp,-112
8041417c:	afb10054 	sw	s1,84(sp)
80414180:	3c118042 	lui	s1,0x8042
80414184:	afb20058 	sw	s2,88(sp)
80414188:	2624c3d8 	addiu	a0,s1,-15400
8041418c:	3c128042 	lui	s2,0x8042
80414190:	afbf0068 	sw	ra,104(sp)
80414194:	afb50064 	sw	s5,100(sp)
80414198:	afb40060 	sw	s4,96(sp)
8041419c:	afb3005c 	sw	s3,92(sp)
804141a0:	afb00050 	sw	s0,80(sp)
804141a4:	0c10215a 	jal	80408568 <env_delenv>
804141a8:	3c138042 	lui	s3,0x8042
804141ac:	0c10215a 	jal	80408568 <env_delenv>
804141b0:	2644c3e4 	addiu	a0,s2,-15388
804141b4:	3c148042 	lui	s4,0x8042
804141b8:	0c10215a 	jal	80408568 <env_delenv>
804141bc:	2664c3f0 	addiu	a0,s3,-15376
804141c0:	3c158042 	lui	s5,0x8042
804141c4:	0c10215a 	jal	80408568 <env_delenv>
804141c8:	2684c3fc 	addiu	a0,s4,-15364
804141cc:	3c108042 	lui	s0,0x8042
804141d0:	0c10215a 	jal	80408568 <env_delenv>
804141d4:	26a4c408 	addiu	a0,s5,-15352
804141d8:	0c10215a 	jal	80408568 <env_delenv>
804141dc:	2604c418 	addiu	a0,s0,-15336
804141e0:	0c104fa8 	jal	80413ea0 <net_getparam>
804141e4:	2404000a 	li	a0,10
804141e8:	10400040 	beqz	v0,804142ec <net_setnetvars+0x174>
804141ec:	8fbf0068 	lw	ra,104(sp)
804141f0:	0c104fa8 	jal	80413ea0 <net_getparam>
804141f4:	2404000a 	li	a0,10
804141f8:	10400004 	beqz	v0,8041420c <net_setnetvars+0x94>
804141fc:	2624c3d8 	addiu	a0,s1,-15400
80414200:	00402821 	move	a1,v0
80414204:	0c10217f 	jal	804085fc <env_setenv>
80414208:	24060001 	li	a2,1
8041420c:	0c104fa8 	jal	80413ea0 <net_getparam>
80414210:	24040005 	li	a0,5
80414214:	10400004 	beqz	v0,80414228 <net_setnetvars+0xb0>
80414218:	2604c418 	addiu	a0,s0,-15336
8041421c:	00402821 	move	a1,v0
80414220:	0c10217f 	jal	804085fc <env_setenv>
80414224:	24060001 	li	a2,1
80414228:	0c104fa8 	jal	80413ea0 <net_getparam>
8041422c:	00002021 	move	a0,zero
80414230:	10400009 	beqz	v0,80414258 <net_setnetvars+0xe0>
80414234:	3c058042 	lui	a1,0x8042
80414238:	24a5c424 	addiu	a1,a1,-15324
8041423c:	00403021 	move	a2,v0
80414240:	0c103311 	jal	8040cc44 <xsprintf>
80414244:	27a40010 	addiu	a0,sp,16
80414248:	2644c3e4 	addiu	a0,s2,-15388
8041424c:	27a50010 	addiu	a1,sp,16
80414250:	0c10217f 	jal	804085fc <env_setenv>
80414254:	24060001 	li	a2,1
80414258:	0c104fa8 	jal	80413ea0 <net_getparam>
8041425c:	24040001 	li	a0,1
80414260:	10400009 	beqz	v0,80414288 <net_setnetvars+0x110>
80414264:	3c058042 	lui	a1,0x8042
80414268:	24a5c424 	addiu	a1,a1,-15324
8041426c:	00403021 	move	a2,v0
80414270:	0c103311 	jal	8040cc44 <xsprintf>
80414274:	27a40010 	addiu	a0,sp,16
80414278:	2664c3f0 	addiu	a0,s3,-15376
8041427c:	27a50010 	addiu	a1,sp,16
80414280:	0c10217f 	jal	804085fc <env_setenv>
80414284:	24060001 	li	a2,1
80414288:	0c104fa8 	jal	80413ea0 <net_getparam>
8041428c:	24040002 	li	a0,2
80414290:	10400009 	beqz	v0,804142b8 <net_setnetvars+0x140>
80414294:	3c058042 	lui	a1,0x8042
80414298:	24a5c424 	addiu	a1,a1,-15324
8041429c:	00403021 	move	a2,v0
804142a0:	0c103311 	jal	8040cc44 <xsprintf>
804142a4:	27a40010 	addiu	a0,sp,16
804142a8:	2684c3fc 	addiu	a0,s4,-15364
804142ac:	27a50010 	addiu	a1,sp,16
804142b0:	0c10217f 	jal	804085fc <env_setenv>
804142b4:	24060001 	li	a2,1
804142b8:	0c104fa8 	jal	80413ea0 <net_getparam>
804142bc:	24040003 	li	a0,3
804142c0:	10400009 	beqz	v0,804142e8 <net_setnetvars+0x170>
804142c4:	3c058042 	lui	a1,0x8042
804142c8:	24a5c424 	addiu	a1,a1,-15324
804142cc:	00403021 	move	a2,v0
804142d0:	0c103311 	jal	8040cc44 <xsprintf>
804142d4:	27a40010 	addiu	a0,sp,16
804142d8:	26a4c408 	addiu	a0,s5,-15352
804142dc:	27a50010 	addiu	a1,sp,16
804142e0:	0c10217f 	jal	804085fc <env_setenv>
804142e4:	24060001 	li	a2,1
804142e8:	8fbf0068 	lw	ra,104(sp)
804142ec:	8fb50064 	lw	s5,100(sp)
804142f0:	8fb40060 	lw	s4,96(sp)
804142f4:	8fb3005c 	lw	s3,92(sp)
804142f8:	8fb20058 	lw	s2,88(sp)
804142fc:	8fb10054 	lw	s1,84(sp)
80414300:	8fb00050 	lw	s0,80(sp)
80414304:	03e00008 	jr	ra
80414308:	27bd0070 	addiu	sp,sp,112

8041430c <_tcp_init>:
8041430c:	27bdffe0 	addiu	sp,sp,-32
80414310:	afb20018 	sw	s2,24(sp)
80414314:	00809021 	move	s2,a0
80414318:	3c048042 	lui	a0,0x8042
8041431c:	afb10014 	sw	s1,20(sp)
80414320:	24842bec 	addiu	a0,a0,11244
80414324:	00a08821 	move	s1,a1
80414328:	00003021 	move	a2,zero
8041432c:	afb00010 	sw	s0,16(sp)
80414330:	afbf001c 	sw	ra,28(sp)
80414334:	0c103064 	jal	8040c190 <kmalloc>
80414338:	24050040 	li	a1,64
8041433c:	00408021 	move	s0,v0
80414340:	1200001d 	beqz	s0,804143b8 <_tcp_init+0xac>
80414344:	00001021 	move	v0,zero
80414348:	8f83813c 	lw	v1,-32452(gp)
8041434c:	8f828138 	lw	v0,-32456(gp)
80414350:	26040010 	addiu	a0,s0,16
80414354:	24630002 	addiu	v1,v1,2
80414358:	2c650002 	sltiu	a1,v1,2
8041435c:	00451021 	addu	v0,v0,a1
80414360:	ae03000c 	sw	v1,12(s0)
80414364:	ae020008 	sw	v0,8(s0)
80414368:	ae110000 	sw	s1,0(s0)
8041436c:	ae040010 	sw	a0,16(s0)
80414370:	ae120004 	sw	s2,4(s0)
80414374:	ae040014 	sw	a0,20(s0)
80414378:	26020020 	addiu	v0,s0,32
8041437c:	24030007 	li	v1,7
80414380:	2463ffff 	addiu	v1,v1,-1
80414384:	ac400000 	sw	zero,0(v0)
80414388:	0461fffd 	bgez	v1,80414380 <_tcp_init+0x74>
8041438c:	24420004 	addiu	v0,v0,4
80414390:	0c1004eb 	jal	804013ac <_getticks>
80414394:	ae000018 	sw	zero,24(s0)
80414398:	3c068041 	lui	a2,0x8041
8041439c:	ae02001c 	sw	v0,28(s0)
804143a0:	02402021 	move	a0,s2
804143a4:	24c652ac 	addiu	a2,a2,21164
804143a8:	24050006 	li	a1,6
804143ac:	0c104967 	jal	8041259c <_ip_register>
804143b0:	02003821 	move	a3,s0
804143b4:	02001021 	move	v0,s0
804143b8:	8fbf001c 	lw	ra,28(sp)
804143bc:	8fb20018 	lw	s2,24(sp)
804143c0:	8fb10014 	lw	s1,20(sp)
804143c4:	8fb00010 	lw	s0,16(sp)
804143c8:	03e00008 	jr	ra
804143cc:	27bd0020 	addiu	sp,sp,32

804143d0 <_tcp_freetcb>:
804143d0:	27bdffe8 	addiu	sp,sp,-24
804143d4:	afb00010 	sw	s0,16(sp)
804143d8:	afbf0014 	sw	ra,20(sp)
804143dc:	8ca30008 	lw	v1,8(a1)
804143e0:	00a08021 	move	s0,a1
804143e4:	00802821 	move	a1,a0
804143e8:	00031080 	sll	v0,v1,0x2
804143ec:	02002021 	move	a0,s0
804143f0:	04600002 	bltz	v1,804143fc <_tcp_freetcb+0x2c>
804143f4:	00451021 	addu	v0,v0,a1
804143f8:	ac400020 	sw	zero,32(v0)
804143fc:	2402ffff 	li	v0,-1
80414400:	ae020008 	sw	v0,8(s0)
80414404:	8ca20018 	lw	v0,24(a1)
80414408:	2442ffff 	addiu	v0,v0,-1
8041440c:	0c103347 	jal	8040cd1c <q_dequeue>
80414410:	aca20018 	sw	v0,24(a1)
80414414:	0c1057e8 	jal	80415fa0 <tmb_free>
80414418:	26040050 	addiu	a0,s0,80
8041441c:	0c1057e8 	jal	80415fa0 <tmb_free>
80414420:	26040064 	addiu	a0,s0,100
80414424:	3c048042 	lui	a0,0x8042
80414428:	02002821 	move	a1,s0
8041442c:	8fbf0014 	lw	ra,20(sp)
80414430:	8fb00010 	lw	s0,16(sp)
80414434:	24842bec 	addiu	a0,a0,11244
80414438:	08103031 	j	8040c0c4 <kfree>
8041443c:	27bd0018 	addiu	sp,sp,24

80414440 <_tcp_uninit>:
80414440:	27bdffe0 	addiu	sp,sp,-32
80414444:	afb10014 	sw	s1,20(sp)
80414448:	afb00010 	sw	s0,16(sp)
8041444c:	afbf0018 	sw	ra,24(sp)
80414450:	8c820010 	lw	v0,16(a0)
80414454:	00808021 	move	s0,a0
80414458:	24910010 	addiu	s1,a0,16
8041445c:	10510006 	beq	v0,s1,80414478 <_tcp_uninit+0x38>
80414460:	00000000 	nop
80414464:	8e050010 	lw	a1,16(s0)
80414468:	0c1050f4 	jal	804143d0 <_tcp_freetcb>
8041446c:	02002021 	move	a0,s0
80414470:	08105117 	j	8041445c <_tcp_uninit+0x1c>
80414474:	8e020010 	lw	v0,16(s0)
80414478:	8e040004 	lw	a0,4(s0)
8041447c:	0c10497b 	jal	804125ec <_ip_deregister>
80414480:	24050006 	li	a1,6
80414484:	3c048042 	lui	a0,0x8042
80414488:	02002821 	move	a1,s0
8041448c:	8fbf0018 	lw	ra,24(sp)
80414490:	8fb10014 	lw	s1,20(sp)
80414494:	8fb00010 	lw	s0,16(sp)
80414498:	24842bec 	addiu	a0,a0,11244
8041449c:	08103031 	j	8040c0c4 <kfree>
804144a0:	27bd0020 	addiu	sp,sp,32

804144a4 <_tcp_find_lclport>:
804144a4:	8c830010 	lw	v1,16(a0)
804144a8:	30a5ffff 	andi	a1,a1,0xffff
804144ac:	24840010 	addiu	a0,a0,16
804144b0:	10640008 	beq	v1,a0,804144d4 <_tcp_find_lclport+0x30>
804144b4:	00000000 	nop
804144b8:	94620016 	lhu	v0,22(v1)
804144bc:	14450003 	bne	v0,a1,804144cc <_tcp_find_lclport+0x28>
804144c0:	00601021 	move	v0,v1
804144c4:	03e00008 	jr	ra
804144c8:	00000000 	nop
804144cc:	0810512c 	j	804144b0 <_tcp_find_lclport+0xc>
804144d0:	8c630000 	lw	v1,0(v1)
804144d4:	03e00008 	jr	ra
804144d8:	00001021 	move	v0,zero

804144dc <_tcp_socket>:
804144dc:	27bdffd8 	addiu	sp,sp,-40
804144e0:	afb3001c 	sw	s3,28(sp)
804144e4:	afb20018 	sw	s2,24(sp)
804144e8:	afbf0024 	sw	ra,36(sp)
804144ec:	afb40020 	sw	s4,32(sp)
804144f0:	afb10014 	sw	s1,20(sp)
804144f4:	afb00010 	sw	s0,16(sp)
804144f8:	00809021 	move	s2,a0
804144fc:	00009821 	move	s3,zero
80414500:	24830020 	addiu	v1,a0,32
80414504:	8c620000 	lw	v0,0(v1)
80414508:	10400005 	beqz	v0,80414520 <_tcp_socket+0x44>
8041450c:	24630004 	addiu	v1,v1,4
80414510:	26730001 	addiu	s3,s3,1
80414514:	2a620008 	slti	v0,s3,8
80414518:	1440fffa 	bnez	v0,80414504 <_tcp_socket+0x28>
8041451c:	00000000 	nop
80414520:	24020008 	li	v0,8
80414524:	12620044 	beq	s3,v0,80414638 <_tcp_socket+0x15c>
80414528:	2403ffe7 	li	v1,-25
8041452c:	8e420018 	lw	v0,24(s2)
80414530:	28420010 	slti	v0,v0,16
80414534:	10400040 	beqz	v0,80414638 <_tcp_socket+0x15c>
80414538:	2403fffb 	li	v1,-5
8041453c:	3c148042 	lui	s4,0x8042
80414540:	26842bec 	addiu	a0,s4,11244
80414544:	24050090 	li	a1,144
80414548:	0c103064 	jal	8040c190 <kmalloc>
8041454c:	00003021 	move	a2,zero
80414550:	00408021 	move	s0,v0
80414554:	10400038 	beqz	v0,80414638 <_tcp_socket+0x15c>
80414558:	2403fffb 	li	v1,-5
8041455c:	00402021 	move	a0,v0
80414560:	00002821 	move	a1,zero
80414564:	24510050 	addiu	s1,v0,80
80414568:	0c103468 	jal	8040d1a0 <lib_memset>
8041456c:	24060090 	li	a2,144
80414570:	02202021 	move	a0,s1
80414574:	0c1057d1 	jal	80415f44 <tmb_alloc>
80414578:	24055000 	li	a1,20480
8041457c:	04400026 	bltz	v0,80414618 <_tcp_socket+0x13c>
80414580:	26040064 	addiu	a0,s0,100
80414584:	0c1057d1 	jal	80415f44 <tmb_alloc>
80414588:	24055000 	li	a1,20480
8041458c:	04400022 	bltz	v0,80414618 <_tcp_socket+0x13c>
80414590:	00000000 	nop
80414594:	8f83813c 	lw	v1,-32452(gp)
80414598:	8f828138 	lw	v0,-32456(gp)
8041459c:	24020578 	li	v0,1400
804145a0:	24630400 	addiu	v1,v1,1024
804145a4:	ae020044 	sw	v0,68(s0)
804145a8:	24020002 	li	v0,2
804145ac:	ae02004c 	sw	v0,76(s0)
804145b0:	a6030016 	sh	v1,22(s0)
804145b4:	08105176 	j	804145d8 <_tcp_socket+0xfc>
804145b8:	ae00000c 	sw	zero,12(s0)
804145bc:	96020016 	lhu	v0,22(s0)
804145c0:	24420001 	addiu	v0,v0,1
804145c4:	3043ffff 	andi	v1,v0,0xffff
804145c8:	14600003 	bnez	v1,804145d8 <_tcp_socket+0xfc>
804145cc:	a6020016 	sh	v0,22(s0)
804145d0:	24020400 	li	v0,1024
804145d4:	a6020016 	sh	v0,22(s0)
804145d8:	96050016 	lhu	a1,22(s0)
804145dc:	0c105129 	jal	804144a4 <_tcp_find_lclport>
804145e0:	02402021 	move	a0,s2
804145e4:	1440fff5 	bnez	v0,804145bc <_tcp_socket+0xe0>
804145e8:	00131080 	sll	v0,s3,0x2
804145ec:	ae130008 	sw	s3,8(s0)
804145f0:	8e430018 	lw	v1,24(s2)
804145f4:	00521021 	addu	v0,v0,s2
804145f8:	24630001 	addiu	v1,v1,1
804145fc:	ae430018 	sw	v1,24(s2)
80414600:	ac500020 	sw	s0,32(v0)
80414604:	26440010 	addiu	a0,s2,16
80414608:	0c103341 	jal	8040cd04 <q_enqueue>
8041460c:	02002821 	move	a1,s0
80414610:	0810518e 	j	80414638 <_tcp_socket+0x15c>
80414614:	02601821 	move	v1,s3
80414618:	0c1057e8 	jal	80415fa0 <tmb_free>
8041461c:	02202021 	move	a0,s1
80414620:	0c1057e8 	jal	80415fa0 <tmb_free>
80414624:	26040064 	addiu	a0,s0,100
80414628:	26842bec 	addiu	a0,s4,11244
8041462c:	0c103031 	jal	8040c0c4 <kfree>
80414630:	02002821 	move	a1,s0
80414634:	2403fffb 	li	v1,-5
80414638:	8fbf0024 	lw	ra,36(sp)
8041463c:	8fb40020 	lw	s4,32(sp)
80414640:	8fb3001c 	lw	s3,28(sp)
80414644:	8fb20018 	lw	s2,24(sp)
80414648:	8fb10014 	lw	s1,20(sp)
8041464c:	8fb00010 	lw	s0,16(sp)
80414650:	00601021 	move	v0,v1
80414654:	03e00008 	jr	ra
80414658:	27bd0028 	addiu	sp,sp,40

8041465c <_tcp_closetcb>:
8041465c:	27bdffe8 	addiu	sp,sp,-24
80414660:	00001821 	move	v1,zero
80414664:	00001021 	move	v0,zero
80414668:	afb00010 	sw	s0,16(sp)
8041466c:	24a40050 	addiu	a0,a1,80
80414670:	aca0000c 	sw	zero,12(a1)
80414674:	aca00048 	sw	zero,72(a1)
80414678:	aca30034 	sw	v1,52(a1)
8041467c:	aca20030 	sw	v0,48(a1)
80414680:	aca3002c 	sw	v1,44(a1)
80414684:	aca20028 	sw	v0,40(a1)
80414688:	aca30024 	sw	v1,36(a1)
8041468c:	aca20020 	sw	v0,32(a1)
80414690:	aca3003c 	sw	v1,60(a1)
80414694:	aca20038 	sw	v0,56(a1)
80414698:	afbf0014 	sw	ra,20(sp)
8041469c:	0c1057c0 	jal	80415f00 <tmb_init>
804146a0:	00a08021 	move	s0,a1
804146a4:	26040064 	addiu	a0,s0,100
804146a8:	8fbf0014 	lw	ra,20(sp)
804146ac:	8fb00010 	lw	s0,16(sp)
804146b0:	081057c0 	j	80415f00 <tmb_init>
804146b4:	27bd0018 	addiu	sp,sp,24

804146b8 <_tcp_recv>:
804146b8:	00052880 	sll	a1,a1,0x2
804146bc:	00a42821 	addu	a1,a1,a0
804146c0:	8ca40020 	lw	a0,32(a1)
804146c4:	2403fff8 	li	v1,-8
804146c8:	00c02821 	move	a1,a2
804146cc:	1080000b 	beqz	a0,804146fc <_tcp_recv+0x44>
804146d0:	00e03021 	move	a2,a3
804146d4:	8c83000c 	lw	v1,12(a0)
804146d8:	24020030 	li	v0,48
804146dc:	24840064 	addiu	a0,a0,100
804146e0:	00621007 	srav	v0,v0,v1
804146e4:	30420001 	andi	v0,v0,0x1
804146e8:	24070001 	li	a3,1
804146ec:	10400003 	beqz	v0,804146fc <_tcp_recv+0x44>
804146f0:	2403ffd9 	li	v1,-39
804146f4:	0810582f 	j	804160bc <tmb_copyout>
804146f8:	00000000 	nop
804146fc:	03e00008 	jr	ra
80414700:	00601021 	move	v0,v1

80414704 <_tcp_bind>:
80414704:	27bdffe0 	addiu	sp,sp,-32
80414708:	00052880 	sll	a1,a1,0x2
8041470c:	afb00010 	sw	s0,16(sp)
80414710:	00a42821 	addu	a1,a1,a0
80414714:	afbf0018 	sw	ra,24(sp)
80414718:	afb10014 	sw	s1,20(sp)
8041471c:	8cb10020 	lw	s1,32(a1)
80414720:	30d0ffff 	andi	s0,a2,0xffff
80414724:	02002821 	move	a1,s0
80414728:	12200007 	beqz	s1,80414748 <_tcp_bind+0x44>
8041472c:	2403fff8 	li	v1,-8
80414730:	0c105129 	jal	804144a4 <_tcp_find_lclport>
80414734:	00000000 	nop
80414738:	14400003 	bnez	v0,80414748 <_tcp_bind+0x44>
8041473c:	2403ffd8 	li	v1,-40
80414740:	a6300016 	sh	s0,22(s1)
80414744:	00001821 	move	v1,zero
80414748:	8fbf0018 	lw	ra,24(sp)
8041474c:	8fb10014 	lw	s1,20(sp)
80414750:	8fb00010 	lw	s0,16(sp)
80414754:	00601021 	move	v0,v1
80414758:	03e00008 	jr	ra
8041475c:	27bd0020 	addiu	sp,sp,32

80414760 <_tcp_setflags>:
80414760:	00052880 	sll	a1,a1,0x2
80414764:	00a42821 	addu	a1,a1,a0
80414768:	8ca30020 	lw	v1,32(a1)
8041476c:	10600003 	beqz	v1,8041477c <_tcp_setflags+0x1c>
80414770:	2402fff8 	li	v0,-8
80414774:	ac66004c 	sw	a2,76(v1)
80414778:	00001021 	move	v0,zero
8041477c:	03e00008 	jr	ra
80414780:	00000000 	nop

80414784 <_tcp_getflags>:
80414784:	00052880 	sll	a1,a1,0x2
80414788:	00a42821 	addu	a1,a1,a0
8041478c:	8ca20020 	lw	v0,32(a1)
80414790:	10400004 	beqz	v0,804147a4 <_tcp_getflags+0x20>
80414794:	2403fff8 	li	v1,-8
80414798:	8c42004c 	lw	v0,76(v0)
8041479c:	00001821 	move	v1,zero
804147a0:	acc20000 	sw	v0,0(a2)
804147a4:	03e00008 	jr	ra
804147a8:	00601021 	move	v0,v1

804147ac <_tcp_peeraddr>:
804147ac:	27bdffe0 	addiu	sp,sp,-32
804147b0:	00052880 	sll	a1,a1,0x2
804147b4:	afb10014 	sw	s1,20(sp)
804147b8:	00a42821 	addu	a1,a1,a0
804147bc:	afbf0018 	sw	ra,24(sp)
804147c0:	afb00010 	sw	s0,16(sp)
804147c4:	8cb00020 	lw	s0,32(a1)
804147c8:	00c04021 	move	t0,a2
804147cc:	00e08821 	move	s1,a3
804147d0:	12000011 	beqz	s0,80414818 <_tcp_peeraddr+0x6c>
804147d4:	2404fff8 	li	a0,-8
804147d8:	8e03000c 	lw	v1,12(s0)
804147dc:	240203fc 	li	v0,1020
804147e0:	00621007 	srav	v0,v0,v1
804147e4:	30420001 	andi	v0,v0,0x1
804147e8:	1040000b 	beqz	v0,80414818 <_tcp_peeraddr+0x6c>
804147ec:	2404ffd9 	li	a0,-39
804147f0:	00c02021 	move	a0,a2
804147f4:	26050010 	addiu	a1,s0,16
804147f8:	11000003 	beqz	t0,80414808 <_tcp_peeraddr+0x5c>
804147fc:	24060004 	li	a2,4
80414800:	0c10345e 	jal	8040d178 <lib_memcpy>
80414804:	00000000 	nop
80414808:	12200003 	beqz	s1,80414818 <_tcp_peeraddr+0x6c>
8041480c:	00002021 	move	a0,zero
80414810:	96020014 	lhu	v0,20(s0)
80414814:	a6220000 	sh	v0,0(s1)
80414818:	8fbf0018 	lw	ra,24(sp)
8041481c:	8fb10014 	lw	s1,20(sp)
80414820:	8fb00010 	lw	s0,16(sp)
80414824:	00801021 	move	v0,a0
80414828:	03e00008 	jr	ra
8041482c:	27bd0020 	addiu	sp,sp,32

80414830 <_tcp_listen>:
80414830:	27bdffe8 	addiu	sp,sp,-24
80414834:	afbf0014 	sw	ra,20(sp)
80414838:	afb00010 	sw	s0,16(sp)
8041483c:	8c830010 	lw	v1,16(a0)
80414840:	24870010 	addiu	a3,a0,16
80414844:	1067000e 	beq	v1,a3,80414880 <_tcp_listen+0x50>
80414848:	30c6ffff 	andi	a2,a2,0xffff
8041484c:	24080001 	li	t0,1
80414850:	94620016 	lhu	v0,22(v1)
80414854:	14460007 	bne	v0,a2,80414874 <_tcp_listen+0x44>
80414858:	00000000 	nop
8041485c:	8c62000c 	lw	v0,12(v1)
80414860:	14480004 	bne	v0,t0,80414874 <_tcp_listen+0x44>
80414864:	00000000 	nop
80414868:	94620014 	lhu	v0,20(v1)
8041486c:	10400021 	beqz	v0,804148f4 <_tcp_listen+0xc4>
80414870:	2402ffd8 	li	v0,-40
80414874:	8c630000 	lw	v1,0(v1)
80414878:	1467fff5 	bne	v1,a3,80414850 <_tcp_listen+0x20>
8041487c:	00000000 	nop
80414880:	00051080 	sll	v0,a1,0x2
80414884:	00441021 	addu	v0,v0,a0
80414888:	8c500020 	lw	s0,32(v0)
8041488c:	12000019 	beqz	s0,804148f4 <_tcp_listen+0xc4>
80414890:	2402fff8 	li	v0,-8
80414894:	24020001 	li	v0,1
80414898:	00001821 	move	v1,zero
8041489c:	ae02000c 	sw	v0,12(s0)
804148a0:	00001021 	move	v0,zero
804148a4:	ae020030 	sw	v0,48(s0)
804148a8:	ae020028 	sw	v0,40(s0)
804148ac:	ae020020 	sw	v0,32(s0)
804148b0:	ae020038 	sw	v0,56(s0)
804148b4:	a6060016 	sh	a2,22(s0)
804148b8:	ae030034 	sw	v1,52(s0)
804148bc:	ae03002c 	sw	v1,44(s0)
804148c0:	ae030024 	sw	v1,36(s0)
804148c4:	ae03003c 	sw	v1,60(s0)
804148c8:	26040050 	addiu	a0,s0,80
804148cc:	ae00007c 	sw	zero,124(s0)
804148d0:	ae000078 	sw	zero,120(s0)
804148d4:	ae000080 	sw	zero,128(s0)
804148d8:	ae000084 	sw	zero,132(s0)
804148dc:	0c1057c0 	jal	80415f00 <tmb_init>
804148e0:	ae000088 	sw	zero,136(s0)
804148e4:	0c1057c0 	jal	80415f00 <tmb_init>
804148e8:	26040064 	addiu	a0,s0,100
804148ec:	a6000018 	sh	zero,24(s0)
804148f0:	00001021 	move	v0,zero
804148f4:	8fbf0014 	lw	ra,20(sp)
804148f8:	8fb00010 	lw	s0,16(sp)
804148fc:	03e00008 	jr	ra
80414900:	27bd0018 	addiu	sp,sp,24

80414904 <_tcp_status>:
80414904:	00052880 	sll	a1,a1,0x2
80414908:	00a42821 	addu	a1,a1,a0
8041490c:	8ca40020 	lw	a0,32(a1)
80414910:	8fa80010 	lw	t0,16(sp)
80414914:	10800024 	beqz	a0,804149a8 <_tcp_status+0xa4>
80414918:	2402fff8 	li	v0,-8
8041491c:	10c00012 	beqz	a2,80414968 <_tcp_status+0x64>
80414920:	8c850074 	lw	a1,116(a0)
80414924:	8c83000c 	lw	v1,12(a0)
80414928:	24020004 	li	v0,4
8041492c:	1062000b 	beq	v1,v0,8041495c <_tcp_status+0x58>
80414930:	24020002 	li	v0,2
80414934:	10a00005 	beqz	a1,8041494c <_tcp_status+0x48>
80414938:	2402000e 	li	v0,14
8041493c:	24020005 	li	v0,5
80414940:	10620006 	beq	v1,v0,8041495c <_tcp_status+0x58>
80414944:	24020002 	li	v0,2
80414948:	2402000e 	li	v0,14
8041494c:	00621007 	srav	v0,v0,v1
80414950:	30420001 	andi	v0,v0,0x1
80414954:	10400003 	beqz	v0,80414964 <_tcp_status+0x60>
80414958:	24020001 	li	v0,1
8041495c:	0810525a 	j	80414968 <_tcp_status+0x64>
80414960:	acc20000 	sw	v0,0(a2)
80414964:	acc00000 	sw	zero,0(a2)
80414968:	10e00002 	beqz	a3,80414974 <_tcp_status+0x70>
8041496c:	00000000 	nop
80414970:	ace50000 	sw	a1,0(a3)
80414974:	1100000c 	beqz	t0,804149a8 <_tcp_status+0xa4>
80414978:	00001021 	move	v0,zero
8041497c:	ad000000 	sw	zero,0(t0)
80414980:	8c83000c 	lw	v1,12(a0)
80414984:	24020005 	li	v0,5
80414988:	10620005 	beq	v1,v0,804149a0 <_tcp_status+0x9c>
8041498c:	24020001 	li	v0,1
80414990:	24020009 	li	v0,9
80414994:	14620003 	bne	v1,v0,804149a4 <_tcp_status+0xa0>
80414998:	00000000 	nop
8041499c:	24020001 	li	v0,1
804149a0:	ad020000 	sw	v0,0(t0)
804149a4:	00001021 	move	v0,zero
804149a8:	03e00008 	jr	ra
804149ac:	00000000 	nop

804149b0 <_tcp_debug>:
804149b0:	27bdffe8 	addiu	sp,sp,-24
804149b4:	00052880 	sll	a1,a1,0x2
804149b8:	00a42821 	addu	a1,a1,a0
804149bc:	afbf0014 	sw	ra,20(sp)
804149c0:	afb00010 	sw	s0,16(sp)
804149c4:	8cb00020 	lw	s0,32(a1)
804149c8:	3c048042 	lui	a0,0x8042
804149cc:	2484c428 	addiu	a0,a0,-15320
804149d0:	1200000c 	beqz	s0,80414a04 <_tcp_debug+0x54>
804149d4:	2402fff8 	li	v0,-8
804149d8:	8e05000c 	lw	a1,12(s0)
804149dc:	8e06007c 	lw	a2,124(s0)
804149e0:	0c10331a 	jal	8040cc68 <xprintf>
804149e4:	8e070078 	lw	a3,120(s0)
804149e8:	8e070074 	lw	a3,116(s0)
804149ec:	8e050080 	lw	a1,128(s0)
804149f0:	8e060088 	lw	a2,136(s0)
804149f4:	3c048042 	lui	a0,0x8042
804149f8:	0c10331a 	jal	8040cc68 <xprintf>
804149fc:	2484c44c 	addiu	a0,a0,-15284
80414a00:	00001021 	move	v0,zero
80414a04:	8fbf0014 	lw	ra,20(sp)
80414a08:	8fb00010 	lw	s0,16(sp)
80414a0c:	03e00008 	jr	ra
80414a10:	27bd0018 	addiu	sp,sp,24

80414a14 <_tcp_output>:
80414a14:	27bdffb8 	addiu	sp,sp,-72
80414a18:	afbe0040 	sw	s8,64(sp)
80414a1c:	afb7003c 	sw	s7,60(sp)
80414a20:	afb60038 	sw	s6,56(sp)
80414a24:	afb50034 	sw	s5,52(sp)
80414a28:	afbf0044 	sw	ra,68(sp)
80414a2c:	afb40030 	sw	s4,48(sp)
80414a30:	afb3002c 	sw	s3,44(sp)
80414a34:	afb20028 	sw	s2,40(sp)
80414a38:	afb10024 	sw	s1,36(sp)
80414a3c:	afb00020 	sw	s0,32(sp)
80414a40:	00a0a821 	move	s5,a1
80414a44:	8ea20060 	lw	v0,96(s5)
80414a48:	8ca50078 	lw	a1,120(a1)
80414a4c:	8ea30080 	lw	v1,128(s5)
80414a50:	00003021 	move	a2,zero
80414a54:	00a2b021 	addu	s6,a1,v0
80414a58:	00a31821 	addu	v1,a1,v1
80414a5c:	02c31023 	subu	v0,s6,v1
80414a60:	00c2102a 	slt	v0,a2,v0
80414a64:	0062b00b 	movn	s6,v1,v0
80414a68:	24a51b58 	addiu	a1,a1,7000
80414a6c:	8ea30074 	lw	v1,116(s5)
80414a70:	8ea70068 	lw	a3,104(s5)
80414a74:	02c51023 	subu	v0,s6,a1
80414a78:	8ea8007c 	lw	t0,124(s5)
80414a7c:	00c2302a 	slt	a2,a2,v0
80414a80:	00e3b823 	subu	s7,a3,v1
80414a84:	3402fde8 	li	v0,0xfde8
80414a88:	00a6b00b 	movn	s6,a1,a2
80414a8c:	0057182a 	slt	v1,v0,s7
80414a90:	01162823 	subu	a1,t0,s6
80414a94:	0043b80b 	movn	s7,v0,v1
80414a98:	04a10098 	bgez	a1,80414cfc <_tcp_output+0x2e8>
80414a9c:	0080f021 	move	s8,a0
80414aa0:	8ea20078 	lw	v0,120(s5)
80414aa4:	8fc40004 	lw	a0,4(s8)
80414aa8:	0c104747 	jal	80411d1c <_ip_alloc>
80414aac:	01028023 	subu	s0,t0,v0
80414ab0:	10400092 	beqz	v0,80414cfc <_tcp_output+0x2e8>
80414ab4:	0040a021 	move	s4,v0
80414ab8:	8c450008 	lw	a1,8(v0)
80414abc:	8c520020 	lw	s2,32(v0)
80414ac0:	96a20016 	lhu	v0,22(s5)
80414ac4:	8ea30084 	lw	v1,132(s5)
80414ac8:	02459021 	addu	s2,s2,a1
80414acc:	00021202 	srl	v0,v0,0x8
80414ad0:	aea30088 	sw	v1,136(s5)
80414ad4:	a2420000 	sb	v0,0(s2)
80414ad8:	8e820020 	lw	v0,32(s4)
80414adc:	96a30016 	lhu	v1,22(s5)
80414ae0:	00173a03 	sra	a3,s7,0x8
80414ae4:	00a21021 	addu	v0,a1,v0
80414ae8:	a0430001 	sb	v1,1(v0)
80414aec:	8e830020 	lw	v1,32(s4)
80414af0:	96a20014 	lhu	v0,20(s5)
80414af4:	24a90010 	addiu	t1,a1,16
80414af8:	00a31821 	addu	v1,a1,v1
80414afc:	00021202 	srl	v0,v0,0x8
80414b00:	a0620002 	sb	v0,2(v1)
80414b04:	8e820020 	lw	v0,32(s4)
80414b08:	96a30014 	lhu	v1,20(s5)
80414b0c:	24a80014 	addiu	t0,a1,20
80414b10:	00a21021 	addu	v0,a1,v0
80414b14:	a0430003 	sb	v1,3(v0)
80414b18:	8e820020 	lw	v0,32(s4)
80414b1c:	92a3007c 	lbu	v1,124(s5)
80414b20:	02003021 	move	a2,s0
80414b24:	00a21021 	addu	v0,a1,v0
80414b28:	a0430004 	sb	v1,4(v0)
80414b2c:	8e820020 	lw	v0,32(s4)
80414b30:	96a3007c 	lhu	v1,124(s5)
80414b34:	26a40050 	addiu	a0,s5,80
80414b38:	00a21021 	addu	v0,a1,v0
80414b3c:	a0430005 	sb	v1,5(v0)
80414b40:	8e830020 	lw	v1,32(s4)
80414b44:	8ea2007c 	lw	v0,124(s5)
80414b48:	26b30010 	addiu	s3,s5,16
80414b4c:	00a31821 	addu	v1,a1,v1
80414b50:	00021202 	srl	v0,v0,0x8
80414b54:	a0620006 	sb	v0,6(v1)
80414b58:	8e820020 	lw	v0,32(s4)
80414b5c:	8ea3007c 	lw	v1,124(s5)
80414b60:	00a21021 	addu	v0,a1,v0
80414b64:	a0430007 	sb	v1,7(v0)
80414b68:	8e820020 	lw	v0,32(s4)
80414b6c:	92a30088 	lbu	v1,136(s5)
80414b70:	00a21021 	addu	v0,a1,v0
80414b74:	a0430008 	sb	v1,8(v0)
80414b78:	8e820020 	lw	v0,32(s4)
80414b7c:	96a30088 	lhu	v1,136(s5)
80414b80:	00a21021 	addu	v0,a1,v0
80414b84:	a0430009 	sb	v1,9(v0)
80414b88:	8e830020 	lw	v1,32(s4)
80414b8c:	8ea20088 	lw	v0,136(s5)
80414b90:	00a31821 	addu	v1,a1,v1
80414b94:	00021202 	srl	v0,v0,0x8
80414b98:	a062000a 	sb	v0,10(v1)
80414b9c:	8e820020 	lw	v0,32(s4)
80414ba0:	8ea30088 	lw	v1,136(s5)
80414ba4:	00a21021 	addu	v0,a1,v0
80414ba8:	a043000b 	sb	v1,11(v0)
80414bac:	8e820020 	lw	v0,32(s4)
80414bb0:	24030050 	li	v1,80
80414bb4:	00a21021 	addu	v0,a1,v0
80414bb8:	a043000c 	sb	v1,12(v0)
80414bbc:	8e820020 	lw	v0,32(s4)
80414bc0:	24035010 	li	v1,20496
80414bc4:	00a21021 	addu	v0,a1,v0
80414bc8:	a043000d 	sb	v1,13(v0)
80414bcc:	8e820020 	lw	v0,32(s4)
80414bd0:	00a21021 	addu	v0,a1,v0
80414bd4:	a047000e 	sb	a3,14(v0)
80414bd8:	8e820020 	lw	v0,32(s4)
80414bdc:	00a21021 	addu	v0,a1,v0
80414be0:	a057000f 	sb	s7,15(v0)
80414be4:	8e910020 	lw	s1,32(s4)
80414be8:	02298821 	addu	s1,s1,t1
80414bec:	a2200000 	sb	zero,0(s1)
80414bf0:	8e820020 	lw	v0,32(s4)
80414bf4:	00a21021 	addu	v0,a1,v0
80414bf8:	a0400011 	sb	zero,17(v0)
80414bfc:	8e820020 	lw	v0,32(s4)
80414c00:	00a21021 	addu	v0,a1,v0
80414c04:	a0400012 	sb	zero,18(v0)
80414c08:	8e820020 	lw	v0,32(s4)
80414c0c:	00a22821 	addu	a1,a1,v0
80414c10:	a0a00013 	sb	zero,19(a1)
80414c14:	8e850020 	lw	a1,32(s4)
80414c18:	ae880008 	sw	t0,8(s4)
80414c1c:	8ea70044 	lw	a3,68(s5)
80414c20:	0c105863 	jal	8041618c <tmb_copyout2>
80414c24:	00a82821 	addu	a1,a1,t0
80414c28:	00408021 	move	s0,v0
80414c2c:	8ea3007c 	lw	v1,124(s5)
80414c30:	8e820008 	lw	v0,8(s4)
80414c34:	8fc40004 	lw	a0,4(s8)
80414c38:	00701821 	addu	v1,v1,s0
80414c3c:	00501021 	addu	v0,v0,s0
80414c40:	aea3007c 	sw	v1,124(s5)
80414c44:	ae820008 	sw	v0,8(s4)
80414c48:	0c1048f0 	jal	804123c0 <_ip_getaddr>
80414c4c:	27a50010 	addiu	a1,sp,16
80414c50:	26100014 	addiu	s0,s0,20
80414c54:	27a40014 	addiu	a0,sp,20
80414c58:	02602821 	move	a1,s3
80414c5c:	0c10345e 	jal	8040d178 <lib_memcpy>
80414c60:	24060004 	li	a2,4
80414c64:	00101a03 	sra	v1,s0,0x8
80414c68:	00002021 	move	a0,zero
80414c6c:	27a50010 	addiu	a1,sp,16
80414c70:	2406000c 	li	a2,12
80414c74:	24020006 	li	v0,6
80414c78:	a3a3001a 	sb	v1,26(sp)
80414c7c:	a3a20019 	sb	v0,25(sp)
80414c80:	a3a00018 	sb	zero,24(sp)
80414c84:	0c104758 	jal	80411d60 <ip_chksum>
80414c88:	a3b0001b 	sb	s0,27(sp)
80414c8c:	00402021 	move	a0,v0
80414c90:	02402821 	move	a1,s2
80414c94:	0c104758 	jal	80411d60 <ip_chksum>
80414c98:	02003021 	move	a2,s0
80414c9c:	00021027 	nor	v0,zero,v0
80414ca0:	3042ffff 	andi	v0,v0,0xffff
80414ca4:	00021a02 	srl	v1,v0,0x8
80414ca8:	a2230000 	sb	v1,0(s1)
80414cac:	a2220001 	sb	v0,1(s1)
80414cb0:	8fc40004 	lw	a0,4(s8)
80414cb4:	02802821 	move	a1,s4
80414cb8:	02603021 	move	a2,s3
80414cbc:	0c104775 	jal	80411dd4 <_ip_send>
80414cc0:	24070006 	li	a3,6
80414cc4:	8f83813c 	lw	v1,-32452(gp)
80414cc8:	8ea50048 	lw	a1,72(s5)
80414ccc:	8f828138 	lw	v0,-32456(gp)
80414cd0:	8ea8007c 	lw	t0,124(s5)
80414cd4:	2404fffb 	li	a0,-5
80414cd8:	2463000a 	addiu	v1,v1,10
80414cdc:	00a42824 	and	a1,a1,a0
80414ce0:	2c64000a 	sltiu	a0,v1,10
80414ce4:	00441021 	addu	v0,v0,a0
80414ce8:	01162023 	subu	a0,t0,s6
80414cec:	aea30034 	sw	v1,52(s5)
80414cf0:	aea20030 	sw	v0,48(s5)
80414cf4:	0480ff6a 	bltz	a0,80414aa0 <_tcp_output+0x8c>
80414cf8:	aea50048 	sw	a1,72(s5)
80414cfc:	8fbf0044 	lw	ra,68(sp)
80414d00:	8fbe0040 	lw	s8,64(sp)
80414d04:	8fb7003c 	lw	s7,60(sp)
80414d08:	8fb60038 	lw	s6,56(sp)
80414d0c:	8fb50034 	lw	s5,52(sp)
80414d10:	8fb40030 	lw	s4,48(sp)
80414d14:	8fb3002c 	lw	s3,44(sp)
80414d18:	8fb20028 	lw	s2,40(sp)
80414d1c:	8fb10024 	lw	s1,36(sp)
80414d20:	8fb00020 	lw	s0,32(sp)
80414d24:	03e00008 	jr	ra
80414d28:	27bd0048 	addiu	sp,sp,72

80414d2c <_tcp_send>:
80414d2c:	27bdffd8 	addiu	sp,sp,-40
80414d30:	00052880 	sll	a1,a1,0x2
80414d34:	afb3001c 	sw	s3,28(sp)
80414d38:	00a42821 	addu	a1,a1,a0
80414d3c:	afbf0020 	sw	ra,32(sp)
80414d40:	afb20018 	sw	s2,24(sp)
80414d44:	afb10014 	sw	s1,20(sp)
80414d48:	afb00010 	sw	s0,16(sp)
80414d4c:	8cb10020 	lw	s1,32(a1)
80414d50:	00809821 	move	s3,a0
80414d54:	00c02821 	move	a1,a2
80414d58:	2403fff8 	li	v1,-8
80414d5c:	12200016 	beqz	s1,80414db8 <_tcp_send+0x8c>
80414d60:	00e03021 	move	a2,a3
80414d64:	8e23000c 	lw	v1,12(s1)
80414d68:	24020030 	li	v0,48
80414d6c:	26240050 	addiu	a0,s1,80
80414d70:	00621007 	srav	v0,v0,v1
80414d74:	30420001 	andi	v0,v0,0x1
80414d78:	24070001 	li	a3,1
80414d7c:	1040000e 	beqz	v0,80414db8 <_tcp_send+0x8c>
80414d80:	2403ffd9 	li	v1,-39
80414d84:	0c1057f8 	jal	80415fe0 <tmb_copyin>
80414d88:	8e300060 	lw	s0,96(s1)
80414d8c:	00409021 	move	s2,v0
80414d90:	02602021 	move	a0,s3
80414d94:	12000005 	beqz	s0,80414dac <_tcp_send+0x80>
80414d98:	02202821 	move	a1,s1
80414d9c:	8e22004c 	lw	v0,76(s1)
80414da0:	30420001 	andi	v0,v0,0x1
80414da4:	10400004 	beqz	v0,80414db8 <_tcp_send+0x8c>
80414da8:	02401821 	move	v1,s2
80414dac:	0c105285 	jal	80414a14 <_tcp_output>
80414db0:	00000000 	nop
80414db4:	02401821 	move	v1,s2
80414db8:	8fbf0020 	lw	ra,32(sp)
80414dbc:	8fb3001c 	lw	s3,28(sp)
80414dc0:	8fb20018 	lw	s2,24(sp)
80414dc4:	8fb10014 	lw	s1,20(sp)
80414dc8:	8fb00010 	lw	s0,16(sp)
80414dcc:	00601021 	move	v0,v1
80414dd0:	03e00008 	jr	ra
80414dd4:	27bd0028 	addiu	sp,sp,40

80414dd8 <_tcp_protosend>:
80414dd8:	27bdffc0 	addiu	sp,sp,-64
80414ddc:	afb40030 	sw	s4,48(sp)
80414de0:	afb10024 	sw	s1,36(sp)
80414de4:	afb00020 	sw	s0,32(sp)
80414de8:	afbf0038 	sw	ra,56(sp)
80414dec:	afb50034 	sw	s5,52(sp)
80414df0:	afb3002c 	sw	s3,44(sp)
80414df4:	afb20028 	sw	s2,40(sp)
80414df8:	0080a021 	move	s4,a0
80414dfc:	8c840004 	lw	a0,4(a0)
80414e00:	0c104747 	jal	80411d1c <_ip_alloc>
80414e04:	00a08021 	move	s0,a1
80414e08:	104000a7 	beqz	v0,804150a8 <_tcp_protosend+0x2d0>
80414e0c:	00408821 	move	s1,v0
80414e10:	96060018 	lhu	a2,24(s0)
80414e14:	8e040048 	lw	a0,72(s0)
80414e18:	8c450008 	lw	a1,8(v0)
80414e1c:	8c470020 	lw	a3,32(v0)
80414e20:	00061842 	srl	v1,a2,0x1
80414e24:	2402fff9 	li	v0,-7
80414e28:	00822024 	and	a0,a0,v0
80414e2c:	30630001 	andi	v1,v1,0x1
80414e30:	ae040048 	sw	a0,72(s0)
80414e34:	10600005 	beqz	v1,80414e4c <_tcp_protosend+0x74>
80414e38:	00e5a821 	addu	s5,a3,a1
80414e3c:	34c26000 	ori	v0,a2,0x6000
80414e40:	304affff 	andi	t2,v0,0xffff
80414e44:	08105396 	j	80414e58 <_tcp_protosend+0x80>
80414e48:	24130018 	li	s3,24
80414e4c:	34c25000 	ori	v0,a2,0x5000
80414e50:	304affff 	andi	t2,v0,0xffff
80414e54:	24130014 	li	s3,20
80414e58:	8e290008 	lw	t1,8(s1)
80414e5c:	96020016 	lhu	v0,22(s0)
80414e60:	8e030084 	lw	v1,132(s0)
80414e64:	01272021 	addu	a0,t1,a3
80414e68:	00021202 	srl	v0,v0,0x8
80414e6c:	ae030088 	sw	v1,136(s0)
80414e70:	8e060074 	lw	a2,116(s0)
80414e74:	8e050068 	lw	a1,104(s0)
80414e78:	a0820000 	sb	v0,0(a0)
80414e7c:	8e220020 	lw	v0,32(s1)
80414e80:	96030016 	lhu	v1,22(s0)
80414e84:	25290001 	addiu	t1,t1,1
80414e88:	01221021 	addu	v0,t1,v0
80414e8c:	a0430000 	sb	v1,0(v0)
80414e90:	8e230020 	lw	v1,32(s1)
80414e94:	96020014 	lhu	v0,20(s0)
80414e98:	000a4202 	srl	t0,t2,0x8
80414e9c:	01231821 	addu	v1,t1,v1
80414ea0:	00021202 	srl	v0,v0,0x8
80414ea4:	a0620001 	sb	v0,1(v1)
80414ea8:	8e220020 	lw	v0,32(s1)
80414eac:	96030014 	lhu	v1,20(s0)
80414eb0:	00a62823 	subu	a1,a1,a2
80414eb4:	01221021 	addu	v0,t1,v0
80414eb8:	a0430002 	sb	v1,2(v0)
80414ebc:	8e220020 	lw	v0,32(s1)
80414ec0:	9203007c 	lbu	v1,124(s0)
80414ec4:	3406fde8 	li	a2,0xfde8
80414ec8:	01221021 	addu	v0,t1,v0
80414ecc:	a0430003 	sb	v1,3(v0)
80414ed0:	8e220020 	lw	v0,32(s1)
80414ed4:	9603007c 	lhu	v1,124(s0)
80414ed8:	00c5202a 	slt	a0,a2,a1
80414edc:	01221021 	addu	v0,t1,v0
80414ee0:	a0430004 	sb	v1,4(v0)
80414ee4:	8e230020 	lw	v1,32(s1)
80414ee8:	8e02007c 	lw	v0,124(s0)
80414eec:	00c4280b 	movn	a1,a2,a0
80414ef0:	01231821 	addu	v1,t1,v1
80414ef4:	00021202 	srl	v0,v0,0x8
80414ef8:	a0620005 	sb	v0,5(v1)
80414efc:	8e220020 	lw	v0,32(s1)
80414f00:	8e03007c 	lw	v1,124(s0)
80414f04:	00053203 	sra	a2,a1,0x8
80414f08:	01221021 	addu	v0,t1,v0
80414f0c:	a0430006 	sb	v1,6(v0)
80414f10:	8e220020 	lw	v0,32(s1)
80414f14:	92030088 	lbu	v1,136(s0)
80414f18:	2527000f 	addiu	a3,t1,15
80414f1c:	01221021 	addu	v0,t1,v0
80414f20:	a0430007 	sb	v1,7(v0)
80414f24:	8e220020 	lw	v0,32(s1)
80414f28:	96030088 	lhu	v1,136(s0)
80414f2c:	000a2042 	srl	a0,t2,0x1
80414f30:	01221021 	addu	v0,t1,v0
80414f34:	a0430008 	sb	v1,8(v0)
80414f38:	8e230020 	lw	v1,32(s1)
80414f3c:	8e020088 	lw	v0,136(s0)
80414f40:	252b0013 	addiu	t3,t1,19
80414f44:	01231821 	addu	v1,t1,v1
80414f48:	00021202 	srl	v0,v0,0x8
80414f4c:	a0620009 	sb	v0,9(v1)
80414f50:	8e220020 	lw	v0,32(s1)
80414f54:	8e030088 	lw	v1,136(s0)
80414f58:	30840001 	andi	a0,a0,0x1
80414f5c:	01221021 	addu	v0,t1,v0
80414f60:	a043000a 	sb	v1,10(v0)
80414f64:	8e220020 	lw	v0,32(s1)
80414f68:	01221021 	addu	v0,t1,v0
80414f6c:	a048000b 	sb	t0,11(v0)
80414f70:	8e220020 	lw	v0,32(s1)
80414f74:	01221021 	addu	v0,t1,v0
80414f78:	a04a000c 	sb	t2,12(v0)
80414f7c:	8e220020 	lw	v0,32(s1)
80414f80:	01221021 	addu	v0,t1,v0
80414f84:	a046000d 	sb	a2,13(v0)
80414f88:	8e220020 	lw	v0,32(s1)
80414f8c:	01221021 	addu	v0,t1,v0
80414f90:	a045000e 	sb	a1,14(v0)
80414f94:	8e220020 	lw	v0,32(s1)
80414f98:	00479021 	addu	s2,v0,a3
80414f9c:	a2400000 	sb	zero,0(s2)
80414fa0:	8e220020 	lw	v0,32(s1)
80414fa4:	01221021 	addu	v0,t1,v0
80414fa8:	a0400010 	sb	zero,16(v0)
80414fac:	8e220020 	lw	v0,32(s1)
80414fb0:	01221021 	addu	v0,t1,v0
80414fb4:	a0400011 	sb	zero,17(v0)
80414fb8:	8e220020 	lw	v0,32(s1)
80414fbc:	01221021 	addu	v0,t1,v0
80414fc0:	a0400012 	sb	zero,18(v0)
80414fc4:	10800013 	beqz	a0,80415014 <_tcp_protosend+0x23c>
80414fc8:	ae2b0008 	sw	t3,8(s1)
80414fcc:	8e220020 	lw	v0,32(s1)
80414fd0:	24030002 	li	v1,2
80414fd4:	25240017 	addiu	a0,t1,23
80414fd8:	01621021 	addu	v0,t3,v0
80414fdc:	a0430000 	sb	v1,0(v0)
80414fe0:	8e220020 	lw	v0,32(s1)
80414fe4:	24030004 	li	v1,4
80414fe8:	01221021 	addu	v0,t1,v0
80414fec:	a0430014 	sb	v1,20(v0)
80414ff0:	8e220020 	lw	v0,32(s1)
80414ff4:	24030005 	li	v1,5
80414ff8:	01221021 	addu	v0,t1,v0
80414ffc:	a0430015 	sb	v1,21(v0)
80415000:	8e220020 	lw	v0,32(s1)
80415004:	24030078 	li	v1,120
80415008:	01221021 	addu	v0,t1,v0
8041500c:	a0430016 	sb	v1,22(v0)
80415010:	ae240008 	sw	a0,8(s1)
80415014:	31420003 	andi	v0,t2,0x3
80415018:	10400004 	beqz	v0,8041502c <_tcp_protosend+0x254>
8041501c:	00000000 	nop
80415020:	8e02007c 	lw	v0,124(s0)
80415024:	24420001 	addiu	v0,v0,1
80415028:	ae02007c 	sw	v0,124(s0)
8041502c:	8e840004 	lw	a0,4(s4)
80415030:	26100010 	addiu	s0,s0,16
80415034:	0c1048f0 	jal	804123c0 <_ip_getaddr>
80415038:	27a50010 	addiu	a1,sp,16
8041503c:	27a40014 	addiu	a0,sp,20
80415040:	02002821 	move	a1,s0
80415044:	0c10345e 	jal	8040d178 <lib_memcpy>
80415048:	24060004 	li	a2,4
8041504c:	00002021 	move	a0,zero
80415050:	27a50010 	addiu	a1,sp,16
80415054:	2406000c 	li	a2,12
80415058:	24020006 	li	v0,6
8041505c:	a3a20019 	sb	v0,25(sp)
80415060:	a3a00018 	sb	zero,24(sp)
80415064:	a3a0001a 	sb	zero,26(sp)
80415068:	0c104758 	jal	80411d60 <ip_chksum>
8041506c:	a3b3001b 	sb	s3,27(sp)
80415070:	00402021 	move	a0,v0
80415074:	02a02821 	move	a1,s5
80415078:	0c104758 	jal	80411d60 <ip_chksum>
8041507c:	02603021 	move	a2,s3
80415080:	00021027 	nor	v0,zero,v0
80415084:	3042ffff 	andi	v0,v0,0xffff
80415088:	00021a02 	srl	v1,v0,0x8
8041508c:	a2420001 	sb	v0,1(s2)
80415090:	a2430000 	sb	v1,0(s2)
80415094:	8e840004 	lw	a0,4(s4)
80415098:	02202821 	move	a1,s1
8041509c:	02003021 	move	a2,s0
804150a0:	0c104775 	jal	80411dd4 <_ip_send>
804150a4:	24070006 	li	a3,6
804150a8:	8fbf0038 	lw	ra,56(sp)
804150ac:	8fb50034 	lw	s5,52(sp)
804150b0:	8fb40030 	lw	s4,48(sp)
804150b4:	8fb3002c 	lw	s3,44(sp)
804150b8:	8fb20028 	lw	s2,40(sp)
804150bc:	8fb10024 	lw	s1,36(sp)
804150c0:	8fb00020 	lw	s0,32(sp)
804150c4:	03e00008 	jr	ra
804150c8:	27bd0040 	addiu	sp,sp,64

804150cc <_tcp_sendctlmsg>:
804150cc:	a4a60018 	sh	a2,24(a1)
804150d0:	aca00040 	sw	zero,64(a1)
804150d4:	04e0000f 	bltz	a3,80415114 <_tcp_sendctlmsg+0x48>
804150d8:	00803021 	move	a2,a0
804150dc:	10e00009 	beqz	a3,80415104 <_tcp_sendctlmsg+0x38>
804150e0:	00000000 	nop
804150e4:	8f83813c 	lw	v1,-32452(gp)
804150e8:	8f828138 	lw	v0,-32456(gp)
804150ec:	000747c3 	sra	t0,a3,0x1f
804150f0:	00671821 	addu	v1,v1,a3
804150f4:	0067202b 	sltu	a0,v1,a3
804150f8:	00481021 	addu	v0,v0,t0
804150fc:	08105443 	j	8041510c <_tcp_sendctlmsg+0x40>
80415100:	00441021 	addu	v0,v0,a0
80415104:	00001821 	move	v1,zero
80415108:	00001021 	move	v0,zero
8041510c:	aca30034 	sw	v1,52(a1)
80415110:	aca20030 	sw	v0,48(a1)
80415114:	08105376 	j	80414dd8 <_tcp_protosend>
80415118:	00c02021 	move	a0,a2

8041511c <_tcp_close>:
8041511c:	27bdffe0 	addiu	sp,sp,-32
80415120:	00052880 	sll	a1,a1,0x2
80415124:	afb20018 	sw	s2,24(sp)
80415128:	afb10014 	sw	s1,20(sp)
8041512c:	afbf001c 	sw	ra,28(sp)
80415130:	afb00010 	sw	s0,16(sp)
80415134:	00a48821 	addu	s1,a1,a0
80415138:	8e300020 	lw	s0,32(s1)
8041513c:	00809021 	move	s2,a0
80415140:	12000022 	beqz	s0,804151cc <_tcp_close+0xb0>
80415144:	2402fff8 	li	v0,-8
80415148:	0c105285 	jal	80414a14 <_tcp_output>
8041514c:	02002821 	move	a1,s0
80415150:	8e04000c 	lw	a0,12(s0)
80415154:	2402ffff 	li	v0,-1
80415158:	ae200020 	sw	zero,32(s1)
8041515c:	2c830006 	sltiu	v1,a0,6
80415160:	10600019 	beqz	v1,804151c8 <_tcp_close+0xac>
80415164:	ae020008 	sw	v0,8(s0)
80415168:	3c038042 	lui	v1,0x8042
8041516c:	00041080 	sll	v0,a0,0x2
80415170:	24639dc4 	addiu	v1,v1,-25148
80415174:	00431021 	addu	v0,v0,v1
80415178:	8c420000 	lw	v0,0(v0)
8041517c:	00400008 	jr	v0
80415180:	00000000 	nop
80415184:	0810546c 	j	804151b0 <_tcp_close+0x94>
80415188:	24020006 	li	v0,6
8041518c:	02402021 	move	a0,s2
80415190:	0c105197 	jal	8041465c <_tcp_closetcb>
80415194:	02002821 	move	a1,s0
80415198:	02402021 	move	a0,s2
8041519c:	0c1050f4 	jal	804143d0 <_tcp_freetcb>
804151a0:	02002821 	move	a1,s0
804151a4:	08105473 	j	804151cc <_tcp_close+0xb0>
804151a8:	00001021 	move	v0,zero
804151ac:	24020009 	li	v0,9
804151b0:	ae02000c 	sw	v0,12(s0)
804151b4:	02402021 	move	a0,s2
804151b8:	02002821 	move	a1,s0
804151bc:	24060011 	li	a2,17
804151c0:	0c105433 	jal	804150cc <_tcp_sendctlmsg>
804151c4:	2407000a 	li	a3,10
804151c8:	00001021 	move	v0,zero
804151cc:	8fbf001c 	lw	ra,28(sp)
804151d0:	8fb20018 	lw	s2,24(sp)
804151d4:	8fb10014 	lw	s1,20(sp)
804151d8:	8fb00010 	lw	s0,16(sp)
804151dc:	03e00008 	jr	ra
804151e0:	27bd0020 	addiu	sp,sp,32

804151e4 <_tcp_connect>:
804151e4:	27bdffe0 	addiu	sp,sp,-32
804151e8:	00052880 	sll	a1,a1,0x2
804151ec:	00a42821 	addu	a1,a1,a0
804151f0:	afb20018 	sw	s2,24(sp)
804151f4:	afb10014 	sw	s1,20(sp)
804151f8:	afbf001c 	sw	ra,28(sp)
804151fc:	afb00010 	sw	s0,16(sp)
80415200:	8cb00020 	lw	s0,32(a1)
80415204:	00808821 	move	s1,a0
80415208:	00c02821 	move	a1,a2
8041520c:	30f2ffff 	andi	s2,a3,0xffff
80415210:	24060004 	li	a2,4
80415214:	26040010 	addiu	a0,s0,16
80415218:	1200001e 	beqz	s0,80415294 <_tcp_connect+0xb0>
8041521c:	2402fff8 	li	v0,-8
80415220:	0c10345e 	jal	8040d178 <lib_memcpy>
80415224:	00000000 	nop
80415228:	ae000084 	sw	zero,132(s0)
8041522c:	ae000088 	sw	zero,136(s0)
80415230:	8e22001c 	lw	v0,28(s1)
80415234:	26040050 	addiu	a0,s0,80
80415238:	a6120014 	sh	s2,20(s0)
8041523c:	ae02007c 	sw	v0,124(s0)
80415240:	8e22001c 	lw	v0,28(s1)
80415244:	ae000080 	sw	zero,128(s0)
80415248:	0c1057c0 	jal	80415f00 <tmb_init>
8041524c:	ae020078 	sw	v0,120(s0)
80415250:	0c1057c0 	jal	80415f00 <tmb_init>
80415254:	26040064 	addiu	a0,s0,100
80415258:	8f83813c 	lw	v1,-32452(gp)
8041525c:	8f828138 	lw	v0,-32456(gp)
80415260:	24040002 	li	a0,2
80415264:	24630258 	addiu	v1,v1,600
80415268:	ae04000c 	sw	a0,12(s0)
8041526c:	2c640258 	sltiu	a0,v1,600
80415270:	00441021 	addu	v0,v0,a0
80415274:	ae020028 	sw	v0,40(s0)
80415278:	ae03002c 	sw	v1,44(s0)
8041527c:	02202021 	move	a0,s1
80415280:	02002821 	move	a1,s0
80415284:	24060002 	li	a2,2
80415288:	0c105433 	jal	804150cc <_tcp_sendctlmsg>
8041528c:	2407000a 	li	a3,10
80415290:	00001021 	move	v0,zero
80415294:	8fbf001c 	lw	ra,28(sp)
80415298:	8fb20018 	lw	s2,24(sp)
8041529c:	8fb10014 	lw	s1,20(sp)
804152a0:	8fb00010 	lw	s0,16(sp)
804152a4:	03e00008 	jr	ra
804152a8:	27bd0020 	addiu	sp,sp,32

804152ac <_tcp_rx_callback>:
804152ac:	27bdff20 	addiu	sp,sp,-224
804152b0:	afbf00dc 	sw	ra,220(sp)
804152b4:	afbe00d8 	sw	s8,216(sp)
804152b8:	afb400c8 	sw	s4,200(sp)
804152bc:	afb000b8 	sw	s0,184(sp)
804152c0:	afb700d4 	sw	s7,212(sp)
804152c4:	afb600d0 	sw	s6,208(sp)
804152c8:	afb500cc 	sw	s5,204(sp)
804152cc:	afb300c4 	sw	s3,196(sp)
804152d0:	afb200c0 	sw	s2,192(sp)
804152d4:	afb100bc 	sw	s1,188(sp)
804152d8:	8cb20008 	lw	s2,8(a1)
804152dc:	afa700ec 	sw	a3,236(sp)
804152e0:	00c08021 	move	s0,a2
804152e4:	00a0a021 	move	s4,a1
804152e8:	24060004 	li	a2,4
804152ec:	00e02821 	move	a1,a3
804152f0:	0080f021 	move	s8,a0
804152f4:	27a40010 	addiu	a0,sp,16
804152f8:	0c10345e 	jal	8040d178 <lib_memcpy>
804152fc:	8e910020 	lw	s1,32(s4)
80415300:	02002821 	move	a1,s0
80415304:	27a40014 	addiu	a0,sp,20
80415308:	0c10345e 	jal	8040d178 <lib_memcpy>
8041530c:	24060004 	li	a2,4
80415310:	00121a03 	sra	v1,s2,0x8
80415314:	24020006 	li	v0,6
80415318:	a3a3001a 	sb	v1,26(sp)
8041531c:	a3a20019 	sb	v0,25(sp)
80415320:	a3a00018 	sb	zero,24(sp)
80415324:	a3b2001b 	sb	s2,27(sp)
80415328:	92300010 	lbu	s0,16(s1)
8041532c:	92220011 	lbu	v0,17(s1)
80415330:	00002021 	move	a0,zero
80415334:	27a50010 	addiu	a1,sp,16
80415338:	2406000c 	li	a2,12
8041533c:	a2200010 	sb	zero,16(s1)
80415340:	00108200 	sll	s0,s0,0x8
80415344:	a2200011 	sb	zero,17(s1)
80415348:	0c104758 	jal	80411d60 <ip_chksum>
8041534c:	02028025 	or	s0,s0,v0
80415350:	00402021 	move	a0,v0
80415354:	02202821 	move	a1,s1
80415358:	0c104758 	jal	80411d60 <ip_chksum>
8041535c:	02403021 	move	a2,s2
80415360:	00021027 	nor	v0,zero,v0
80415364:	3042ffff 	andi	v0,v0,0xffff
80415368:	14500206 	bne	v0,s0,80415b84 <_tcp_rx_callback+0x8d8>
8041536c:	8fbf00dc 	lw	ra,220(sp)
80415370:	8e860008 	lw	a2,8(s4)
80415374:	8e870020 	lw	a3,32(s4)
80415378:	24c2fffe 	addiu	v0,a2,-2
8041537c:	24e30002 	addiu	v1,a3,2
80415380:	ae820008 	sw	v0,8(s4)
80415384:	ae830020 	sw	v1,32(s4)
80415388:	24e40004 	addiu	a0,a3,4
8041538c:	24c2fffc 	addiu	v0,a2,-4
80415390:	9073ffff 	lbu	s3,-1(v1)
80415394:	9071fffe 	lbu	s1,-2(v1)
80415398:	ae820008 	sw	v0,8(s4)
8041539c:	ae840020 	sw	a0,32(s4)
804153a0:	24e20008 	addiu	v0,a3,8
804153a4:	24c3fff8 	addiu	v1,a2,-8
804153a8:	9092ffff 	lbu	s2,-1(a0)
804153ac:	9090fffe 	lbu	s0,-2(a0)
804153b0:	ae830008 	sw	v1,8(s4)
804153b4:	ae820020 	sw	v0,32(s4)
804153b8:	24e3000c 	addiu	v1,a3,12
804153bc:	24c4fff4 	addiu	a0,a2,-12
804153c0:	904ffffc 	lbu	t7,-4(v0)
804153c4:	904cffff 	lbu	t4,-1(v0)
804153c8:	904bfffe 	lbu	t3,-2(v0)
804153cc:	904dfffd 	lbu	t5,-3(v0)
804153d0:	ae840008 	sw	a0,8(s4)
804153d4:	ae830020 	sw	v1,32(s4)
804153d8:	24e2000e 	addiu	v0,a3,14
804153dc:	24c4fff2 	addiu	a0,a2,-14
804153e0:	906efffc 	lbu	t6,-4(v1)
804153e4:	9069ffff 	lbu	t1,-1(v1)
804153e8:	9065fffe 	lbu	a1,-2(v1)
804153ec:	9068fffd 	lbu	t0,-3(v1)
804153f0:	ae840008 	sw	a0,8(s4)
804153f4:	ae820020 	sw	v0,32(s4)
804153f8:	9043fffe 	lbu	v1,-2(v0)
804153fc:	904affff 	lbu	t2,-1(v0)
80415400:	24e40010 	addiu	a0,a3,16
80415404:	24c2fff0 	addiu	v0,a2,-16
80415408:	ae820008 	sw	v0,8(s4)
8041540c:	ae840020 	sw	a0,32(s4)
80415410:	00031a00 	sll	v1,v1,0x8
80415414:	006aa825 	or	s5,v1,t2
80415418:	9083fffe 	lbu	v1,-2(a0)
8041541c:	000b5a00 	sll	t3,t3,0x8
80415420:	9084ffff 	lbu	a0,-1(a0)
80415424:	00052a00 	sll	a1,a1,0x8
80415428:	00151302 	srl	v0,s5,0xc
8041542c:	018b6025 	or	t4,t4,t3
80415430:	000d6c00 	sll	t5,t5,0x10
80415434:	01254825 	or	t1,t1,a1
80415438:	00084400 	sll	t0,t0,0x10
8041543c:	00022880 	sll	a1,v0,0x2
80415440:	018d6025 	or	t4,t4,t5
80415444:	000f7e00 	sll	t7,t7,0x18
80415448:	00031a00 	sll	v1,v1,0x8
8041544c:	00118a00 	sll	s1,s1,0x8
80415450:	01284825 	or	t1,t1,t0
80415454:	00108200 	sll	s0,s0,0x8
80415458:	000e7600 	sll	t6,t6,0x18
8041545c:	24c6ffec 	addiu	a2,a2,-20
80415460:	24e70014 	addiu	a3,a3,20
80415464:	018f6025 	or	t4,t4,t7
80415468:	00641825 	or	v1,v1,a0
8041546c:	28a20014 	slti	v0,a1,20
80415470:	0233b825 	or	s7,s1,s3
80415474:	afac00b0 	sw	t4,176(sp)
80415478:	afa300b4 	sw	v1,180(sp)
8041547c:	ae860008 	sw	a2,8(s4)
80415480:	0212b025 	or	s6,s0,s2
80415484:	012e8825 	or	s1,t1,t6
80415488:	144001bd 	bnez	v0,80415b80 <_tcp_rx_callback+0x8d4>
8041548c:	ae870020 	sw	a3,32(s4)
80415490:	00e51821 	addu	v1,a3,a1
80415494:	00c51023 	subu	v0,a2,a1
80415498:	8fd20010 	lw	s2,16(s8)
8041549c:	24420014 	addiu	v0,v0,20
804154a0:	2463ffec 	addiu	v1,v1,-20
804154a4:	27d00010 	addiu	s0,s8,16
804154a8:	ae820008 	sw	v0,8(s4)
804154ac:	ae830020 	sw	v1,32(s4)
804154b0:	00009821 	move	s3,zero
804154b4:	12500010 	beq	s2,s0,804154f8 <_tcp_rx_callback+0x24c>
804154b8:	27c30010 	addiu	v1,s8,16
804154bc:	96430014 	lhu	v1,20(s2)
804154c0:	1060000b 	beqz	v1,804154f0 <_tcp_rx_callback+0x244>
804154c4:	02409821 	move	s3,s2
804154c8:	96420016 	lhu	v0,22(s2)
804154cc:	14560008 	bne	v0,s6,804154f0 <_tcp_rx_callback+0x244>
804154d0:	00000000 	nop
804154d4:	14770006 	bne	v1,s7,804154f0 <_tcp_rx_callback+0x244>
804154d8:	8fa400ec 	lw	a0,236(sp)
804154dc:	26450010 	addiu	a1,s2,16
804154e0:	0c10344d 	jal	8040d134 <lib_memcmp>
804154e4:	24060004 	li	a2,4
804154e8:	10400003 	beqz	v0,804154f8 <_tcp_rx_callback+0x24c>
804154ec:	27c30010 	addiu	v1,s8,16
804154f0:	0810552d 	j	804154b4 <_tcp_rx_callback+0x208>
804154f4:	8e520000 	lw	s2,0(s2)
804154f8:	1643000e 	bne	s2,v1,80415534 <_tcp_rx_callback+0x288>
804154fc:	02608021 	move	s0,s3
80415500:	8fd20010 	lw	s2,16(s8)
80415504:	12430009 	beq	s2,v1,8041552c <_tcp_rx_callback+0x280>
80415508:	27c20010 	addiu	v0,s8,16
8041550c:	96420014 	lhu	v0,20(s2)
80415510:	14400004 	bnez	v0,80415524 <_tcp_rx_callback+0x278>
80415514:	02409821 	move	s3,s2
80415518:	96420016 	lhu	v0,22(s2)
8041551c:	10560003 	beq	v0,s6,8041552c <_tcp_rx_callback+0x280>
80415520:	27c20010 	addiu	v0,s8,16
80415524:	08105541 	j	80415504 <_tcp_rx_callback+0x258>
80415528:	8e720000 	lw	s2,0(s3)
8041552c:	12420003 	beq	s2,v0,8041553c <_tcp_rx_callback+0x290>
80415530:	02608021 	move	s0,s3
80415534:	16000014 	bnez	s0,80415588 <_tcp_rx_callback+0x2dc>
80415538:	240203f0 	li	v0,1008
8041553c:	27b00020 	addiu	s0,sp,32
80415540:	02002021 	move	a0,s0
80415544:	00002821 	move	a1,zero
80415548:	0c103468 	jal	8040d1a0 <lib_memset>
8041554c:	24060090 	li	a2,144
80415550:	8fa500ec 	lw	a1,236(sp)
80415554:	27a40030 	addiu	a0,sp,48
80415558:	0c10345e 	jal	8040d178 <lib_memcpy>
8041555c:	24060004 	li	a2,4
80415560:	8fa200b0 	lw	v0,176(sp)
80415564:	03c02021 	move	a0,s8
80415568:	02002821 	move	a1,s0
8041556c:	24430001 	addiu	v1,v0,1
80415570:	24020014 	li	v0,20
80415574:	a7b70034 	sh	s7,52(sp)
80415578:	a7b60036 	sh	s6,54(sp)
8041557c:	a7a20038 	sh	v0,56(sp)
80415580:	081056de 	j	80415b78 <_tcp_rx_callback+0x8cc>
80415584:	afa300a4 	sw	v1,164(sp)
80415588:	8e05000c 	lw	a1,12(s0)
8041558c:	00a21007 	srav	v0,v0,a1
80415590:	30420001 	andi	v0,v0,0x1
80415594:	10400009 	beqz	v0,804155bc <_tcp_rx_callback+0x310>
80415598:	00152082 	srl	a0,s5,0x2
8041559c:	8f83813c 	lw	v1,-32452(gp)
804155a0:	8f828138 	lw	v0,-32456(gp)
804155a4:	24630258 	addiu	v1,v1,600
804155a8:	2c640258 	sltiu	a0,v1,600
804155ac:	00441021 	addu	v0,v0,a0
804155b0:	ae03002c 	sw	v1,44(s0)
804155b4:	ae020028 	sw	v0,40(s0)
804155b8:	00152082 	srl	a0,s5,0x2
804155bc:	30820001 	andi	v0,a0,0x1
804155c0:	1040000b 	beqz	v0,804155f0 <_tcp_rx_callback+0x344>
804155c4:	8fa600b4 	lw	a2,180(sp)
804155c8:	24020003 	li	v0,3
804155cc:	14a20003 	bne	a1,v0,804155dc <_tcp_rx_callback+0x330>
804155d0:	24020001 	li	v0,1
804155d4:	081056e0 	j	80415b80 <_tcp_rx_callback+0x8d4>
804155d8:	ae02000c 	sw	v0,12(s0)
804155dc:	03c02021 	move	a0,s8
804155e0:	0c105197 	jal	8041465c <_tcp_closetcb>
804155e4:	02002821 	move	a1,s0
804155e8:	081056e1 	j	80415b84 <_tcp_rx_callback+0x8d8>
804155ec:	8fbf00dc 	lw	ra,220(sp)
804155f0:	24a3ffff 	addiu	v1,a1,-1
804155f4:	2c62000a 	sltiu	v0,v1,10
804155f8:	1040014e 	beqz	v0,80415b34 <_tcp_rx_callback+0x888>
804155fc:	ae060080 	sw	a2,128(s0)
80415600:	00031080 	sll	v0,v1,0x2
80415604:	3c038042 	lui	v1,0x8042
80415608:	24639ddc 	addiu	v1,v1,-25124
8041560c:	00431021 	addu	v0,v0,v1
80415610:	8c420000 	lw	v0,0(v0)
80415614:	00400008 	jr	v0
80415618:	00000000 	nop
8041561c:	00151042 	srl	v0,s5,0x1
80415620:	30420001 	andi	v0,v0,0x1
80415624:	10400156 	beqz	v0,80415b80 <_tcp_rx_callback+0x8d4>
80415628:	8fa300b0 	lw	v1,176(sp)
8041562c:	8fa500ec 	lw	a1,236(sp)
80415630:	26040010 	addiu	a0,s0,16
80415634:	24620001 	addiu	v0,v1,1
80415638:	ae020084 	sw	v0,132(s0)
8041563c:	a6170014 	sh	s7,20(s0)
80415640:	0c10345e 	jal	8040d178 <lib_memcpy>
80415644:	24060004 	li	a2,4
80415648:	8f83813c 	lw	v1,-32452(gp)
8041564c:	8f828138 	lw	v0,-32456(gp)
80415650:	24040003 	li	a0,3
80415654:	24630258 	addiu	v1,v1,600
80415658:	ae04000c 	sw	a0,12(s0)
8041565c:	2c640258 	sltiu	a0,v1,600
80415660:	00441021 	addu	v0,v0,a0
80415664:	ae03002c 	sw	v1,44(s0)
80415668:	081055c0 	j	80415700 <_tcp_rx_callback+0x454>
8041566c:	ae020028 	sw	v0,40(s0)
80415670:	00151042 	srl	v0,s5,0x1
80415674:	30420001 	andi	v0,v0,0x1
80415678:	10400142 	beqz	v0,80415b84 <_tcp_rx_callback+0x8d8>
8041567c:	8fbf00dc 	lw	ra,220(sp)
80415680:	00151102 	srl	v0,s5,0x4
80415684:	30420001 	andi	v0,v0,0x1
80415688:	10400018 	beqz	v0,804156ec <_tcp_rx_callback+0x440>
8041568c:	00000000 	nop
80415690:	8e020078 	lw	v0,120(s0)
80415694:	24420001 	addiu	v0,v0,1
80415698:	16220014 	bne	s1,v0,804156ec <_tcp_rx_callback+0x440>
8041569c:	00000000 	nop
804156a0:	8f83813c 	lw	v1,-32452(gp)
804156a4:	8fa500b0 	lw	a1,176(sp)
804156a8:	8f828138 	lw	v0,-32456(gp)
804156ac:	24630258 	addiu	v1,v1,600
804156b0:	24a40001 	addiu	a0,a1,1
804156b4:	2c650258 	sltiu	a1,v1,600
804156b8:	00451021 	addu	v0,v0,a1
804156bc:	ae020028 	sw	v0,40(s0)
804156c0:	ae040084 	sw	a0,132(s0)
804156c4:	24020004 	li	v0,4
804156c8:	03c02021 	move	a0,s8
804156cc:	02002821 	move	a1,s0
804156d0:	24060010 	li	a2,16
804156d4:	00003821 	move	a3,zero
804156d8:	ae03002c 	sw	v1,44(s0)
804156dc:	ae02000c 	sw	v0,12(s0)
804156e0:	ae11007c 	sw	s1,124(s0)
804156e4:	081055c4 	j	80415710 <_tcp_rx_callback+0x464>
804156e8:	ae110078 	sw	s1,120(s0)
804156ec:	8e020084 	lw	v0,132(s0)
804156f0:	24030003 	li	v1,3
804156f4:	ae03000c 	sw	v1,12(s0)
804156f8:	24420001 	addiu	v0,v0,1
804156fc:	ae020084 	sw	v0,132(s0)
80415700:	03c02021 	move	a0,s8
80415704:	02002821 	move	a1,s0
80415708:	24060012 	li	a2,18
8041570c:	2407000a 	li	a3,10
80415710:	0c105433 	jal	804150cc <_tcp_sendctlmsg>
80415714:	00000000 	nop
80415718:	081056e1 	j	80415b84 <_tcp_rx_callback+0x8d8>
8041571c:	8fbf00dc 	lw	ra,220(sp)
80415720:	00151042 	srl	v0,s5,0x1
80415724:	30420001 	andi	v0,v0,0x1
80415728:	10400007 	beqz	v0,80415748 <_tcp_rx_callback+0x49c>
8041572c:	00151102 	srl	v0,s5,0x4
80415730:	03c02021 	move	a0,s8
80415734:	02002821 	move	a1,s0
80415738:	24060012 	li	a2,18
8041573c:	0c105433 	jal	804150cc <_tcp_sendctlmsg>
80415740:	2407000a 	li	a3,10
80415744:	00151102 	srl	v0,s5,0x4
80415748:	30420001 	andi	v0,v0,0x1
8041574c:	1040010d 	beqz	v0,80415b84 <_tcp_rx_callback+0x8d8>
80415750:	8fbf00dc 	lw	ra,220(sp)
80415754:	8e020078 	lw	v0,120(s0)
80415758:	24420001 	addiu	v0,v0,1
8041575c:	16220109 	bne	s1,v0,80415b84 <_tcp_rx_callback+0x8d8>
80415760:	03c02021 	move	a0,s8
80415764:	02002821 	move	a1,s0
80415768:	24060010 	li	a2,16
8041576c:	0c105433 	jal	804150cc <_tcp_sendctlmsg>
80415770:	00003821 	move	a3,zero
80415774:	8f83813c 	lw	v1,-32452(gp)
80415778:	8f828138 	lw	v0,-32456(gp)
8041577c:	24040004 	li	a0,4
80415780:	24630258 	addiu	v1,v1,600
80415784:	ae04000c 	sw	a0,12(s0)
80415788:	2c640258 	sltiu	a0,v1,600
8041578c:	00441021 	addu	v0,v0,a0
80415790:	ae11007c 	sw	s1,124(s0)
80415794:	ae03002c 	sw	v1,44(s0)
80415798:	ae020028 	sw	v0,40(s0)
8041579c:	081056e0 	j	80415b80 <_tcp_rx_callback+0x8d4>
804157a0:	ae110078 	sw	s1,120(s0)
804157a4:	00159102 	srl	s2,s5,0x4
804157a8:	32420001 	andi	v0,s2,0x1
804157ac:	10400045 	beqz	v0,804158c4 <_tcp_rx_callback+0x618>
804157b0:	24020004 	li	v0,4
804157b4:	10a20006 	beq	a1,v0,804157d0 <_tcp_rx_callback+0x524>
804157b8:	8e030060 	lw	v1,96(s0)
804157bc:	24020006 	li	v0,6
804157c0:	10a20021 	beq	a1,v0,80415848 <_tcp_rx_callback+0x59c>
804157c4:	00000000 	nop
804157c8:	08105632 	j	804158c8 <_tcp_rx_callback+0x61c>
804157cc:	8e820008 	lw	v0,8(s4)
804157d0:	8e050078 	lw	a1,120(s0)
804157d4:	00b11023 	subu	v0,a1,s1
804157d8:	1c40003a 	bgtz	v0,804158c4 <_tcp_rx_callback+0x618>
804157dc:	00a31021 	addu	v0,a1,v1
804157e0:	02221023 	subu	v0,s1,v0
804157e4:	1c400037 	bgtz	v0,804158c4 <_tcp_rx_callback+0x618>
804157e8:	02252823 	subu	a1,s1,a1
804157ec:	18a00008 	blez	a1,80415810 <_tcp_rx_callback+0x564>
804157f0:	00000000 	nop
804157f4:	0c1057c4 	jal	80415f10 <tmb_adjust>
804157f8:	26040050 	addiu	a0,s0,80
804157fc:	24020010 	li	v0,16
80415800:	a6020018 	sh	v0,24(s0)
80415804:	ae110078 	sw	s1,120(s0)
80415808:	08105607 	j	8041581c <_tcp_rx_callback+0x570>
8041580c:	ae00008c 	sw	zero,140(s0)
80415810:	8e02008c 	lw	v0,140(s0)
80415814:	24420001 	addiu	v0,v0,1
80415818:	ae02008c 	sw	v0,140(s0)
8041581c:	8e020060 	lw	v0,96(s0)
80415820:	10400005 	beqz	v0,80415838 <_tcp_rx_callback+0x58c>
80415824:	00001821 	move	v1,zero
80415828:	8e020048 	lw	v0,72(s0)
8041582c:	34420001 	ori	v0,v0,0x1
80415830:	08105631 	j	804158c4 <_tcp_rx_callback+0x618>
80415834:	ae020048 	sw	v0,72(s0)
80415838:	00001021 	move	v0,zero
8041583c:	ae030034 	sw	v1,52(s0)
80415840:	08105631 	j	804158c4 <_tcp_rx_callback+0x618>
80415844:	ae020030 	sw	v0,48(s0)
80415848:	8e030078 	lw	v1,120(s0)
8041584c:	2622ffff 	addiu	v0,s1,-1
80415850:	1462001c 	bne	v1,v0,804158c4 <_tcp_rx_callback+0x618>
80415854:	32a20001 	andi	v0,s5,0x1
80415858:	10400018 	beqz	v0,804158bc <_tcp_rx_callback+0x610>
8041585c:	ae110078 	sw	s1,120(s0)
80415860:	8f85813c 	lw	a1,-32452(gp)
80415864:	8f848138 	lw	a0,-32456(gp)
80415868:	8e030048 	lw	v1,72(s0)
8041586c:	24a5012c 	addiu	a1,a1,300
80415870:	2ca2012c 	sltiu	v0,a1,300
80415874:	00822021 	addu	a0,a0,v0
80415878:	2402000a 	li	v0,10
8041587c:	34630002 	ori	v1,v1,0x2
80415880:	ae02000c 	sw	v0,12(s0)
80415884:	24020010 	li	v0,16
80415888:	a6020018 	sh	v0,24(s0)
8041588c:	ae030048 	sw	v1,72(s0)
80415890:	00001021 	move	v0,zero
80415894:	00001821 	move	v1,zero
80415898:	ae050024 	sw	a1,36(s0)
8041589c:	ae040020 	sw	a0,32(s0)
804158a0:	ae030034 	sw	v1,52(s0)
804158a4:	ae020030 	sw	v0,48(s0)
804158a8:	ae03002c 	sw	v1,44(s0)
804158ac:	ae020028 	sw	v0,40(s0)
804158b0:	ae03003c 	sw	v1,60(s0)
804158b4:	08105631 	j	804158c4 <_tcp_rx_callback+0x618>
804158b8:	ae020038 	sw	v0,56(s0)
804158bc:	24020007 	li	v0,7
804158c0:	ae02000c 	sw	v0,12(s0)
804158c4:	8e820008 	lw	v0,8(s4)
804158c8:	1040001d 	beqz	v0,80415940 <_tcp_rx_callback+0x694>
804158cc:	8e850020 	lw	a1,32(s4)
804158d0:	8fa400b0 	lw	a0,176(sp)
804158d4:	8e060084 	lw	a2,132(s0)
804158d8:	00821821 	addu	v1,a0,v0
804158dc:	00861023 	subu	v0,a0,a2
804158e0:	1c400094 	bgtz	v0,80415b34 <_tcp_rx_callback+0x888>
804158e4:	00c31023 	subu	v0,a2,v1
804158e8:	04410092 	bgez	v0,80415b34 <_tcp_rx_callback+0x888>
804158ec:	00c41023 	subu	v0,a2,a0
804158f0:	00663023 	subu	a2,v1,a2
804158f4:	18c00012 	blez	a2,80415940 <_tcp_rx_callback+0x694>
804158f8:	00a22821 	addu	a1,a1,v0
804158fc:	26040064 	addiu	a0,s0,100
80415900:	0c1057f8 	jal	80415fe0 <tmb_copyin>
80415904:	24070001 	li	a3,1
80415908:	8e050048 	lw	a1,72(s0)
8041590c:	8e030084 	lw	v1,132(s0)
80415910:	00052082 	srl	a0,a1,0x2
80415914:	00621821 	addu	v1,v1,v0
80415918:	30840001 	andi	a0,a0,0x1
8041591c:	10800006 	beqz	a0,80415938 <_tcp_rx_callback+0x68c>
80415920:	ae030084 	sw	v1,132(s0)
80415924:	34a30002 	ori	v1,a1,0x2
80415928:	24020010 	li	v0,16
8041592c:	a6020018 	sh	v0,24(s0)
80415930:	08105650 	j	80415940 <_tcp_rx_callback+0x694>
80415934:	ae030048 	sw	v1,72(s0)
80415938:	34a20004 	ori	v0,a1,0x4
8041593c:	ae020048 	sw	v0,72(s0)
80415940:	32a20001 	andi	v0,s5,0x1
80415944:	1040007b 	beqz	v0,80415b34 <_tcp_rx_callback+0x888>
80415948:	00000000 	nop
8041594c:	8e020084 	lw	v0,132(s0)
80415950:	8e03000c 	lw	v1,12(s0)
80415954:	24420001 	addiu	v0,v0,1
80415958:	ae020084 	sw	v0,132(s0)
8041595c:	24020006 	li	v0,6
80415960:	10620016 	beq	v1,v0,804159bc <_tcp_rx_callback+0x710>
80415964:	28620007 	slti	v0,v1,7
80415968:	10400006 	beqz	v0,80415984 <_tcp_rx_callback+0x6d8>
8041596c:	24020007 	li	v0,7
80415970:	24020004 	li	v0,4
80415974:	10620007 	beq	v1,v0,80415994 <_tcp_rx_callback+0x6e8>
80415978:	2403fffb 	li	v1,-5
8041597c:	081056ce 	j	80415b38 <_tcp_rx_callback+0x88c>
80415980:	8e020048 	lw	v0,72(s0)
80415984:	1062001d 	beq	v1,v0,804159fc <_tcp_rx_callback+0x750>
80415988:	00000000 	nop
8041598c:	081056ce 	j	80415b38 <_tcp_rx_callback+0x88c>
80415990:	8e020048 	lw	v0,72(s0)
80415994:	8e020048 	lw	v0,72(s0)
80415998:	03c02021 	move	a0,s8
8041599c:	00431024 	and	v0,v0,v1
804159a0:	ae020048 	sw	v0,72(s0)
804159a4:	02002821 	move	a1,s0
804159a8:	24020005 	li	v0,5
804159ac:	24060010 	li	a2,16
804159b0:	2407ffff 	li	a3,-1
804159b4:	081056ba 	j	80415ae8 <_tcp_rx_callback+0x83c>
804159b8:	ae02000c 	sw	v0,12(s0)
804159bc:	32420001 	andi	v0,s2,0x1
804159c0:	10400007 	beqz	v0,804159e0 <_tcp_rx_callback+0x734>
804159c4:	8e030048 	lw	v1,72(s0)
804159c8:	8f85813c 	lw	a1,-32452(gp)
804159cc:	8f848138 	lw	a0,-32456(gp)
804159d0:	34630002 	ori	v1,v1,0x2
804159d4:	24a5000a 	addiu	a1,a1,10
804159d8:	08105685 	j	80415a14 <_tcp_rx_callback+0x768>
804159dc:	2ca2000a 	sltiu	v0,a1,10
804159e0:	34620002 	ori	v0,v1,0x2
804159e4:	24030008 	li	v1,8
804159e8:	ae03000c 	sw	v1,12(s0)
804159ec:	24030010 	li	v1,16
804159f0:	a6030018 	sh	v1,24(s0)
804159f4:	081056cd 	j	80415b34 <_tcp_rx_callback+0x888>
804159f8:	ae020048 	sw	v0,72(s0)
804159fc:	8f85813c 	lw	a1,-32452(gp)
80415a00:	8e030048 	lw	v1,72(s0)
80415a04:	8f848138 	lw	a0,-32456(gp)
80415a08:	24a5012c 	addiu	a1,a1,300
80415a0c:	34630002 	ori	v1,v1,0x2
80415a10:	2ca2012c 	sltiu	v0,a1,300
80415a14:	00822021 	addu	a0,a0,v0
80415a18:	24020010 	li	v0,16
80415a1c:	a6020018 	sh	v0,24(s0)
80415a20:	2402000a 	li	v0,10
80415a24:	ae030048 	sw	v1,72(s0)
80415a28:	ae02000c 	sw	v0,12(s0)
80415a2c:	00001821 	move	v1,zero
80415a30:	00001021 	move	v0,zero
80415a34:	ae050024 	sw	a1,36(s0)
80415a38:	ae040020 	sw	a0,32(s0)
80415a3c:	ae030034 	sw	v1,52(s0)
80415a40:	ae020030 	sw	v0,48(s0)
80415a44:	ae03002c 	sw	v1,44(s0)
80415a48:	ae020028 	sw	v0,40(s0)
80415a4c:	ae03003c 	sw	v1,60(s0)
80415a50:	081056cd 	j	80415b34 <_tcp_rx_callback+0x888>
80415a54:	ae020038 	sw	v0,56(s0)
80415a58:	8e020078 	lw	v0,120(s0)
80415a5c:	24420001 	addiu	v0,v0,1
80415a60:	16220034 	bne	s1,v0,80415b34 <_tcp_rx_callback+0x888>
80415a64:	00000000 	nop
80415a68:	8f83813c 	lw	v1,-32452(gp)
80415a6c:	8f828138 	lw	v0,-32456(gp)
80415a70:	2404000a 	li	a0,10
80415a74:	2463012c 	addiu	v1,v1,300
80415a78:	ae04000c 	sw	a0,12(s0)
80415a7c:	2c64012c 	sltiu	a0,v1,300
80415a80:	00002821 	move	a1,zero
80415a84:	00441021 	addu	v0,v0,a0
80415a88:	00002021 	move	a0,zero
80415a8c:	ae030024 	sw	v1,36(s0)
80415a90:	ae020020 	sw	v0,32(s0)
80415a94:	ae050034 	sw	a1,52(s0)
80415a98:	ae040030 	sw	a0,48(s0)
80415a9c:	ae05002c 	sw	a1,44(s0)
80415aa0:	ae040028 	sw	a0,40(s0)
80415aa4:	ae05003c 	sw	a1,60(s0)
80415aa8:	081056cd 	j	80415b34 <_tcp_rx_callback+0x888>
80415aac:	ae040038 	sw	a0,56(s0)
80415ab0:	8e020078 	lw	v0,120(s0)
80415ab4:	24420001 	addiu	v0,v0,1
80415ab8:	16220008 	bne	s1,v0,80415adc <_tcp_rx_callback+0x830>
80415abc:	03c02021 	move	a0,s8
80415ac0:	0c105197 	jal	8041465c <_tcp_closetcb>
80415ac4:	02002821 	move	a1,s0
80415ac8:	03c02021 	move	a0,s8
80415acc:	0c1050f4 	jal	804143d0 <_tcp_freetcb>
80415ad0:	02002821 	move	a1,s0
80415ad4:	081056ce 	j	80415b38 <_tcp_rx_callback+0x88c>
80415ad8:	8e020048 	lw	v0,72(s0)
80415adc:	02002821 	move	a1,s0
80415ae0:	24060011 	li	a2,17
80415ae4:	2407000a 	li	a3,10
80415ae8:	0c105433 	jal	804150cc <_tcp_sendctlmsg>
80415aec:	00000000 	nop
80415af0:	081056ce 	j	80415b38 <_tcp_rx_callback+0x88c>
80415af4:	8e020048 	lw	v0,72(s0)
80415af8:	30820001 	andi	v0,a0,0x1
80415afc:	1440000d 	bnez	v0,80415b34 <_tcp_rx_callback+0x888>
80415b00:	00000000 	nop
80415b04:	8f83813c 	lw	v1,-32452(gp)
80415b08:	8f828138 	lw	v0,-32456(gp)
80415b0c:	24040010 	li	a0,16
80415b10:	2463012c 	addiu	v1,v1,300
80415b14:	a6040018 	sh	a0,24(s0)
80415b18:	2c64012c 	sltiu	a0,v1,300
80415b1c:	00441021 	addu	v0,v0,a0
80415b20:	ae030024 	sw	v1,36(s0)
80415b24:	ae020020 	sw	v0,32(s0)
80415b28:	03c02021 	move	a0,s8
80415b2c:	0c105376 	jal	80414dd8 <_tcp_protosend>
80415b30:	02002821 	move	a1,s0
80415b34:	8e020048 	lw	v0,72(s0)
80415b38:	30420001 	andi	v0,v0,0x1
80415b3c:	10400007 	beqz	v0,80415b5c <_tcp_rx_callback+0x8b0>
80415b40:	03c02021 	move	a0,s8
80415b44:	0c105285 	jal	80414a14 <_tcp_output>
80415b48:	02002821 	move	a1,s0
80415b4c:	8e020048 	lw	v0,72(s0)
80415b50:	2403fffc 	li	v1,-4
80415b54:	00431024 	and	v0,v0,v1
80415b58:	ae020048 	sw	v0,72(s0)
80415b5c:	8e020048 	lw	v0,72(s0)
80415b60:	00021042 	srl	v0,v0,0x1
80415b64:	30420001 	andi	v0,v0,0x1
80415b68:	10400006 	beqz	v0,80415b84 <_tcp_rx_callback+0x8d8>
80415b6c:	8fbf00dc 	lw	ra,220(sp)
80415b70:	03c02021 	move	a0,s8
80415b74:	02002821 	move	a1,s0
80415b78:	0c105376 	jal	80414dd8 <_tcp_protosend>
80415b7c:	00000000 	nop
80415b80:	8fbf00dc 	lw	ra,220(sp)
80415b84:	8fbe00d8 	lw	s8,216(sp)
80415b88:	8fb700d4 	lw	s7,212(sp)
80415b8c:	8fb600d0 	lw	s6,208(sp)
80415b90:	8fb500cc 	lw	s5,204(sp)
80415b94:	8fb400c8 	lw	s4,200(sp)
80415b98:	8fb300c4 	lw	s3,196(sp)
80415b9c:	8fb200c0 	lw	s2,192(sp)
80415ba0:	8fb100bc 	lw	s1,188(sp)
80415ba4:	8fb000b8 	lw	s0,184(sp)
80415ba8:	00001021 	move	v0,zero
80415bac:	03e00008 	jr	ra
80415bb0:	27bd00e0 	addiu	sp,sp,224

80415bb4 <_tcp_poll>:
80415bb4:	27bdffe0 	addiu	sp,sp,-32
80415bb8:	afb10014 	sw	s1,20(sp)
80415bbc:	afbf001c 	sw	ra,28(sp)
80415bc0:	afb20018 	sw	s2,24(sp)
80415bc4:	afb00010 	sw	s0,16(sp)
80415bc8:	8c820008 	lw	v0,8(a0)
80415bcc:	00808821 	move	s1,a0
80415bd0:	8c84000c 	lw	a0,12(a0)
80415bd4:	00441025 	or	v0,v0,a0
80415bd8:	1040002b 	beqz	v0,80415c88 <_tcp_poll+0xd4>
80415bdc:	00000000 	nop
80415be0:	8f828138 	lw	v0,-32456(gp)
80415be4:	8e230008 	lw	v1,8(s1)
80415be8:	0062102a 	slt	v0,v1,v0
80415bec:	1440000b 	bnez	v0,80415c1c <_tcp_poll+0x68>
80415bf0:	00000000 	nop
80415bf4:	8f828138 	lw	v0,-32456(gp)
80415bf8:	14430023 	bne	v0,v1,80415c88 <_tcp_poll+0xd4>
80415bfc:	00000000 	nop
80415c00:	8f82813c 	lw	v0,-32452(gp)
80415c04:	0082102b 	sltu	v0,a0,v0
80415c08:	14400004 	bnez	v0,80415c1c <_tcp_poll+0x68>
80415c0c:	00000000 	nop
80415c10:	8f82813c 	lw	v0,-32452(gp)
80415c14:	08105723 	j	80415c8c <_tcp_poll+0xd8>
80415c18:	8e300010 	lw	s0,16(s1)
80415c1c:	8f83813c 	lw	v1,-32452(gp)
80415c20:	8f828138 	lw	v0,-32456(gp)
80415c24:	8e300010 	lw	s0,16(s1)
80415c28:	24630002 	addiu	v1,v1,2
80415c2c:	2c640002 	sltiu	a0,v1,2
80415c30:	00441021 	addu	v0,v0,a0
80415c34:	26320010 	addiu	s2,s1,16
80415c38:	ae23000c 	sw	v1,12(s1)
80415c3c:	ae220008 	sw	v0,8(s1)
80415c40:	1212000e 	beq	s0,s2,80415c7c <_tcp_poll+0xc8>
80415c44:	2402fffb 	li	v0,-5
80415c48:	8e030048 	lw	v1,72(s0)
80415c4c:	02002821 	move	a1,s0
80415c50:	00621024 	and	v0,v1,v0
80415c54:	00031882 	srl	v1,v1,0x2
80415c58:	30630001 	andi	v1,v1,0x1
80415c5c:	02202021 	move	a0,s1
80415c60:	24060010 	li	a2,16
80415c64:	10600003 	beqz	v1,80415c74 <_tcp_poll+0xc0>
80415c68:	2407ffff 	li	a3,-1
80415c6c:	0c105433 	jal	804150cc <_tcp_sendctlmsg>
80415c70:	ae020048 	sw	v0,72(s0)
80415c74:	08105710 	j	80415c40 <_tcp_poll+0x8c>
80415c78:	8e100000 	lw	s0,0(s0)
80415c7c:	8e22001c 	lw	v0,28(s1)
80415c80:	24426400 	addiu	v0,v0,25600
80415c84:	ae22001c 	sw	v0,28(s1)
80415c88:	8e300010 	lw	s0,16(s1)
80415c8c:	26320010 	addiu	s2,s1,16
80415c90:	12120096 	beq	s0,s2,80415eec <_tcp_poll+0x338>
80415c94:	8fbf001c 	lw	ra,28(sp)
80415c98:	8e020030 	lw	v0,48(s0)
80415c9c:	8e040034 	lw	a0,52(s0)
80415ca0:	00401821 	move	v1,v0
80415ca4:	00441025 	or	v0,v0,a0
80415ca8:	1040003e 	beqz	v0,80415da4 <_tcp_poll+0x1f0>
80415cac:	00000000 	nop
80415cb0:	8f828138 	lw	v0,-32456(gp)
80415cb4:	0062102a 	slt	v0,v1,v0
80415cb8:	1440000b 	bnez	v0,80415ce8 <_tcp_poll+0x134>
80415cbc:	00000000 	nop
80415cc0:	8f828138 	lw	v0,-32456(gp)
80415cc4:	14430037 	bne	v0,v1,80415da4 <_tcp_poll+0x1f0>
80415cc8:	00000000 	nop
80415ccc:	8f82813c 	lw	v0,-32452(gp)
80415cd0:	0082102b 	sltu	v0,a0,v0
80415cd4:	14400004 	bnez	v0,80415ce8 <_tcp_poll+0x134>
80415cd8:	00000000 	nop
80415cdc:	8f82813c 	lw	v0,-32452(gp)
80415ce0:	0810576a 	j	80415da8 <_tcp_poll+0x1f4>
80415ce4:	8e020028 	lw	v0,40(s0)
80415ce8:	8e03000c 	lw	v1,12(s0)
80415cec:	00002821 	move	a1,zero
80415cf0:	00002021 	move	a0,zero
80415cf4:	24020002 	li	v0,2
80415cf8:	ae050034 	sw	a1,52(s0)
80415cfc:	10620015 	beq	v1,v0,80415d54 <_tcp_poll+0x1a0>
80415d00:	ae040030 	sw	a0,48(s0)
80415d04:	24020004 	li	v0,4
80415d08:	14620026 	bne	v1,v0,80415da4 <_tcp_poll+0x1f0>
80415d0c:	00000000 	nop
80415d10:	8f83813c 	lw	v1,-32452(gp)
80415d14:	8e040040 	lw	a0,64(s0)
80415d18:	8f828138 	lw	v0,-32456(gp)
80415d1c:	8e050078 	lw	a1,120(s0)
80415d20:	2463000a 	addiu	v1,v1,10
80415d24:	2c66000a 	sltiu	a2,v1,10
80415d28:	00461021 	addu	v0,v0,a2
80415d2c:	24840001 	addiu	a0,a0,1
80415d30:	ae040040 	sw	a0,64(s0)
80415d34:	ae05007c 	sw	a1,124(s0)
80415d38:	ae030034 	sw	v1,52(s0)
80415d3c:	ae020030 	sw	v0,48(s0)
80415d40:	02202021 	move	a0,s1
80415d44:	0c105285 	jal	80414a14 <_tcp_output>
80415d48:	02002821 	move	a1,s0
80415d4c:	0810576a 	j	80415da8 <_tcp_poll+0x1f4>
80415d50:	8e020028 	lw	v0,40(s0)
80415d54:	8e060040 	lw	a2,64(s0)
80415d58:	8f85813c 	lw	a1,-32452(gp)
80415d5c:	2402000a 	li	v0,10
80415d60:	8f848138 	lw	a0,-32456(gp)
80415d64:	00c21004 	sllv	v0,v0,a2
80415d68:	00401821 	move	v1,v0
80415d6c:	00a32821 	addu	a1,a1,v1
80415d70:	000217c3 	sra	v0,v0,0x1f
80415d74:	8e070078 	lw	a3,120(s0)
80415d78:	00a3402b 	sltu	t0,a1,v1
80415d7c:	00822021 	addu	a0,a0,v0
80415d80:	00882021 	addu	a0,a0,t0
80415d84:	24c60001 	addiu	a2,a2,1
80415d88:	ae050034 	sw	a1,52(s0)
80415d8c:	ae040030 	sw	a0,48(s0)
80415d90:	ae060040 	sw	a2,64(s0)
80415d94:	ae07007c 	sw	a3,124(s0)
80415d98:	02202021 	move	a0,s1
80415d9c:	0c105376 	jal	80414dd8 <_tcp_protosend>
80415da0:	02002821 	move	a1,s0
80415da4:	8e020028 	lw	v0,40(s0)
80415da8:	8e04002c 	lw	a0,44(s0)
80415dac:	00401821 	move	v1,v0
80415db0:	00441025 	or	v0,v0,a0
80415db4:	1040002a 	beqz	v0,80415e60 <_tcp_poll+0x2ac>
80415db8:	00000000 	nop
80415dbc:	8f828138 	lw	v0,-32456(gp)
80415dc0:	0062102a 	slt	v0,v1,v0
80415dc4:	1440000b 	bnez	v0,80415df4 <_tcp_poll+0x240>
80415dc8:	00000000 	nop
80415dcc:	8f828138 	lw	v0,-32456(gp)
80415dd0:	14430023 	bne	v0,v1,80415e60 <_tcp_poll+0x2ac>
80415dd4:	00000000 	nop
80415dd8:	8f82813c 	lw	v0,-32452(gp)
80415ddc:	0082102b 	sltu	v0,a0,v0
80415de0:	14400004 	bnez	v0,80415df4 <_tcp_poll+0x240>
80415de4:	00000000 	nop
80415de8:	8f82813c 	lw	v0,-32452(gp)
80415dec:	08105799 	j	80415e64 <_tcp_poll+0x2b0>
80415df0:	8e020020 	lw	v0,32(s0)
80415df4:	8e03000c 	lw	v1,12(s0)
80415df8:	2402000e 	li	v0,14
80415dfc:	00002821 	move	a1,zero
80415e00:	00621007 	srav	v0,v0,v1
80415e04:	00002021 	move	a0,zero
80415e08:	30420001 	andi	v0,v0,0x1
80415e0c:	ae05002c 	sw	a1,44(s0)
80415e10:	10400013 	beqz	v0,80415e60 <_tcp_poll+0x2ac>
80415e14:	ae040028 	sw	a0,40(s0)
80415e18:	240203fc 	li	v0,1020
80415e1c:	00621007 	srav	v0,v0,v1
80415e20:	30420001 	andi	v0,v0,0x1
80415e24:	1040000b 	beqz	v0,80415e54 <_tcp_poll+0x2a0>
80415e28:	24060014 	li	a2,20
80415e2c:	ae050034 	sw	a1,52(s0)
80415e30:	ae040030 	sw	a0,48(s0)
80415e34:	ae050024 	sw	a1,36(s0)
80415e38:	ae040020 	sw	a0,32(s0)
80415e3c:	ae05003c 	sw	a1,60(s0)
80415e40:	ae040038 	sw	a0,56(s0)
80415e44:	02002821 	move	a1,s0
80415e48:	02202021 	move	a0,s1
80415e4c:	0c105433 	jal	804150cc <_tcp_sendctlmsg>
80415e50:	00003821 	move	a3,zero
80415e54:	02202021 	move	a0,s1
80415e58:	0c105197 	jal	8041465c <_tcp_closetcb>
80415e5c:	02002821 	move	a1,s0
80415e60:	8e020020 	lw	v0,32(s0)
80415e64:	8e040024 	lw	a0,36(s0)
80415e68:	00401821 	move	v1,v0
80415e6c:	00441025 	or	v0,v0,a0
80415e70:	1040001c 	beqz	v0,80415ee4 <_tcp_poll+0x330>
80415e74:	00000000 	nop
80415e78:	8f828138 	lw	v0,-32456(gp)
80415e7c:	0062102a 	slt	v0,v1,v0
80415e80:	1440000b 	bnez	v0,80415eb0 <_tcp_poll+0x2fc>
80415e84:	00000000 	nop
80415e88:	8f828138 	lw	v0,-32456(gp)
80415e8c:	14430015 	bne	v0,v1,80415ee4 <_tcp_poll+0x330>
80415e90:	00000000 	nop
80415e94:	8f82813c 	lw	v0,-32452(gp)
80415e98:	0082102b 	sltu	v0,a0,v0
80415e9c:	14400004 	bnez	v0,80415eb0 <_tcp_poll+0x2fc>
80415ea0:	00000000 	nop
80415ea4:	8f82813c 	lw	v0,-32452(gp)
80415ea8:	08105724 	j	80415c90 <_tcp_poll+0xdc>
80415eac:	8e100000 	lw	s0,0(s0)
80415eb0:	8e03000c 	lw	v1,12(s0)
80415eb4:	00002821 	move	a1,zero
80415eb8:	00002021 	move	a0,zero
80415ebc:	2402000a 	li	v0,10
80415ec0:	ae050024 	sw	a1,36(s0)
80415ec4:	14620007 	bne	v1,v0,80415ee4 <_tcp_poll+0x330>
80415ec8:	ae040020 	sw	a0,32(s0)
80415ecc:	02202021 	move	a0,s1
80415ed0:	0c105197 	jal	8041465c <_tcp_closetcb>
80415ed4:	02002821 	move	a1,s0
80415ed8:	02202021 	move	a0,s1
80415edc:	0c1050f4 	jal	804143d0 <_tcp_freetcb>
80415ee0:	02002821 	move	a1,s0
80415ee4:	08105724 	j	80415c90 <_tcp_poll+0xdc>
80415ee8:	8e100000 	lw	s0,0(s0)
80415eec:	8fb20018 	lw	s2,24(sp)
80415ef0:	8fb10014 	lw	s1,20(sp)
80415ef4:	8fb00010 	lw	s0,16(sp)
80415ef8:	03e00008 	jr	ra
80415efc:	27bd0020 	addiu	sp,sp,32

80415f00 <tmb_init>:
80415f00:	ac800010 	sw	zero,16(a0)
80415f04:	ac800008 	sw	zero,8(a0)
80415f08:	03e00008 	jr	ra
80415f0c:	ac80000c 	sw	zero,12(a0)

80415f10 <tmb_adjust>:
80415f10:	8c82000c 	lw	v0,12(a0)
80415f14:	8c830004 	lw	v1,4(a0)
80415f18:	00451021 	addu	v0,v0,a1
80415f1c:	0043001a 	div	zero,v0,v1
80415f20:	14600002 	bnez	v1,80415f2c <tmb_adjust+0x1c>
80415f24:	00000000 	nop
80415f28:	000001cd 	break	0x7
80415f2c:	8c820010 	lw	v0,16(a0)
80415f30:	00451023 	subu	v0,v0,a1
80415f34:	ac820010 	sw	v0,16(a0)
80415f38:	00001810 	mfhi	v1
80415f3c:	03e00008 	jr	ra
80415f40:	ac83000c 	sw	v1,12(a0)

80415f44 <tmb_alloc>:
80415f44:	27bdffe0 	addiu	sp,sp,-32
80415f48:	afb00010 	sw	s0,16(sp)
80415f4c:	00808021 	move	s0,a0
80415f50:	3c048042 	lui	a0,0x8042
80415f54:	24842bec 	addiu	a0,a0,11244
80415f58:	00003021 	move	a2,zero
80415f5c:	afb10014 	sw	s1,20(sp)
80415f60:	afbf0018 	sw	ra,24(sp)
80415f64:	0c103064 	jal	8040c190 <kmalloc>
80415f68:	00a08821 	move	s1,a1
80415f6c:	ae020000 	sw	v0,0(s0)
80415f70:	02002021 	move	a0,s0
80415f74:	10400004 	beqz	v0,80415f88 <tmb_alloc+0x44>
80415f78:	2403ffff 	li	v1,-1
80415f7c:	0c1057c0 	jal	80415f00 <tmb_init>
80415f80:	ae110004 	sw	s1,4(s0)
80415f84:	00001821 	move	v1,zero
80415f88:	8fbf0018 	lw	ra,24(sp)
80415f8c:	8fb10014 	lw	s1,20(sp)
80415f90:	8fb00010 	lw	s0,16(sp)
80415f94:	00601021 	move	v0,v1
80415f98:	03e00008 	jr	ra
80415f9c:	27bd0020 	addiu	sp,sp,32

80415fa0 <tmb_free>:
80415fa0:	27bdffe8 	addiu	sp,sp,-24
80415fa4:	afb00010 	sw	s0,16(sp)
80415fa8:	afbf0014 	sw	ra,20(sp)
80415fac:	8c820000 	lw	v0,0(a0)
80415fb0:	00808021 	move	s0,a0
80415fb4:	3c048042 	lui	a0,0x8042
80415fb8:	24842bec 	addiu	a0,a0,11244
80415fbc:	10400003 	beqz	v0,80415fcc <tmb_free+0x2c>
80415fc0:	00402821 	move	a1,v0
80415fc4:	0c103031 	jal	8040c0c4 <kfree>
80415fc8:	00000000 	nop
80415fcc:	ae000000 	sw	zero,0(s0)
80415fd0:	8fbf0014 	lw	ra,20(sp)
80415fd4:	8fb00010 	lw	s0,16(sp)
80415fd8:	03e00008 	jr	ra
80415fdc:	27bd0018 	addiu	sp,sp,24

80415fe0 <tmb_copyin>:
80415fe0:	27bdffd0 	addiu	sp,sp,-48
80415fe4:	afb50024 	sw	s5,36(sp)
80415fe8:	afb40020 	sw	s4,32(sp)
80415fec:	afb3001c 	sw	s3,28(sp)
80415ff0:	afbf0028 	sw	ra,40(sp)
80415ff4:	afb20018 	sw	s2,24(sp)
80415ff8:	afb10014 	sw	s1,20(sp)
80415ffc:	afb00010 	sw	s0,16(sp)
80416000:	00c04021 	move	t0,a2
80416004:	00809821 	move	s3,a0
80416008:	00e0a821 	move	s5,a3
8041600c:	00a0a021 	move	s4,a1
80416010:	10c00021 	beqz	a2,80416098 <tmb_copyin+0xb8>
80416014:	00001021 	move	v0,zero
80416018:	8c830004 	lw	v1,4(a0)
8041601c:	8c820010 	lw	v0,16(a0)
80416020:	8c840008 	lw	a0,8(a0)
80416024:	01009021 	move	s2,t0
80416028:	00628823 	subu	s1,v1,v0
8041602c:	0111102a 	slt	v0,t0,s1
80416030:	00648023 	subu	s0,v1,a0
80416034:	8e660000 	lw	a2,0(s3)
80416038:	0222900a 	movz	s2,s1,v0
8041603c:	0250102a 	slt	v0,s2,s0
80416040:	0242800b 	movn	s0,s2,v0
80416044:	00c42021 	addu	a0,a2,a0
80416048:	02508823 	subu	s1,s2,s0
8041604c:	02003021 	move	a2,s0
80416050:	0c10345e 	jal	8040d178 <lib_memcpy>
80416054:	0290a021 	addu	s4,s4,s0
80416058:	02203021 	move	a2,s1
8041605c:	12200005 	beqz	s1,80416074 <tmb_copyin+0x94>
80416060:	02802821 	move	a1,s4
80416064:	0c10345e 	jal	8040d178 <lib_memcpy>
80416068:	8e640000 	lw	a0,0(s3)
8041606c:	0810581f 	j	8041607c <tmb_copyin+0x9c>
80416070:	02203021 	move	a2,s1
80416074:	8e620008 	lw	v0,8(s3)
80416078:	00503021 	addu	a2,v0,s0
8041607c:	12a00006 	beqz	s5,80416098 <tmb_copyin+0xb8>
80416080:	02401021 	move	v0,s2
80416084:	8e620010 	lw	v0,16(s3)
80416088:	ae660008 	sw	a2,8(s3)
8041608c:	00521021 	addu	v0,v0,s2
80416090:	ae620010 	sw	v0,16(s3)
80416094:	02401021 	move	v0,s2
80416098:	8fbf0028 	lw	ra,40(sp)
8041609c:	8fb50024 	lw	s5,36(sp)
804160a0:	8fb40020 	lw	s4,32(sp)
804160a4:	8fb3001c 	lw	s3,28(sp)
804160a8:	8fb20018 	lw	s2,24(sp)
804160ac:	8fb10014 	lw	s1,20(sp)
804160b0:	8fb00010 	lw	s0,16(sp)
804160b4:	03e00008 	jr	ra
804160b8:	27bd0030 	addiu	sp,sp,48

804160bc <tmb_copyout>:
804160bc:	27bdffd0 	addiu	sp,sp,-48
804160c0:	afb50024 	sw	s5,36(sp)
804160c4:	afb40020 	sw	s4,32(sp)
804160c8:	afb3001c 	sw	s3,28(sp)
804160cc:	afb10014 	sw	s1,20(sp)
804160d0:	afb00010 	sw	s0,16(sp)
804160d4:	afbf0028 	sw	ra,40(sp)
804160d8:	afb20018 	sw	s2,24(sp)
804160dc:	8c920010 	lw	s2,16(a0)
804160e0:	00809821 	move	s3,a0
804160e4:	8e630004 	lw	v1,4(s3)
804160e8:	8c84000c 	lw	a0,12(a0)
804160ec:	00d2102a 	slt	v0,a2,s2
804160f0:	00c0a021 	move	s4,a2
804160f4:	00648823 	subu	s1,v1,a0
804160f8:	0242a00a 	movz	s4,s2,v0
804160fc:	8e630000 	lw	v1,0(s3)
80416100:	0291102a 	slt	v0,s4,s1
80416104:	0282880b 	movn	s1,s4,v0
80416108:	00a08021 	move	s0,a1
8041610c:	02203021 	move	a2,s1
80416110:	00642821 	addu	a1,v1,a0
80416114:	02919023 	subu	s2,s4,s1
80416118:	02002021 	move	a0,s0
8041611c:	02118021 	addu	s0,s0,s1
80416120:	0c10345e 	jal	8040d178 <lib_memcpy>
80416124:	00e0a821 	move	s5,a3
80416128:	02403021 	move	a2,s2
8041612c:	12400005 	beqz	s2,80416144 <tmb_copyout+0x88>
80416130:	02002021 	move	a0,s0
80416134:	0c10345e 	jal	8040d178 <lib_memcpy>
80416138:	8e650000 	lw	a1,0(s3)
8041613c:	08105853 	j	8041614c <tmb_copyout+0x90>
80416140:	02403021 	move	a2,s2
80416144:	8e62000c 	lw	v0,12(s3)
80416148:	00513021 	addu	a2,v0,s1
8041614c:	12a00006 	beqz	s5,80416168 <tmb_copyout+0xac>
80416150:	02801021 	move	v0,s4
80416154:	8e620010 	lw	v0,16(s3)
80416158:	ae66000c 	sw	a2,12(s3)
8041615c:	00541023 	subu	v0,v0,s4
80416160:	ae620010 	sw	v0,16(s3)
80416164:	02801021 	move	v0,s4
80416168:	8fbf0028 	lw	ra,40(sp)
8041616c:	8fb50024 	lw	s5,36(sp)
80416170:	8fb40020 	lw	s4,32(sp)
80416174:	8fb3001c 	lw	s3,28(sp)
80416178:	8fb20018 	lw	s2,24(sp)
8041617c:	8fb10014 	lw	s1,20(sp)
80416180:	8fb00010 	lw	s0,16(sp)
80416184:	03e00008 	jr	ra
80416188:	27bd0030 	addiu	sp,sp,48

8041618c <tmb_copyout2>:
8041618c:	27bdffd8 	addiu	sp,sp,-40
80416190:	afb3001c 	sw	s3,28(sp)
80416194:	afb20018 	sw	s2,24(sp)
80416198:	afb10014 	sw	s1,20(sp)
8041619c:	afbf0020 	sw	ra,32(sp)
804161a0:	afb00010 	sw	s0,16(sp)
804161a4:	8c820010 	lw	v0,16(a0)
804161a8:	00e09021 	move	s2,a3
804161ac:	00809821 	move	s3,a0
804161b0:	00461823 	subu	v1,v0,a2
804161b4:	00e3102a 	slt	v0,a3,v1
804161b8:	0062900a 	movz	s2,v1,v0
804161bc:	00a08821 	move	s1,a1
804161c0:	00a02021 	move	a0,a1
804161c4:	18600018 	blez	v1,80416228 <tmb_copyout2+0x9c>
804161c8:	00001021 	move	v0,zero
804161cc:	8e62000c 	lw	v0,12(s3)
804161d0:	8e700004 	lw	s0,4(s3)
804161d4:	8e630000 	lw	v1,0(s3)
804161d8:	00461021 	addu	v0,v0,a2
804161dc:	0050001a 	div	zero,v0,s0
804161e0:	16000002 	bnez	s0,804161ec <tmb_copyout2+0x60>
804161e4:	00000000 	nop
804161e8:	000001cd 	break	0x7
804161ec:	00002810 	mfhi	a1
804161f0:	02058023 	subu	s0,s0,a1
804161f4:	0250102a 	slt	v0,s2,s0
804161f8:	0242800b 	movn	s0,s2,v0
804161fc:	00652821 	addu	a1,v1,a1
80416200:	0c10345e 	jal	8040d178 <lib_memcpy>
80416204:	02003021 	move	a2,s0
80416208:	02308821 	addu	s1,s1,s0
8041620c:	02501823 	subu	v1,s2,s0
80416210:	00603021 	move	a2,v1
80416214:	10600003 	beqz	v1,80416224 <tmb_copyout2+0x98>
80416218:	02202021 	move	a0,s1
8041621c:	0c10345e 	jal	8040d178 <lib_memcpy>
80416220:	8e650000 	lw	a1,0(s3)
80416224:	02401021 	move	v0,s2
80416228:	8fbf0020 	lw	ra,32(sp)
8041622c:	8fb3001c 	lw	s3,28(sp)
80416230:	8fb20018 	lw	s2,24(sp)
80416234:	8fb10014 	lw	s1,20(sp)
80416238:	8fb00010 	lw	s0,16(sp)
8041623c:	03e00008 	jr	ra
80416240:	27bd0028 	addiu	sp,sp,40

80416244 <decompress_lzma_7z>:
80416244:	27bdffd0 	addiu	sp,sp,-48
80416248:	afb20028 	sw	s2,40(sp)
8041624c:	afb00020 	sw	s0,32(sp)
80416250:	00e09021 	move	s2,a3
80416254:	3c108042 	lui	s0,0x8042
80416258:	3c078042 	lui	a3,0x8042
8041625c:	00004021 	move	t0,zero
80416260:	00001021 	move	v0,zero
80416264:	afb10024 	sw	s1,36(sp)
80416268:	af848144 	sw	a0,-32444(gp)
8041626c:	24f12d10 	addiu	s1,a3,11536
80416270:	26041f98 	addiu	a0,s0,8088
80416274:	ace62d10 	sw	a2,11536(a3)
80416278:	afa50014 	sw	a1,20(sp)
8041627c:	af858148 	sw	a1,-32440(gp)
80416280:	afbf002c 	sw	ra,44(sp)
80416284:	afa80010 	sw	t0,16(sp)
80416288:	afa20018 	sw	v0,24(sp)
8041628c:	afb2001c 	sw	s2,28(sp)
80416290:	ae320004 	sw	s2,4(s1)
80416294:	ae200008 	sw	zero,8(s1)
80416298:	0c105922 	jal	80416488 <LzmaDecoderConstructor>
8041629c:	ae20000c 	sw	zero,12(s1)
804162a0:	0c10612d 	jal	804184b4 <LzmaDecoderReadCoderProperties>
804162a4:	26041f98 	addiu	a0,s0,8088
804162a8:	00401821 	move	v1,v0
804162ac:	26041f98 	addiu	a0,s0,8088
804162b0:	27a50010 	addiu	a1,sp,16
804162b4:	1440000b 	bnez	v0,804162e4 <decompress_lzma_7z+0xa0>
804162b8:	27a60018 	addiu	a2,sp,24
804162bc:	0c10611b 	jal	8041846c <LzmaDecoderCode>
804162c0:	00000000 	nop
804162c4:	14400007 	bnez	v0,804162e4 <decompress_lzma_7z+0xa0>
804162c8:	2403fffe 	li	v1,-2
804162cc:	8e220004 	lw	v0,4(s1)
804162d0:	14520004 	bne	v0,s2,804162e4 <decompress_lzma_7z+0xa0>
804162d4:	2403fffd 	li	v1,-3
804162d8:	8e220008 	lw	v0,8(s1)
804162dc:	2403fffc 	li	v1,-4
804162e0:	0002180a 	movz	v1,zero,v0
804162e4:	8fbf002c 	lw	ra,44(sp)
804162e8:	8fb20028 	lw	s2,40(sp)
804162ec:	8fb10024 	lw	s1,36(sp)
804162f0:	8fb00020 	lw	s0,32(sp)
804162f4:	00601021 	move	v0,v1
804162f8:	03e00008 	jr	ra
804162fc:	27bd0030 	addiu	sp,sp,48

80416300 <LzmaDecoderSetDictionarySize>:
80416300:	3c021000 	lui	v0,0x1000
80416304:	0045102b 	sltu	v0,v0,a1
80416308:	14400005 	bnez	v0,80416320 <LzmaDecoderSetDictionarySize+0x20>
8041630c:	2403ffff 	li	v1,-1
80416310:	8c820978 	lw	v0,2424(a0)
80416314:	10450002 	beq	v0,a1,80416320 <LzmaDecoderSetDictionarySize+0x20>
80416318:	00001821 	move	v1,zero
8041631c:	ac850978 	sw	a1,2424(a0)
80416320:	03e00008 	jr	ra
80416324:	00601021 	move	v0,v1

80416328 <LzmaDecoderSetLiteralProperties>:
80416328:	27bdffe8 	addiu	sp,sp,-24
8041632c:	2ca20009 	sltiu	v0,a1,9
80416330:	afb00010 	sw	s0,16(sp)
80416334:	afbf0014 	sw	ra,20(sp)
80416338:	00a04021 	move	t0,a1
8041633c:	00c04821 	move	t1,a2
80416340:	2cca0009 	sltiu	t2,a2,9
80416344:	00808021 	move	s0,a0
80416348:	10400019 	beqz	v0,804163b0 <LzmaDecoderSetLiteralProperties+0x88>
8041634c:	2407ffff 	li	a3,-1
80416350:	00c51021 	addu	v0,a2,a1
80416354:	24030001 	li	v1,1
80416358:	00431004 	sllv	v0,v1,v0
8041635c:	00a31804 	sllv	v1,v1,a1
80416360:	00022840 	sll	a1,v0,0x1
80416364:	00a22821 	addu	a1,a1,v0
80416368:	24820968 	addiu	v0,a0,2408
8041636c:	3c048042 	lui	a0,0x8042
80416370:	2463ffff 	addiu	v1,v1,-1
80416374:	24842bec 	addiu	a0,a0,11244
80416378:	00052a80 	sll	a1,a1,0xa
8041637c:	1140000c 	beqz	t2,804163b0 <LzmaDecoderSetLiteralProperties+0x88>
80416380:	00003021 	move	a2,zero
80416384:	ac43000c 	sw	v1,12(v0)
80416388:	ac490004 	sw	t1,4(v0)
8041638c:	0c103064 	jal	8040c190 <kmalloc>
80416390:	ac480008 	sw	t0,8(v0)
80416394:	3c048042 	lui	a0,0x8042
80416398:	2484c468 	addiu	a0,a0,-15256
8041639c:	14400003 	bnez	v0,804163ac <LzmaDecoderSetLiteralProperties+0x84>
804163a0:	ae020968 	sw	v0,2408(s0)
804163a4:	0c10331a 	jal	8040cc68 <xprintf>
804163a8:	00000000 	nop
804163ac:	00003821 	move	a3,zero
804163b0:	8fbf0014 	lw	ra,20(sp)
804163b4:	8fb00010 	lw	s0,16(sp)
804163b8:	00e01021 	move	v0,a3
804163bc:	03e00008 	jr	ra
804163c0:	27bd0018 	addiu	sp,sp,24

804163c4 <LzmaDecoderSetPosBitsProperties>:
804163c4:	24020001 	li	v0,1
804163c8:	00a21004 	sllv	v0,v0,a1
804163cc:	2ca50005 	sltiu	a1,a1,5
804163d0:	2446ffff 	addiu	a2,v0,-1
804163d4:	10a00005 	beqz	a1,804163ec <LzmaDecoderSetPosBitsProperties+0x28>
804163d8:	2403ffff 	li	v1,-1
804163dc:	ac86097c 	sw	a2,2428(a0)
804163e0:	ac820850 	sw	v0,2128(a0)
804163e4:	ac820964 	sw	v0,2404(a0)
804163e8:	00001821 	move	v1,zero
804163ec:	03e00008 	jr	ra
804163f0:	00601021 	move	v0,v1

804163f4 <LzmaDecoderCreate>:
804163f4:	27bdffe0 	addiu	sp,sp,-32
804163f8:	afb10014 	sw	s1,20(sp)
804163fc:	afb00010 	sw	s0,16(sp)
80416400:	afbf0018 	sw	ra,24(sp)
80416404:	00808021 	move	s0,a0
80416408:	00008821 	move	s1,zero
8041640c:	3c028042 	lui	v0,0x8042
80416410:	24429e04 	addiu	v0,v0,-25084
80416414:	02221021 	addu	v0,s1,v0
80416418:	90420004 	lbu	v0,4(v0)
8041641c:	24050004 	li	a1,4
80416420:	3c048042 	lui	a0,0x8042
80416424:	ae0206e8 	sw	v0,1768(s0)
80416428:	00452804 	sllv	a1,a1,v0
8041642c:	24842bec 	addiu	a0,a0,11244
80416430:	0c103064 	jal	8040c190 <kmalloc>
80416434:	00003021 	move	a2,zero
80416438:	26310001 	addiu	s1,s1,1
8041643c:	ae0206ec 	sw	v0,1772(s0)
80416440:	2a23000a 	slti	v1,s1,10
80416444:	14400006 	bnez	v0,80416460 <LzmaDecoderCreate+0x6c>
80416448:	26100008 	addiu	s0,s0,8
8041644c:	3c048042 	lui	a0,0x8042
80416450:	0c10331a 	jal	8040cc68 <xprintf>
80416454:	2484c49c 	addiu	a0,a0,-15204
80416458:	0810591d 	j	80416474 <LzmaDecoderCreate+0x80>
8041645c:	2402fffe 	li	v0,-2
80416460:	10400004 	beqz	v0,80416474 <LzmaDecoderCreate+0x80>
80416464:	2402fffe 	li	v0,-2
80416468:	1460ffe9 	bnez	v1,80416410 <LzmaDecoderCreate+0x1c>
8041646c:	3c028042 	lui	v0,0x8042
80416470:	00001021 	move	v0,zero
80416474:	8fbf0018 	lw	ra,24(sp)
80416478:	8fb10014 	lw	s1,20(sp)
8041647c:	8fb00010 	lw	s0,16(sp)
80416480:	03e00008 	jr	ra
80416484:	27bd0020 	addiu	sp,sp,32

80416488 <LzmaDecoderConstructor>:
80416488:	2402ffff 	li	v0,-1
8041648c:	081058fd 	j	804163f4 <LzmaDecoderCreate>
80416490:	ac820978 	sw	v0,2424(a0)

80416494 <LzmaDecoderInit>:
80416494:	27bdffd8 	addiu	sp,sp,-40
80416498:	2402ffff 	li	v0,-1
8041649c:	afb20018 	sw	s2,24(sp)
804164a0:	afbf0024 	sw	ra,36(sp)
804164a4:	afb40020 	sw	s4,32(sp)
804164a8:	afb3001c 	sw	s3,28(sp)
804164ac:	afb10014 	sw	s1,20(sp)
804164b0:	afb00010 	sw	s0,16(sp)
804164b4:	00809021 	move	s2,a0
804164b8:	ac820000 	sw	v0,0(a0)
804164bc:	ac800004 	sw	zero,4(a0)
804164c0:	27888144 	addiu	t0,gp,-32444
804164c4:	24060004 	li	a2,4
804164c8:	8e420004 	lw	v0,4(s2)
804164cc:	8f838148 	lw	v1,-32440(gp)
804164d0:	24c6ffff 	addiu	a2,a2,-1
804164d4:	00023a00 	sll	a3,v0,0x8
804164d8:	2464ffff 	addiu	a0,v1,-1
804164dc:	10600006 	beqz	v1,804164f8 <LzmaDecoderInit+0x64>
804164e0:	00002821 	move	a1,zero
804164e4:	8f828144 	lw	v0,-32444(gp)
804164e8:	ad040004 	sw	a0,4(t0)
804164ec:	90450000 	lbu	a1,0(v0)
804164f0:	24420001 	addiu	v0,v0,1
804164f4:	af828144 	sw	v0,-32444(gp)
804164f8:	00e51025 	or	v0,a3,a1
804164fc:	04c1fff2 	bgez	a2,804164c8 <LzmaDecoderInit+0x34>
80416500:	ae420004 	sw	v0,4(s2)
80416504:	3c028042 	lui	v0,0x8042
80416508:	8c422d10 	lw	v0,11536(v0)
8041650c:	af808150 	sw	zero,-32432(gp)
80416510:	00008821 	move	s1,zero
80416514:	af82814c 	sw	v0,-32436(gp)
80416518:	24060400 	li	a2,1024
8041651c:	02402021 	move	a0,s2
80416520:	00111180 	sll	v0,s1,0x6
80416524:	00521821 	addu	v1,v0,s2
80416528:	00002821 	move	a1,zero
8041652c:	ac660008 	sw	a2,8(v1)
80416530:	ac6603c8 	sw	a2,968(v1)
80416534:	8e42097c 	lw	v0,2428(s2)
80416538:	24a50001 	addiu	a1,a1,1
8041653c:	0045102b 	sltu	v0,v0,a1
80416540:	1040fffa 	beqz	v0,8041652c <LzmaDecoderInit+0x98>
80416544:	24630004 	addiu	v1,v1,4
80416548:	26310001 	addiu	s1,s1,1
8041654c:	2a22000c 	slti	v0,s1,12
80416550:	ac860308 	sw	a2,776(a0)
80416554:	ac860338 	sw	a2,824(a0)
80416558:	ac860368 	sw	a2,872(a0)
8041655c:	ac860398 	sw	a2,920(a0)
80416560:	1440ffef 	bnez	v0,80416520 <LzmaDecoderInit+0x8c>
80416564:	24840004 	addiu	a0,a0,4
80416568:	26420968 	addiu	v0,s2,2408
8041656c:	8c430008 	lw	v1,8(v0)
80416570:	8c420004 	lw	v0,4(v0)
80416574:	00431021 	addu	v0,v0,v1
80416578:	24030001 	li	v1,1
8041657c:	00431804 	sllv	v1,v1,v0
80416580:	10600013 	beqz	v1,804165d0 <LzmaDecoderInit+0x13c>
80416584:	00004021 	move	t0,zero
80416588:	8e460968 	lw	a2,2408(s2)
8041658c:	24090400 	li	t1,1024
80416590:	00003821 	move	a3,zero
80416594:	00c02821 	move	a1,a2
80416598:	24a20004 	addiu	v0,a1,4
8041659c:	240400fe 	li	a0,254
804165a0:	2484ffff 	addiu	a0,a0,-1
804165a4:	ac490000 	sw	t1,0(v0)
804165a8:	0481fffd 	bgez	a0,804165a0 <LzmaDecoderInit+0x10c>
804165ac:	24420004 	addiu	v0,v0,4
804165b0:	24e70001 	addiu	a3,a3,1
804165b4:	28e20003 	slti	v0,a3,3
804165b8:	1440fff7 	bnez	v0,80416598 <LzmaDecoderInit+0x104>
804165bc:	24a50400 	addiu	a1,a1,1024
804165c0:	25080001 	addiu	t0,t0,1
804165c4:	0103102b 	sltu	v0,t0,v1
804165c8:	1440fff1 	bnez	v0,80416590 <LzmaDecoderInit+0xfc>
804165cc:	24c60c00 	addiu	a2,a2,3072
804165d0:	02408021 	move	s0,s2
804165d4:	24110003 	li	s1,3
804165d8:	24020006 	li	v0,6
804165dc:	3c048042 	lui	a0,0x8042
804165e0:	ae0206c8 	sw	v0,1736(s0)
804165e4:	24842bec 	addiu	a0,a0,11244
804165e8:	24050100 	li	a1,256
804165ec:	0c103064 	jal	8040c190 <kmalloc>
804165f0:	00003021 	move	a2,zero
804165f4:	14400006 	bnez	v0,80416610 <LzmaDecoderInit+0x17c>
804165f8:	ae0206cc 	sw	v0,1740(s0)
804165fc:	3c048042 	lui	a0,0x8042
80416600:	0c10331a 	jal	8040cc68 <xprintf>
80416604:	2484c4d4 	addiu	a0,a0,-15148
80416608:	0810598c 	j	80416630 <LzmaDecoderInit+0x19c>
8041660c:	2631ffff 	addiu	s1,s1,-1
80416610:	24420004 	addiu	v0,v0,4
80416614:	24040400 	li	a0,1024
80416618:	2403003e 	li	v1,62
8041661c:	2463ffff 	addiu	v1,v1,-1
80416620:	ac440000 	sw	a0,0(v0)
80416624:	0461fffd 	bgez	v1,8041661c <LzmaDecoderInit+0x188>
80416628:	24420004 	addiu	v0,v0,4
8041662c:	2631ffff 	addiu	s1,s1,-1
80416630:	0621ffe9 	bgez	s1,804165d8 <LzmaDecoderInit+0x144>
80416634:	26100008 	addiu	s0,s0,8
80416638:	24060001 	li	a2,1
8041663c:	02402821 	move	a1,s2
80416640:	24110009 	li	s1,9
80416644:	8ca206e8 	lw	v0,1768(a1)
80416648:	24040001 	li	a0,1
8041664c:	00461804 	sllv	v1,a2,v0
80416650:	0083102b 	sltu	v0,a0,v1
80416654:	10400009 	beqz	v0,8041667c <LzmaDecoderInit+0x1e8>
80416658:	00000000 	nop
8041665c:	8ca206ec 	lw	v0,1772(a1)
80416660:	2464ffff 	addiu	a0,v1,-1
80416664:	24030400 	li	v1,1024
80416668:	24420004 	addiu	v0,v0,4
8041666c:	2484ffff 	addiu	a0,a0,-1
80416670:	ac430000 	sw	v1,0(v0)
80416674:	1480fffd 	bnez	a0,8041666c <LzmaDecoderInit+0x1d8>
80416678:	24420004 	addiu	v0,v0,4
8041667c:	2631ffff 	addiu	s1,s1,-1
80416680:	0621fff0 	bgez	s1,80416644 <LzmaDecoderInit+0x1b0>
80416684:	24a50008 	addiu	a1,a1,8
80416688:	24020400 	li	v0,1024
8041668c:	ae420740 	sw	v0,1856(s2)
80416690:	26510740 	addiu	s1,s2,1856
80416694:	8e220110 	lw	v0,272(s1)
80416698:	10400032 	beqz	v0,80416764 <LzmaDecoderInit+0x2d0>
8041669c:	00009821 	move	s3,zero
804166a0:	02208021 	move	s0,s1
804166a4:	24020003 	li	v0,3
804166a8:	3c148042 	lui	s4,0x8042
804166ac:	ae020008 	sw	v0,8(s0)
804166b0:	26842bec 	addiu	a0,s4,11244
804166b4:	24050020 	li	a1,32
804166b8:	0c103064 	jal	8040c190 <kmalloc>
804166bc:	00003021 	move	a2,zero
804166c0:	14400006 	bnez	v0,804166dc <LzmaDecoderInit+0x248>
804166c4:	ae02000c 	sw	v0,12(s0)
804166c8:	3c048042 	lui	a0,0x8042
804166cc:	0c10331a 	jal	8040cc68 <xprintf>
804166d0:	2484c4d4 	addiu	a0,a0,-15148
804166d4:	081059bf 	j	804166fc <LzmaDecoderInit+0x268>
804166d8:	24020003 	li	v0,3
804166dc:	24420004 	addiu	v0,v0,4
804166e0:	24040400 	li	a0,1024
804166e4:	24030006 	li	v1,6
804166e8:	2463ffff 	addiu	v1,v1,-1
804166ec:	ac440000 	sw	a0,0(v0)
804166f0:	0461fffd 	bgez	v1,804166e8 <LzmaDecoderInit+0x254>
804166f4:	24420004 	addiu	v0,v0,4
804166f8:	24020003 	li	v0,3
804166fc:	ae020088 	sw	v0,136(s0)
80416700:	26842bec 	addiu	a0,s4,11244
80416704:	24050020 	li	a1,32
80416708:	0c103064 	jal	8040c190 <kmalloc>
8041670c:	00003021 	move	a2,zero
80416710:	ae02008c 	sw	v0,140(s0)
80416714:	14400006 	bnez	v0,80416730 <LzmaDecoderInit+0x29c>
80416718:	26030088 	addiu	v1,s0,136
8041671c:	3c048042 	lui	a0,0x8042
80416720:	0c10331a 	jal	8040cc68 <xprintf>
80416724:	2484c4d4 	addiu	a0,a0,-15148
80416728:	081059d5 	j	80416754 <LzmaDecoderInit+0x2c0>
8041672c:	8e220110 	lw	v0,272(s1)
80416730:	8c620004 	lw	v0,4(v1)
80416734:	24040400 	li	a0,1024
80416738:	24030006 	li	v1,6
8041673c:	24420004 	addiu	v0,v0,4
80416740:	2463ffff 	addiu	v1,v1,-1
80416744:	ac440000 	sw	a0,0(v0)
80416748:	0461fffd 	bgez	v1,80416740 <LzmaDecoderInit+0x2ac>
8041674c:	24420004 	addiu	v0,v0,4
80416750:	8e220110 	lw	v0,272(s1)
80416754:	26730001 	addiu	s3,s3,1
80416758:	0262102b 	sltu	v0,s3,v0
8041675c:	1440ffd1 	bnez	v0,804166a4 <LzmaDecoderInit+0x210>
80416760:	26100008 	addiu	s0,s0,8
80416764:	24020008 	li	v0,8
80416768:	3c048042 	lui	a0,0x8042
8041676c:	ae220108 	sw	v0,264(s1)
80416770:	24842bec 	addiu	a0,a0,11244
80416774:	24050400 	li	a1,1024
80416778:	0c103064 	jal	8040c190 <kmalloc>
8041677c:	00003021 	move	a2,zero
80416780:	00401821 	move	v1,v0
80416784:	26220108 	addiu	v0,s1,264
80416788:	14600006 	bnez	v1,804167a4 <LzmaDecoderInit+0x310>
8041678c:	ac430004 	sw	v1,4(v0)
80416790:	3c048042 	lui	a0,0x8042
80416794:	0c10331a 	jal	8040cc68 <xprintf>
80416798:	2484c4d4 	addiu	a0,a0,-15148
8041679c:	081059f1 	j	804167c4 <LzmaDecoderInit+0x330>
804167a0:	24020400 	li	v0,1024
804167a4:	24620004 	addiu	v0,v1,4
804167a8:	24040400 	li	a0,1024
804167ac:	240300fe 	li	v1,254
804167b0:	2463ffff 	addiu	v1,v1,-1
804167b4:	ac440000 	sw	a0,0(v0)
804167b8:	0461fffd 	bgez	v1,804167b0 <LzmaDecoderInit+0x31c>
804167bc:	24420004 	addiu	v0,v0,4
804167c0:	24020400 	li	v0,1024
804167c4:	ae220004 	sw	v0,4(s1)
804167c8:	ae420854 	sw	v0,2132(s2)
804167cc:	26510854 	addiu	s1,s2,2132
804167d0:	8e220110 	lw	v0,272(s1)
804167d4:	10400032 	beqz	v0,804168a0 <LzmaDecoderInit+0x40c>
804167d8:	00009821 	move	s3,zero
804167dc:	02208021 	move	s0,s1
804167e0:	24020003 	li	v0,3
804167e4:	3c148042 	lui	s4,0x8042
804167e8:	ae020008 	sw	v0,8(s0)
804167ec:	26842bec 	addiu	a0,s4,11244
804167f0:	24050020 	li	a1,32
804167f4:	0c103064 	jal	8040c190 <kmalloc>
804167f8:	00003021 	move	a2,zero
804167fc:	14400006 	bnez	v0,80416818 <LzmaDecoderInit+0x384>
80416800:	ae02000c 	sw	v0,12(s0)
80416804:	3c048042 	lui	a0,0x8042
80416808:	0c10331a 	jal	8040cc68 <xprintf>
8041680c:	2484c4d4 	addiu	a0,a0,-15148
80416810:	08105a0e 	j	80416838 <LzmaDecoderInit+0x3a4>
80416814:	24020003 	li	v0,3
80416818:	24420004 	addiu	v0,v0,4
8041681c:	24040400 	li	a0,1024
80416820:	24030006 	li	v1,6
80416824:	2463ffff 	addiu	v1,v1,-1
80416828:	ac440000 	sw	a0,0(v0)
8041682c:	0461fffd 	bgez	v1,80416824 <LzmaDecoderInit+0x390>
80416830:	24420004 	addiu	v0,v0,4
80416834:	24020003 	li	v0,3
80416838:	ae020088 	sw	v0,136(s0)
8041683c:	26842bec 	addiu	a0,s4,11244
80416840:	24050020 	li	a1,32
80416844:	0c103064 	jal	8040c190 <kmalloc>
80416848:	00003021 	move	a2,zero
8041684c:	ae02008c 	sw	v0,140(s0)
80416850:	14400006 	bnez	v0,8041686c <LzmaDecoderInit+0x3d8>
80416854:	26030088 	addiu	v1,s0,136
80416858:	3c048042 	lui	a0,0x8042
8041685c:	0c10331a 	jal	8040cc68 <xprintf>
80416860:	2484c4d4 	addiu	a0,a0,-15148
80416864:	08105a24 	j	80416890 <LzmaDecoderInit+0x3fc>
80416868:	8e220110 	lw	v0,272(s1)
8041686c:	8c620004 	lw	v0,4(v1)
80416870:	24040400 	li	a0,1024
80416874:	24030006 	li	v1,6
80416878:	24420004 	addiu	v0,v0,4
8041687c:	2463ffff 	addiu	v1,v1,-1
80416880:	ac440000 	sw	a0,0(v0)
80416884:	0461fffd 	bgez	v1,8041687c <LzmaDecoderInit+0x3e8>
80416888:	24420004 	addiu	v0,v0,4
8041688c:	8e220110 	lw	v0,272(s1)
80416890:	26730001 	addiu	s3,s3,1
80416894:	0262102b 	sltu	v0,s3,v0
80416898:	1440ffd1 	bnez	v0,804167e0 <LzmaDecoderInit+0x34c>
8041689c:	26100008 	addiu	s0,s0,8
804168a0:	24020008 	li	v0,8
804168a4:	3c108042 	lui	s0,0x8042
804168a8:	ae220108 	sw	v0,264(s1)
804168ac:	26042bec 	addiu	a0,s0,11244
804168b0:	24050400 	li	a1,1024
804168b4:	0c103064 	jal	8040c190 <kmalloc>
804168b8:	00003021 	move	a2,zero
804168bc:	00401821 	move	v1,v0
804168c0:	26220108 	addiu	v0,s1,264
804168c4:	14600006 	bnez	v1,804168e0 <LzmaDecoderInit+0x44c>
804168c8:	ac430004 	sw	v1,4(v0)
804168cc:	3c048042 	lui	a0,0x8042
804168d0:	0c10331a 	jal	8040cc68 <xprintf>
804168d4:	2484c4d4 	addiu	a0,a0,-15148
804168d8:	08105a40 	j	80416900 <LzmaDecoderInit+0x46c>
804168dc:	24020400 	li	v0,1024
804168e0:	24620004 	addiu	v0,v1,4
804168e4:	24040400 	li	a0,1024
804168e8:	240300fe 	li	v1,254
804168ec:	2463ffff 	addiu	v1,v1,-1
804168f0:	ac440000 	sw	a0,0(v0)
804168f4:	0461fffd 	bgez	v1,804168ec <LzmaDecoderInit+0x458>
804168f8:	24420004 	addiu	v0,v0,4
804168fc:	24020400 	li	v0,1024
80416900:	ae220004 	sw	v0,4(s1)
80416904:	24020004 	li	v0,4
80416908:	24050040 	li	a1,64
8041690c:	ae420738 	sw	v0,1848(s2)
80416910:	26042bec 	addiu	a0,s0,11244
80416914:	0c103064 	jal	8040c190 <kmalloc>
80416918:	00003021 	move	a2,zero
8041691c:	26450738 	addiu	a1,s2,1848
80416920:	00401821 	move	v1,v0
80416924:	14400006 	bnez	v0,80416940 <LzmaDecoderInit+0x4ac>
80416928:	aca20004 	sw	v0,4(a1)
8041692c:	3c048042 	lui	a0,0x8042
80416930:	0c10331a 	jal	8040cc68 <xprintf>
80416934:	2484c504 	addiu	a0,a0,-15100
80416938:	08105a61 	j	80416984 <LzmaDecoderInit+0x4f0>
8041693c:	8fbf0024 	lw	ra,36(sp)
80416940:	8e420738 	lw	v0,1848(s2)
80416944:	24040001 	li	a0,1
80416948:	00441004 	sllv	v0,a0,v0
8041694c:	0082102a 	slt	v0,a0,v0
80416950:	1040000c 	beqz	v0,80416984 <LzmaDecoderInit+0x4f0>
80416954:	8fbf0024 	lw	ra,36(sp)
80416958:	24630004 	addiu	v1,v1,4
8041695c:	24070400 	li	a3,1024
80416960:	24060001 	li	a2,1
80416964:	ac670000 	sw	a3,0(v1)
80416968:	8ca20000 	lw	v0,0(a1)
8041696c:	24840001 	addiu	a0,a0,1
80416970:	00461004 	sllv	v0,a2,v0
80416974:	0082102a 	slt	v0,a0,v0
80416978:	1440fffa 	bnez	v0,80416964 <LzmaDecoderInit+0x4d0>
8041697c:	24630004 	addiu	v1,v1,4
80416980:	8fbf0024 	lw	ra,36(sp)
80416984:	8fb40020 	lw	s4,32(sp)
80416988:	8fb3001c 	lw	s3,28(sp)
8041698c:	8fb20018 	lw	s2,24(sp)
80416990:	8fb10014 	lw	s1,20(sp)
80416994:	8fb00010 	lw	s0,16(sp)
80416998:	00001021 	move	v0,zero
8041699c:	03e00008 	jr	ra
804169a0:	27bd0028 	addiu	sp,sp,40

804169a4 <AAlertLed_On>:
804169a4:	3c04fffe 	lui	a0,0xfffe
804169a8:	34830404 	ori	v1,a0,0x404
804169ac:	8c620000 	lw	v0,0(v1)
804169b0:	3484040c 	ori	a0,a0,0x40c
804169b4:	34420020 	ori	v0,v0,0x20
804169b8:	ac620000 	sw	v0,0(v1)
804169bc:	8c820000 	lw	v0,0(a0)
804169c0:	2403ffdf 	li	v1,-33
804169c4:	00431024 	and	v0,v0,v1
804169c8:	ac820000 	sw	v0,0(a0)
804169cc:	03e00008 	jr	ra
804169d0:	00000000 	nop

804169d4 <LzmaDecoderCodeReal>:
804169d4:	27bdffa0 	addiu	sp,sp,-96
804169d8:	afbe0058 	sw	s8,88(sp)
804169dc:	afb5004c 	sw	s5,76(sp)
804169e0:	afb40048 	sw	s4,72(sp)
804169e4:	afb20040 	sw	s2,64(sp)
804169e8:	afb00038 	sw	s0,56(sp)
804169ec:	afbf005c 	sw	ra,92(sp)
804169f0:	afb70054 	sw	s7,84(sp)
804169f4:	afb60050 	sw	s6,80(sp)
804169f8:	afb30044 	sw	s3,68(sp)
804169fc:	afb1003c 	sw	s1,60(sp)
80416a00:	8cc30004 	lw	v1,4(a2)
80416a04:	8cc20000 	lw	v0,0(a2)
80416a08:	00809021 	move	s2,a0
80416a0c:	afa30034 	sw	v1,52(sp)
80416a10:	afa20030 	sw	v0,48(sp)
80416a14:	0c105925 	jal	80416494 <LzmaDecoderInit>
80416a18:	a3a00028 	sb	zero,40(sp)
80416a1c:	8f828144 	lw	v0,-32444(gp)
80416a20:	afa0002c 	sw	zero,44(sp)
80416a24:	00008021 	move	s0,zero
80416a28:	afa20020 	sw	v0,32(sp)
80416a2c:	8f828148 	lw	v0,-32440(gp)
80416a30:	0000f021 	move	s8,zero
80416a34:	0000a821 	move	s5,zero
80416a38:	afa20024 	sw	v0,36(sp)
80416a3c:	0000a021 	move	s4,zero
80416a40:	27a30010 	addiu	v1,sp,16
80416a44:	24020003 	li	v0,3
80416a48:	2442ffff 	addiu	v0,v0,-1
80416a4c:	ac600000 	sw	zero,0(v1)
80416a50:	0441fffd 	bgez	v0,80416a48 <LzmaDecoderCodeReal+0x74>
80416a54:	24630004 	addiu	v1,v1,4
80416a58:	8fa20024 	lw	v0,36(sp)
80416a5c:	1040062e 	beqz	v0,80418318 <LzmaDecoderCodeReal+0x1944>
80416a60:	24020004 	li	v0,4
80416a64:	17c20004 	bne	s8,v0,80416a78 <LzmaDecoderCodeReal+0xa4>
80416a68:	3c030004 	lui	v1,0x4
80416a6c:	0c105a69 	jal	804169a4 <AAlertLed_On>
80416a70:	00000000 	nop
80416a74:	3c030004 	lui	v1,0x4
80416a78:	00001021 	move	v0,zero
80416a7c:	02a33821 	addu	a3,s5,v1
80416a80:	8fb80030 	lw	t8,48(sp)
80416a84:	02823021 	addu	a2,s4,v0
80416a88:	00e3202b 	sltu	a0,a3,v1
80416a8c:	00c43021 	addu	a2,a2,a0
80416a90:	0306102b 	sltu	v0,t8,a2
80416a94:	8fb90034 	lw	t9,52(sp)
80416a98:	14400007 	bnez	v0,80416ab8 <LzmaDecoderCodeReal+0xe4>
80416a9c:	27de0001 	addiu	s8,s8,1
80416aa0:	14d80003 	bne	a2,t8,80416ab0 <LzmaDecoderCodeReal+0xdc>
80416aa4:	0327102b 	sltu	v0,t9,a3
80416aa8:	14400004 	bnez	v0,80416abc <LzmaDecoderCodeReal+0xe8>
80416aac:	0298102b 	sltu	v0,s4,t8
80416ab0:	00e0c821 	move	t9,a3
80416ab4:	00c0c021 	move	t8,a2
80416ab8:	0298102b 	sltu	v0,s4,t8
80416abc:	14400005 	bnez	v0,80416ad4 <LzmaDecoderCodeReal+0x100>
80416ac0:	00000000 	nop
80416ac4:	1714ffe4 	bne	t8,s4,80416a58 <LzmaDecoderCodeReal+0x84>
80416ac8:	02b9102b 	sltu	v0,s5,t9
80416acc:	1040ffe3 	beqz	v0,80416a5c <LzmaDecoderCodeReal+0x88>
80416ad0:	8fa20024 	lw	v0,36(sp)
80416ad4:	8e43097c 	lw	v1,2428(s2)
80416ad8:	93a20028 	lbu	v0,40(sp)
80416adc:	8e470000 	lw	a3,0(s2)
80416ae0:	00755024 	and	t2,v1,s5
80416ae4:	00021180 	sll	v0,v0,0x6
80416ae8:	02421021 	addu	v0,s2,v0
80416aec:	000a4080 	sll	t0,t2,0x2
80416af0:	00483021 	addu	a2,v0,t0
80416af4:	8cc30008 	lw	v1,8(a2)
80416af8:	000712c2 	srl	v0,a3,0xb
80416afc:	8e450004 	lw	a1,4(s2)
80416b00:	70432002 	mul	a0,v0,v1
80416b04:	00a4102b 	sltu	v0,a1,a0
80416b08:	1040001f 	beqz	v0,80416b88 <LzmaDecoderCodeReal+0x1b4>
80416b0c:	00a41823 	subu	v1,a1,a0
80416b10:	ae440000 	sw	a0,0(s2)
80416b14:	8cc20008 	lw	v0,8(a2)
80416b18:	24030800 	li	v1,2048
80416b1c:	00621823 	subu	v1,v1,v0
80416b20:	00031942 	srl	v1,v1,0x5
80416b24:	00431021 	addu	v0,v0,v1
80416b28:	acc20008 	sw	v0,8(a2)
80416b2c:	8e460000 	lw	a2,0(s2)
80416b30:	3c0200ff 	lui	v0,0xff
80416b34:	3442ffff 	ori	v0,v0,0xffff
80416b38:	0046102b 	sltu	v0,v0,a2
80416b3c:	1440002f 	bnez	v0,80416bfc <LzmaDecoderCodeReal+0x228>
80416b40:	00001821 	move	v1,zero
80416b44:	8e420004 	lw	v0,4(s2)
80416b48:	8fa30024 	lw	v1,36(sp)
80416b4c:	00002821 	move	a1,zero
80416b50:	10600007 	beqz	v1,80416b70 <LzmaDecoderCodeReal+0x19c>
80416b54:	00022200 	sll	a0,v0,0x8
80416b58:	8fa20020 	lw	v0,32(sp)
80416b5c:	2463ffff 	addiu	v1,v1,-1
80416b60:	afa30024 	sw	v1,36(sp)
80416b64:	90450000 	lbu	a1,0(v0)
80416b68:	24420001 	addiu	v0,v0,1
80416b6c:	afa20020 	sw	v0,32(sp)
80416b70:	00851025 	or	v0,a0,a1
80416b74:	00061a00 	sll	v1,a2,0x8
80416b78:	ae420004 	sw	v0,4(s2)
80416b7c:	ae430000 	sw	v1,0(s2)
80416b80:	08105aff 	j	80416bfc <LzmaDecoderCodeReal+0x228>
80416b84:	00001821 	move	v1,zero
80416b88:	00e41023 	subu	v0,a3,a0
80416b8c:	ae420000 	sw	v0,0(s2)
80416b90:	ae430004 	sw	v1,4(s2)
80416b94:	8cc20008 	lw	v0,8(a2)
80416b98:	00021942 	srl	v1,v0,0x5
80416b9c:	00431023 	subu	v0,v0,v1
80416ba0:	acc20008 	sw	v0,8(a2)
80416ba4:	8e460000 	lw	a2,0(s2)
80416ba8:	3c0200ff 	lui	v0,0xff
80416bac:	3442ffff 	ori	v0,v0,0xffff
80416bb0:	0046102b 	sltu	v0,v0,a2
80416bb4:	14400011 	bnez	v0,80416bfc <LzmaDecoderCodeReal+0x228>
80416bb8:	24030001 	li	v1,1
80416bbc:	8e420004 	lw	v0,4(s2)
80416bc0:	8fa30024 	lw	v1,36(sp)
80416bc4:	00002821 	move	a1,zero
80416bc8:	10600007 	beqz	v1,80416be8 <LzmaDecoderCodeReal+0x214>
80416bcc:	00022200 	sll	a0,v0,0x8
80416bd0:	8fa20020 	lw	v0,32(sp)
80416bd4:	2463ffff 	addiu	v1,v1,-1
80416bd8:	afa30024 	sw	v1,36(sp)
80416bdc:	90450000 	lbu	a1,0(v0)
80416be0:	24420001 	addiu	v0,v0,1
80416be4:	afa20020 	sw	v0,32(sp)
80416be8:	00851025 	or	v0,a0,a1
80416bec:	00061a00 	sll	v1,a2,0x8
80416bf0:	ae420004 	sw	v0,4(s2)
80416bf4:	ae430000 	sw	v1,0(s2)
80416bf8:	24030001 	li	v1,1
80416bfc:	93a20028 	lbu	v0,40(sp)
80416c00:	8e460000 	lw	a2,0(s2)
80416c04:	146000c7 	bnez	v1,80416f24 <LzmaDecoderCodeReal+0x550>
80416c08:	8e470004 	lw	a3,4(s2)
80416c0c:	3c038042 	lui	v1,0x8042
80416c10:	24639e3c 	addiu	v1,v1,-25028
80416c14:	304200ff 	andi	v0,v0,0xff
80416c18:	00431021 	addu	v0,v0,v1
80416c1c:	90420000 	lbu	v0,0(v0)
80416c20:	27ad0020 	addiu	t5,sp,32
80416c24:	26430968 	addiu	v1,s2,2408
80416c28:	a3a20028 	sb	v0,40(sp)
80416c2c:	8fa2002c 	lw	v0,44(sp)
80416c30:	10400078 	beqz	v0,80416e14 <LzmaDecoderCodeReal+0x440>
80416c34:	8e480968 	lw	t0,2408(s2)
80416c38:	8c640004 	lw	a0,4(v1)
80416c3c:	8c63000c 	lw	v1,12(v1)
80416c40:	24020008 	li	v0,8
80416c44:	00441023 	subu	v0,v0,a0
80416c48:	00751824 	and	v1,v1,s5
80416c4c:	00501007 	srav	v0,s0,v0
80416c50:	00831804 	sllv	v1,v1,a0
80416c54:	00621821 	addu	v1,v1,v0
80416c58:	8fa40010 	lw	a0,16(sp)
80416c5c:	8f828150 	lw	v0,-32432(gp)
80416c60:	00e04821 	move	t1,a3
80416c64:	240b0001 	li	t3,1
80416c68:	00441023 	subu	v0,v0,a0
80416c6c:	8f84814c 	lw	a0,-32436(gp)
80416c70:	24110800 	li	s1,2048
80416c74:	00822021 	addu	a0,a0,v0
80416c78:	00031040 	sll	v0,v1,0x1
80416c7c:	00431021 	addu	v0,v0,v1
80416c80:	00021280 	sll	v0,v0,0xa
80416c84:	9085ffff 	lbu	a1,-1(a0)
80416c88:	01028021 	addu	s0,t0,v0
80416c8c:	3c0200ff 	lui	v0,0xff
80416c90:	3453ffff 	ori	s3,v0,0xffff
80416c94:	000571c2 	srl	t6,a1,0x7
80416c98:	000e1200 	sll	v0,t6,0x8
80416c9c:	004b1021 	addu	v0,v0,t3
80416ca0:	00021080 	sll	v0,v0,0x2
80416ca4:	00505021 	addu	t2,v0,s0
80416ca8:	8d430400 	lw	v1,1024(t2)
80416cac:	000612c2 	srl	v0,a2,0xb
80416cb0:	00052840 	sll	a1,a1,0x1
80416cb4:	70433802 	mul	a3,v0,v1
80416cb8:	02231023 	subu	v0,s1,v1
80416cbc:	00021142 	srl	v0,v0,0x5
80416cc0:	00626021 	addu	t4,v1,v0
80416cc4:	00032142 	srl	a0,v1,0x5
80416cc8:	000b4040 	sll	t0,t3,0x1
80416ccc:	00641823 	subu	v1,v1,a0
80416cd0:	00007821 	move	t7,zero
80416cd4:	01005821 	move	t3,t0
80416cd8:	0127102b 	sltu	v0,t1,a3
80416cdc:	10400004 	beqz	v0,80416cf0 <LzmaDecoderCodeReal+0x31c>
80416ce0:	30a500ff 	andi	a1,a1,0xff
80416ce4:	00e03021 	move	a2,a3
80416ce8:	08105b41 	j	80416d04 <LzmaDecoderCodeReal+0x330>
80416cec:	ad4c0400 	sw	t4,1024(t2)
80416cf0:	ad430400 	sw	v1,1024(t2)
80416cf4:	01274823 	subu	t1,t1,a3
80416cf8:	00c73023 	subu	a2,a2,a3
80416cfc:	250b0001 	addiu	t3,t0,1
80416d00:	240f0001 	li	t7,1
80416d04:	0266102b 	sltu	v0,s3,a2
80416d08:	00094200 	sll	t0,t1,0x8
80416d0c:	2d640100 	sltiu	a0,t3,256
80416d10:	1440000b 	bnez	v0,80416d40 <LzmaDecoderCodeReal+0x36c>
80416d14:	00003821 	move	a3,zero
80416d18:	8da20004 	lw	v0,4(t5)
80416d1c:	00063200 	sll	a2,a2,0x8
80416d20:	10400006 	beqz	v0,80416d3c <LzmaDecoderCodeReal+0x368>
80416d24:	2443ffff 	addiu	v1,v0,-1
80416d28:	8da20000 	lw	v0,0(t5)
80416d2c:	ada30004 	sw	v1,4(t5)
80416d30:	90470000 	lbu	a3,0(v0)
80416d34:	24420001 	addiu	v0,v0,1
80416d38:	ada20000 	sw	v0,0(t5)
80416d3c:	01074825 	or	t1,t0,a3
80416d40:	11cf002d 	beq	t6,t7,80416df8 <LzmaDecoderCodeReal+0x424>
80416d44:	00000000 	nop
80416d48:	1080002d 	beqz	a0,80416e00 <LzmaDecoderCodeReal+0x42c>
80416d4c:	3c0200ff 	lui	v0,0xff
80416d50:	344effff 	ori	t6,v0,0xffff
80416d54:	240c0800 	li	t4,2048
80416d58:	000b1080 	sll	v0,t3,0x2
80416d5c:	00503821 	addu	a3,v0,s0
80416d60:	8ce30000 	lw	v1,0(a3)
80416d64:	000612c2 	srl	v0,a2,0xb
80416d68:	000b4040 	sll	t0,t3,0x1
80416d6c:	70432802 	mul	a1,v0,v1
80416d70:	01831023 	subu	v0,t4,v1
80416d74:	00021142 	srl	v0,v0,0x5
80416d78:	00625021 	addu	t2,v1,v0
80416d7c:	00032142 	srl	a0,v1,0x5
80416d80:	00641823 	subu	v1,v1,a0
80416d84:	0125102b 	sltu	v0,t1,a1
80416d88:	10400004 	beqz	v0,80416d9c <LzmaDecoderCodeReal+0x3c8>
80416d8c:	01005821 	move	t3,t0
80416d90:	00a03021 	move	a2,a1
80416d94:	08105b6b 	j	80416dac <LzmaDecoderCodeReal+0x3d8>
80416d98:	acea0000 	sw	t2,0(a3)
80416d9c:	ace30000 	sw	v1,0(a3)
80416da0:	01254823 	subu	t1,t1,a1
80416da4:	00c53023 	subu	a2,a2,a1
80416da8:	250b0001 	addiu	t3,t0,1
80416dac:	01c6102b 	sltu	v0,t6,a2
80416db0:	2d670100 	sltiu	a3,t3,256
80416db4:	00092200 	sll	a0,t1,0x8
80416db8:	1440000b 	bnez	v0,80416de8 <LzmaDecoderCodeReal+0x414>
80416dbc:	00002821 	move	a1,zero
80416dc0:	8da20004 	lw	v0,4(t5)
80416dc4:	00063200 	sll	a2,a2,0x8
80416dc8:	10400006 	beqz	v0,80416de4 <LzmaDecoderCodeReal+0x410>
80416dcc:	2443ffff 	addiu	v1,v0,-1
80416dd0:	8da20000 	lw	v0,0(t5)
80416dd4:	ada30004 	sw	v1,4(t5)
80416dd8:	90450000 	lbu	a1,0(v0)
80416ddc:	24420001 	addiu	v0,v0,1
80416de0:	ada20000 	sw	v0,0(t5)
80416de4:	00854825 	or	t1,a0,a1
80416de8:	14e0ffdc 	bnez	a3,80416d5c <LzmaDecoderCodeReal+0x388>
80416dec:	000b1080 	sll	v0,t3,0x2
80416df0:	08105b81 	j	80416e04 <LzmaDecoderCodeReal+0x430>
80416df4:	317000ff 	andi	s0,t3,0xff
80416df8:	1480ffa6 	bnez	a0,80416c94 <LzmaDecoderCodeReal+0x2c0>
80416dfc:	00000000 	nop
80416e00:	317000ff 	andi	s0,t3,0xff
80416e04:	afa0002c 	sw	zero,44(sp)
80416e08:	ae460000 	sw	a2,0(s2)
80416e0c:	08105bbf 	j	80416efc <LzmaDecoderCodeReal+0x528>
80416e10:	ae490004 	sw	t1,4(s2)
80416e14:	8c640004 	lw	a0,4(v1)
80416e18:	8c63000c 	lw	v1,12(v1)
80416e1c:	24020008 	li	v0,8
80416e20:	00441023 	subu	v0,v0,a0
80416e24:	00751824 	and	v1,v1,s5
80416e28:	00501007 	srav	v0,s0,v0
80416e2c:	00831804 	sllv	v1,v1,a0
80416e30:	00621821 	addu	v1,v1,v0
80416e34:	00031040 	sll	v0,v1,0x1
80416e38:	00431021 	addu	v0,v0,v1
80416e3c:	00021280 	sll	v0,v0,0xa
80416e40:	01025821 	addu	t3,t0,v0
80416e44:	3c0200ff 	lui	v0,0xff
80416e48:	00e04021 	move	t0,a3
80416e4c:	344effff 	ori	t6,v0,0xffff
80416e50:	24040001 	li	a0,1
80416e54:	240c0800 	li	t4,2048
80416e58:	00041080 	sll	v0,a0,0x2
80416e5c:	004b3821 	addu	a3,v0,t3
80416e60:	8ce30000 	lw	v1,0(a3)
80416e64:	000612c2 	srl	v0,a2,0xb
80416e68:	00045040 	sll	t2,a0,0x1
80416e6c:	70432802 	mul	a1,v0,v1
80416e70:	01831023 	subu	v0,t4,v1
80416e74:	00021142 	srl	v0,v0,0x5
80416e78:	00032142 	srl	a0,v1,0x5
80416e7c:	00624821 	addu	t1,v1,v0
80416e80:	00641823 	subu	v1,v1,a0
80416e84:	0105102b 	sltu	v0,t0,a1
80416e88:	10400004 	beqz	v0,80416e9c <LzmaDecoderCodeReal+0x4c8>
80416e8c:	01402021 	move	a0,t2
80416e90:	00a03021 	move	a2,a1
80416e94:	08105bab 	j	80416eac <LzmaDecoderCodeReal+0x4d8>
80416e98:	ace90000 	sw	t1,0(a3)
80416e9c:	ace30000 	sw	v1,0(a3)
80416ea0:	01054023 	subu	t0,t0,a1
80416ea4:	00c53023 	subu	a2,a2,a1
80416ea8:	25440001 	addiu	a0,t2,1
80416eac:	01c6102b 	sltu	v0,t6,a2
80416eb0:	2c890100 	sltiu	t1,a0,256
80416eb4:	00082a00 	sll	a1,t0,0x8
80416eb8:	1440000b 	bnez	v0,80416ee8 <LzmaDecoderCodeReal+0x514>
80416ebc:	00003821 	move	a3,zero
80416ec0:	8da20004 	lw	v0,4(t5)
80416ec4:	00063200 	sll	a2,a2,0x8
80416ec8:	10400006 	beqz	v0,80416ee4 <LzmaDecoderCodeReal+0x510>
80416ecc:	2443ffff 	addiu	v1,v0,-1
80416ed0:	8da20000 	lw	v0,0(t5)
80416ed4:	ada30004 	sw	v1,4(t5)
80416ed8:	90470000 	lbu	a3,0(v0)
80416edc:	24420001 	addiu	v0,v0,1
80416ee0:	ada20000 	sw	v0,0(t5)
80416ee4:	00a74025 	or	t0,a1,a3
80416ee8:	1520ffdc 	bnez	t1,80416e5c <LzmaDecoderCodeReal+0x488>
80416eec:	00041080 	sll	v0,a0,0x2
80416ef0:	ae460000 	sw	a2,0(s2)
80416ef4:	ae480004 	sw	t0,4(s2)
80416ef8:	309000ff 	andi	s0,a0,0xff
80416efc:	26b50001 	addiu	s5,s5,1
80416f00:	2ea30001 	sltiu	v1,s5,1
80416f04:	8f828150 	lw	v0,-32432(gp)
80416f08:	0283a021 	addu	s4,s4,v1
80416f0c:	8f83814c 	lw	v1,-32436(gp)
80416f10:	00431821 	addu	v1,v0,v1
80416f14:	24420001 	addiu	v0,v0,1
80416f18:	a0700000 	sb	s0,0(v1)
80416f1c:	08105aae 	j	80416ab8 <LzmaDecoderCodeReal+0xe4>
80416f20:	af828150 	sw	v0,-32432(gp)
80416f24:	304200ff 	andi	v0,v0,0xff
80416f28:	00021080 	sll	v0,v0,0x2
80416f2c:	02422821 	addu	a1,s2,v0
80416f30:	8ca30308 	lw	v1,776(a1)
80416f34:	000612c2 	srl	v0,a2,0xb
80416f38:	24040001 	li	a0,1
80416f3c:	afa4002c 	sw	a0,44(sp)
80416f40:	70432002 	mul	a0,v0,v1
80416f44:	00e4102b 	sltu	v0,a3,a0
80416f48:	1040001f 	beqz	v0,80416fc8 <LzmaDecoderCodeReal+0x5f4>
80416f4c:	00c41023 	subu	v0,a2,a0
80416f50:	ae440000 	sw	a0,0(s2)
80416f54:	8ca20308 	lw	v0,776(a1)
80416f58:	24030800 	li	v1,2048
80416f5c:	00621823 	subu	v1,v1,v0
80416f60:	00031942 	srl	v1,v1,0x5
80416f64:	00431021 	addu	v0,v0,v1
80416f68:	aca20308 	sw	v0,776(a1)
80416f6c:	8e460000 	lw	a2,0(s2)
80416f70:	3c0200ff 	lui	v0,0xff
80416f74:	3442ffff 	ori	v0,v0,0xffff
80416f78:	0046102b 	sltu	v0,v0,a2
80416f7c:	1440002f 	bnez	v0,8041703c <LzmaDecoderCodeReal+0x668>
80416f80:	00001821 	move	v1,zero
80416f84:	8e420004 	lw	v0,4(s2)
80416f88:	8fa30024 	lw	v1,36(sp)
80416f8c:	00002821 	move	a1,zero
80416f90:	10600007 	beqz	v1,80416fb0 <LzmaDecoderCodeReal+0x5dc>
80416f94:	00022200 	sll	a0,v0,0x8
80416f98:	8fa20020 	lw	v0,32(sp)
80416f9c:	2463ffff 	addiu	v1,v1,-1
80416fa0:	afa30024 	sw	v1,36(sp)
80416fa4:	90450000 	lbu	a1,0(v0)
80416fa8:	24420001 	addiu	v0,v0,1
80416fac:	afa20020 	sw	v0,32(sp)
80416fb0:	00851025 	or	v0,a0,a1
80416fb4:	00061a00 	sll	v1,a2,0x8
80416fb8:	ae420004 	sw	v0,4(s2)
80416fbc:	ae430000 	sw	v1,0(s2)
80416fc0:	08105c0f 	j	8041703c <LzmaDecoderCodeReal+0x668>
80416fc4:	00001821 	move	v1,zero
80416fc8:	00e41823 	subu	v1,a3,a0
80416fcc:	ae420000 	sw	v0,0(s2)
80416fd0:	ae430004 	sw	v1,4(s2)
80416fd4:	8ca20308 	lw	v0,776(a1)
80416fd8:	00021942 	srl	v1,v0,0x5
80416fdc:	00431023 	subu	v0,v0,v1
80416fe0:	aca20308 	sw	v0,776(a1)
80416fe4:	8e460000 	lw	a2,0(s2)
80416fe8:	3c0200ff 	lui	v0,0xff
80416fec:	3442ffff 	ori	v0,v0,0xffff
80416ff0:	0046102b 	sltu	v0,v0,a2
80416ff4:	14400011 	bnez	v0,8041703c <LzmaDecoderCodeReal+0x668>
80416ff8:	24030001 	li	v1,1
80416ffc:	8e420004 	lw	v0,4(s2)
80417000:	8fa30024 	lw	v1,36(sp)
80417004:	00002821 	move	a1,zero
80417008:	10600007 	beqz	v1,80417028 <LzmaDecoderCodeReal+0x654>
8041700c:	00022200 	sll	a0,v0,0x8
80417010:	8fa20020 	lw	v0,32(sp)
80417014:	2463ffff 	addiu	v1,v1,-1
80417018:	afa30024 	sw	v1,36(sp)
8041701c:	90450000 	lbu	a1,0(v0)
80417020:	24420001 	addiu	v0,v0,1
80417024:	afa20020 	sw	v0,32(sp)
80417028:	00851025 	or	v0,a0,a1
8041702c:	00061a00 	sll	v1,a2,0x8
80417030:	ae420004 	sw	v0,4(s2)
80417034:	ae430000 	sw	v1,0(s2)
80417038:	24030001 	li	v1,1
8041703c:	24020001 	li	v0,1
80417040:	8e460000 	lw	a2,0(s2)
80417044:	1462026f 	bne	v1,v0,80417a04 <LzmaDecoderCodeReal+0x1030>
80417048:	8e470004 	lw	a3,4(s2)
8041704c:	93a20028 	lbu	v0,40(sp)
80417050:	00061ac2 	srl	v1,a2,0xb
80417054:	00021080 	sll	v0,v0,0x2
80417058:	02422821 	addu	a1,s2,v0
8041705c:	8ca20338 	lw	v0,824(a1)
80417060:	70622002 	mul	a0,v1,v0
80417064:	00e4102b 	sltu	v0,a3,a0
80417068:	1040001f 	beqz	v0,804170e8 <LzmaDecoderCodeReal+0x714>
8041706c:	00c41023 	subu	v0,a2,a0
80417070:	ae440000 	sw	a0,0(s2)
80417074:	8ca20338 	lw	v0,824(a1)
80417078:	24030800 	li	v1,2048
8041707c:	00621823 	subu	v1,v1,v0
80417080:	00031942 	srl	v1,v1,0x5
80417084:	00431021 	addu	v0,v0,v1
80417088:	aca20338 	sw	v0,824(a1)
8041708c:	8e460000 	lw	a2,0(s2)
80417090:	3c0200ff 	lui	v0,0xff
80417094:	3442ffff 	ori	v0,v0,0xffff
80417098:	0046102b 	sltu	v0,v0,a2
8041709c:	1440002f 	bnez	v0,8041715c <LzmaDecoderCodeReal+0x788>
804170a0:	00001821 	move	v1,zero
804170a4:	8e420004 	lw	v0,4(s2)
804170a8:	8fa30024 	lw	v1,36(sp)
804170ac:	00002821 	move	a1,zero
804170b0:	10600007 	beqz	v1,804170d0 <LzmaDecoderCodeReal+0x6fc>
804170b4:	00022200 	sll	a0,v0,0x8
804170b8:	8fa20020 	lw	v0,32(sp)
804170bc:	2463ffff 	addiu	v1,v1,-1
804170c0:	afa30024 	sw	v1,36(sp)
804170c4:	90450000 	lbu	a1,0(v0)
804170c8:	24420001 	addiu	v0,v0,1
804170cc:	afa20020 	sw	v0,32(sp)
804170d0:	00851025 	or	v0,a0,a1
804170d4:	00061a00 	sll	v1,a2,0x8
804170d8:	ae420004 	sw	v0,4(s2)
804170dc:	ae430000 	sw	v1,0(s2)
804170e0:	08105c57 	j	8041715c <LzmaDecoderCodeReal+0x788>
804170e4:	00001821 	move	v1,zero
804170e8:	00e41823 	subu	v1,a3,a0
804170ec:	ae420000 	sw	v0,0(s2)
804170f0:	ae430004 	sw	v1,4(s2)
804170f4:	8ca20338 	lw	v0,824(a1)
804170f8:	00021942 	srl	v1,v0,0x5
804170fc:	00431023 	subu	v0,v0,v1
80417100:	aca20338 	sw	v0,824(a1)
80417104:	8e460000 	lw	a2,0(s2)
80417108:	3c0200ff 	lui	v0,0xff
8041710c:	3442ffff 	ori	v0,v0,0xffff
80417110:	0046102b 	sltu	v0,v0,a2
80417114:	14400011 	bnez	v0,8041715c <LzmaDecoderCodeReal+0x788>
80417118:	24030001 	li	v1,1
8041711c:	8e420004 	lw	v0,4(s2)
80417120:	8fa30024 	lw	v1,36(sp)
80417124:	00002821 	move	a1,zero
80417128:	10600007 	beqz	v1,80417148 <LzmaDecoderCodeReal+0x774>
8041712c:	00022200 	sll	a0,v0,0x8
80417130:	8fa20020 	lw	v0,32(sp)
80417134:	2463ffff 	addiu	v1,v1,-1
80417138:	afa30024 	sw	v1,36(sp)
8041713c:	90450000 	lbu	a1,0(v0)
80417140:	24420001 	addiu	v0,v0,1
80417144:	afa20020 	sw	v0,32(sp)
80417148:	00851025 	or	v0,a0,a1
8041714c:	00061a00 	sll	v1,a2,0x8
80417150:	ae420004 	sw	v0,4(s2)
80417154:	ae430000 	sw	v1,0(s2)
80417158:	24030001 	li	v1,1
8041715c:	93a20028 	lbu	v0,40(sp)
80417160:	8e460000 	lw	a2,0(s2)
80417164:	1460005d 	bnez	v1,804172dc <LzmaDecoderCodeReal+0x908>
80417168:	8e470004 	lw	a3,4(s2)
8041716c:	304200ff 	andi	v0,v0,0xff
80417170:	00021180 	sll	v0,v0,0x6
80417174:	02421021 	addu	v0,s2,v0
80417178:	00482821 	addu	a1,v0,t0
8041717c:	8ca303c8 	lw	v1,968(a1)
80417180:	000612c2 	srl	v0,a2,0xb
80417184:	70432002 	mul	a0,v0,v1
80417188:	00e4102b 	sltu	v0,a3,a0
8041718c:	1040001f 	beqz	v0,8041720c <LzmaDecoderCodeReal+0x838>
80417190:	00c41023 	subu	v0,a2,a0
80417194:	ae440000 	sw	a0,0(s2)
80417198:	8ca203c8 	lw	v0,968(a1)
8041719c:	24030800 	li	v1,2048
804171a0:	00621823 	subu	v1,v1,v0
804171a4:	00031942 	srl	v1,v1,0x5
804171a8:	00431021 	addu	v0,v0,v1
804171ac:	aca203c8 	sw	v0,968(a1)
804171b0:	8e460000 	lw	a2,0(s2)
804171b4:	3c0200ff 	lui	v0,0xff
804171b8:	3442ffff 	ori	v0,v0,0xffff
804171bc:	0046102b 	sltu	v0,v0,a2
804171c0:	1440002f 	bnez	v0,80417280 <LzmaDecoderCodeReal+0x8ac>
804171c4:	00001021 	move	v0,zero
804171c8:	8e420004 	lw	v0,4(s2)
804171cc:	8fa30024 	lw	v1,36(sp)
804171d0:	00002821 	move	a1,zero
804171d4:	10600007 	beqz	v1,804171f4 <LzmaDecoderCodeReal+0x820>
804171d8:	00022200 	sll	a0,v0,0x8
804171dc:	8fa20020 	lw	v0,32(sp)
804171e0:	2463ffff 	addiu	v1,v1,-1
804171e4:	afa30024 	sw	v1,36(sp)
804171e8:	90450000 	lbu	a1,0(v0)
804171ec:	24420001 	addiu	v0,v0,1
804171f0:	afa20020 	sw	v0,32(sp)
804171f4:	00851025 	or	v0,a0,a1
804171f8:	00061a00 	sll	v1,a2,0x8
804171fc:	ae420004 	sw	v0,4(s2)
80417200:	ae430000 	sw	v1,0(s2)
80417204:	08105ca0 	j	80417280 <LzmaDecoderCodeReal+0x8ac>
80417208:	00001021 	move	v0,zero
8041720c:	00e41823 	subu	v1,a3,a0
80417210:	ae420000 	sw	v0,0(s2)
80417214:	ae430004 	sw	v1,4(s2)
80417218:	8ca203c8 	lw	v0,968(a1)
8041721c:	00021942 	srl	v1,v0,0x5
80417220:	00431023 	subu	v0,v0,v1
80417224:	aca203c8 	sw	v0,968(a1)
80417228:	8e460000 	lw	a2,0(s2)
8041722c:	3c0200ff 	lui	v0,0xff
80417230:	3442ffff 	ori	v0,v0,0xffff
80417234:	0046102b 	sltu	v0,v0,a2
80417238:	14400011 	bnez	v0,80417280 <LzmaDecoderCodeReal+0x8ac>
8041723c:	24020001 	li	v0,1
80417240:	8e420004 	lw	v0,4(s2)
80417244:	8fa30024 	lw	v1,36(sp)
80417248:	00002821 	move	a1,zero
8041724c:	10600007 	beqz	v1,8041726c <LzmaDecoderCodeReal+0x898>
80417250:	00022200 	sll	a0,v0,0x8
80417254:	8fa20020 	lw	v0,32(sp)
80417258:	2463ffff 	addiu	v1,v1,-1
8041725c:	afa30024 	sw	v1,36(sp)
80417260:	90450000 	lbu	a1,0(v0)
80417264:	24420001 	addiu	v0,v0,1
80417268:	afa20020 	sw	v0,32(sp)
8041726c:	00851025 	or	v0,a0,a1
80417270:	00061a00 	sll	v1,a2,0x8
80417274:	ae420004 	sw	v0,4(s2)
80417278:	ae430000 	sw	v1,0(s2)
8041727c:	24020001 	li	v0,1
80417280:	14400014 	bnez	v0,804172d4 <LzmaDecoderCodeReal+0x900>
80417284:	8fa60010 	lw	a2,16(sp)
80417288:	93a30028 	lbu	v1,40(sp)
8041728c:	3c028042 	lui	v0,0x8042
80417290:	24429e48 	addiu	v0,v0,-25016
80417294:	8f848150 	lw	a0,-32432(gp)
80417298:	00621821 	addu	v1,v1,v0
8041729c:	90650000 	lbu	a1,0(v1)
804172a0:	8f83814c 	lw	v1,-32436(gp)
804172a4:	00861023 	subu	v0,a0,a2
804172a8:	a3a50028 	sb	a1,40(sp)
804172ac:	00621021 	addu	v0,v1,v0
804172b0:	9050ffff 	lbu	s0,-1(v0)
804172b4:	26b50001 	addiu	s5,s5,1
804172b8:	2ea20001 	sltiu	v0,s5,1
804172bc:	00831821 	addu	v1,a0,v1
804172c0:	0282a021 	addu	s4,s4,v0
804172c4:	24840001 	addiu	a0,a0,1
804172c8:	a0700000 	sb	s0,0(v1)
804172cc:	08105aae 	j	80416ab8 <LzmaDecoderCodeReal+0xe4>
804172d0:	af848150 	sw	a0,-32432(gp)
804172d4:	08105d4b 	j	8041752c <LzmaDecoderCodeReal+0xb58>
804172d8:	00c07021 	move	t6,a2
804172dc:	304200ff 	andi	v0,v0,0xff
804172e0:	00021080 	sll	v0,v0,0x2
804172e4:	02422821 	addu	a1,s2,v0
804172e8:	8ca30368 	lw	v1,872(a1)
804172ec:	000612c2 	srl	v0,a2,0xb
804172f0:	70432002 	mul	a0,v0,v1
804172f4:	00e4102b 	sltu	v0,a3,a0
804172f8:	10400021 	beqz	v0,80417380 <LzmaDecoderCodeReal+0x9ac>
804172fc:	00c41023 	subu	v0,a2,a0
80417300:	ae440000 	sw	a0,0(s2)
80417304:	8ca20368 	lw	v0,872(a1)
80417308:	24030800 	li	v1,2048
8041730c:	00621823 	subu	v1,v1,v0
80417310:	00031942 	srl	v1,v1,0x5
80417314:	00431021 	addu	v0,v0,v1
80417318:	aca20368 	sw	v0,872(a1)
8041731c:	8e460000 	lw	a2,0(s2)
80417320:	3c0200ff 	lui	v0,0xff
80417324:	3442ffff 	ori	v0,v0,0xffff
80417328:	0046102b 	sltu	v0,v0,a2
8041732c:	14400011 	bnez	v0,80417374 <LzmaDecoderCodeReal+0x9a0>
80417330:	8fae0014 	lw	t6,20(sp)
80417334:	8e420004 	lw	v0,4(s2)
80417338:	8fa30024 	lw	v1,36(sp)
8041733c:	00002821 	move	a1,zero
80417340:	10600007 	beqz	v1,80417360 <LzmaDecoderCodeReal+0x98c>
80417344:	00022200 	sll	a0,v0,0x8
80417348:	8fa20020 	lw	v0,32(sp)
8041734c:	2463ffff 	addiu	v1,v1,-1
80417350:	afa30024 	sw	v1,36(sp)
80417354:	90450000 	lbu	a1,0(v0)
80417358:	24420001 	addiu	v0,v0,1
8041735c:	afa20020 	sw	v0,32(sp)
80417360:	00851025 	or	v0,a0,a1
80417364:	00061a00 	sll	v1,a2,0x8
80417368:	ae420004 	sw	v0,4(s2)
8041736c:	ae430000 	sw	v1,0(s2)
80417370:	8fae0014 	lw	t6,20(sp)
80417374:	8fa20010 	lw	v0,16(sp)
80417378:	08105d4a 	j	80417528 <LzmaDecoderCodeReal+0xb54>
8041737c:	afa20014 	sw	v0,20(sp)
80417380:	00e41823 	subu	v1,a3,a0
80417384:	ae420000 	sw	v0,0(s2)
80417388:	ae430004 	sw	v1,4(s2)
8041738c:	8ca20368 	lw	v0,872(a1)
80417390:	00021942 	srl	v1,v0,0x5
80417394:	00431023 	subu	v0,v0,v1
80417398:	aca20368 	sw	v0,872(a1)
8041739c:	8e460000 	lw	a2,0(s2)
804173a0:	3c0200ff 	lui	v0,0xff
804173a4:	3442ffff 	ori	v0,v0,0xffff
804173a8:	0046102b 	sltu	v0,v0,a2
804173ac:	14400011 	bnez	v0,804173f4 <LzmaDecoderCodeReal+0xa20>
804173b0:	93a20028 	lbu	v0,40(sp)
804173b4:	8e420004 	lw	v0,4(s2)
804173b8:	8fa30024 	lw	v1,36(sp)
804173bc:	00002821 	move	a1,zero
804173c0:	10600007 	beqz	v1,804173e0 <LzmaDecoderCodeReal+0xa0c>
804173c4:	00022200 	sll	a0,v0,0x8
804173c8:	8fa20020 	lw	v0,32(sp)
804173cc:	2463ffff 	addiu	v1,v1,-1
804173d0:	afa30024 	sw	v1,36(sp)
804173d4:	90450000 	lbu	a1,0(v0)
804173d8:	24420001 	addiu	v0,v0,1
804173dc:	afa20020 	sw	v0,32(sp)
804173e0:	00851025 	or	v0,a0,a1
804173e4:	00061a00 	sll	v1,a2,0x8
804173e8:	ae420004 	sw	v0,4(s2)
804173ec:	ae430000 	sw	v1,0(s2)
804173f0:	93a20028 	lbu	v0,40(sp)
804173f4:	8e470000 	lw	a3,0(s2)
804173f8:	8e460004 	lw	a2,4(s2)
804173fc:	00021080 	sll	v0,v0,0x2
80417400:	02422821 	addu	a1,s2,v0
80417404:	8ca30398 	lw	v1,920(a1)
80417408:	000712c2 	srl	v0,a3,0xb
8041740c:	70432002 	mul	a0,v0,v1
80417410:	00c4102b 	sltu	v0,a2,a0
80417414:	1040001e 	beqz	v0,80417490 <LzmaDecoderCodeReal+0xabc>
80417418:	00c41823 	subu	v1,a2,a0
8041741c:	ae440000 	sw	a0,0(s2)
80417420:	8ca20398 	lw	v0,920(a1)
80417424:	24030800 	li	v1,2048
80417428:	00621823 	subu	v1,v1,v0
8041742c:	00031942 	srl	v1,v1,0x5
80417430:	00431021 	addu	v0,v0,v1
80417434:	aca20398 	sw	v0,920(a1)
80417438:	8e460000 	lw	a2,0(s2)
8041743c:	3c0200ff 	lui	v0,0xff
80417440:	3442ffff 	ori	v0,v0,0xffff
80417444:	0046102b 	sltu	v0,v0,a2
80417448:	1440000f 	bnez	v0,80417488 <LzmaDecoderCodeReal+0xab4>
8041744c:	8fa30024 	lw	v1,36(sp)
80417450:	8e420004 	lw	v0,4(s2)
80417454:	00002821 	move	a1,zero
80417458:	10600007 	beqz	v1,80417478 <LzmaDecoderCodeReal+0xaa4>
8041745c:	00022200 	sll	a0,v0,0x8
80417460:	8fa20020 	lw	v0,32(sp)
80417464:	2463ffff 	addiu	v1,v1,-1
80417468:	afa30024 	sw	v1,36(sp)
8041746c:	90450000 	lbu	a1,0(v0)
80417470:	24420001 	addiu	v0,v0,1
80417474:	afa20020 	sw	v0,32(sp)
80417478:	00851025 	or	v0,a0,a1
8041747c:	00061a00 	sll	v1,a2,0x8
80417480:	ae420004 	sw	v0,4(s2)
80417484:	ae430000 	sw	v1,0(s2)
80417488:	08105d41 	j	80417504 <LzmaDecoderCodeReal+0xb30>
8041748c:	00002021 	move	a0,zero
80417490:	00e41023 	subu	v0,a3,a0
80417494:	ae420000 	sw	v0,0(s2)
80417498:	ae430004 	sw	v1,4(s2)
8041749c:	8ca20398 	lw	v0,920(a1)
804174a0:	00021942 	srl	v1,v0,0x5
804174a4:	00431023 	subu	v0,v0,v1
804174a8:	aca20398 	sw	v0,920(a1)
804174ac:	8e460000 	lw	a2,0(s2)
804174b0:	3c0200ff 	lui	v0,0xff
804174b4:	3442ffff 	ori	v0,v0,0xffff
804174b8:	0046102b 	sltu	v0,v0,a2
804174bc:	14400011 	bnez	v0,80417504 <LzmaDecoderCodeReal+0xb30>
804174c0:	24040001 	li	a0,1
804174c4:	8e420004 	lw	v0,4(s2)
804174c8:	8fa30024 	lw	v1,36(sp)
804174cc:	00002821 	move	a1,zero
804174d0:	10600007 	beqz	v1,804174f0 <LzmaDecoderCodeReal+0xb1c>
804174d4:	00022200 	sll	a0,v0,0x8
804174d8:	8fa20020 	lw	v0,32(sp)
804174dc:	2463ffff 	addiu	v1,v1,-1
804174e0:	afa30024 	sw	v1,36(sp)
804174e4:	90450000 	lbu	a1,0(v0)
804174e8:	24420001 	addiu	v0,v0,1
804174ec:	afa20020 	sw	v0,32(sp)
804174f0:	00851025 	or	v0,a0,a1
804174f4:	00061a00 	sll	v1,a2,0x8
804174f8:	ae420004 	sw	v0,4(s2)
804174fc:	ae430000 	sw	v1,0(s2)
80417500:	24040001 	li	a0,1
80417504:	8fa20018 	lw	v0,24(sp)
80417508:	8fa60010 	lw	a2,16(sp)
8041750c:	8fa30014 	lw	v1,20(sp)
80417510:	10800003 	beqz	a0,80417520 <LzmaDecoderCodeReal+0xb4c>
80417514:	00407021 	move	t6,v0
80417518:	8fae001c 	lw	t6,28(sp)
8041751c:	afa2001c 	sw	v0,28(sp)
80417520:	afa30018 	sw	v1,24(sp)
80417524:	afa60014 	sw	a2,20(sp)
80417528:	afae0010 	sw	t6,16(sp)
8041752c:	8e440000 	lw	a0,0(s2)
80417530:	8e460854 	lw	a2,2132(s2)
80417534:	8e470004 	lw	a3,4(s2)
80417538:	000412c2 	srl	v0,a0,0xb
8041753c:	70462802 	mul	a1,v0,a2
80417540:	27ac0020 	addiu	t4,sp,32
80417544:	00e5102b 	sltu	v0,a3,a1
80417548:	1040001c 	beqz	v0,804175bc <LzmaDecoderCodeReal+0xbe8>
8041754c:	26490854 	addiu	t1,s2,2132
80417550:	24020800 	li	v0,2048
80417554:	00461023 	subu	v0,v0,a2
80417558:	3c0300ff 	lui	v1,0xff
8041755c:	00021142 	srl	v0,v0,0x5
80417560:	3463ffff 	ori	v1,v1,0xffff
80417564:	00c21021 	addu	v0,a2,v0
80417568:	0065182b 	sltu	v1,v1,a1
8041756c:	ae420854 	sw	v0,2132(s2)
80417570:	14600010 	bnez	v1,804175b4 <LzmaDecoderCodeReal+0xbe0>
80417574:	ae450000 	sw	a1,0(s2)
80417578:	8fa30024 	lw	v1,36(sp)
8041757c:	00072a00 	sll	a1,a3,0x8
80417580:	10600007 	beqz	v1,804175a0 <LzmaDecoderCodeReal+0xbcc>
80417584:	00002021 	move	a0,zero
80417588:	8fa20020 	lw	v0,32(sp)
8041758c:	2463ffff 	addiu	v1,v1,-1
80417590:	afa30024 	sw	v1,36(sp)
80417594:	90440000 	lbu	a0,0(v0)
80417598:	24420001 	addiu	v0,v0,1
8041759c:	afa20020 	sw	v0,32(sp)
804175a0:	8e420000 	lw	v0,0(s2)
804175a4:	00a41825 	or	v1,a1,a0
804175a8:	ae430004 	sw	v1,4(s2)
804175ac:	00021200 	sll	v0,v0,0x8
804175b0:	ae420000 	sw	v0,0(s2)
804175b4:	08105d8a 	j	80417628 <LzmaDecoderCodeReal+0xc54>
804175b8:	00001021 	move	v0,zero
804175bc:	3c0200ff 	lui	v0,0xff
804175c0:	00852023 	subu	a0,a0,a1
804175c4:	00061942 	srl	v1,a2,0x5
804175c8:	3442ffff 	ori	v0,v0,0xffff
804175cc:	00e52823 	subu	a1,a3,a1
804175d0:	00c31823 	subu	v1,a2,v1
804175d4:	0044102b 	sltu	v0,v0,a0
804175d8:	ae430854 	sw	v1,2132(s2)
804175dc:	ae440000 	sw	a0,0(s2)
804175e0:	14400010 	bnez	v0,80417624 <LzmaDecoderCodeReal+0xc50>
804175e4:	ae450004 	sw	a1,4(s2)
804175e8:	8fa30024 	lw	v1,36(sp)
804175ec:	00052a00 	sll	a1,a1,0x8
804175f0:	10600007 	beqz	v1,80417610 <LzmaDecoderCodeReal+0xc3c>
804175f4:	00002021 	move	a0,zero
804175f8:	8fa20020 	lw	v0,32(sp)
804175fc:	2463ffff 	addiu	v1,v1,-1
80417600:	afa30024 	sw	v1,36(sp)
80417604:	90440000 	lbu	a0,0(v0)
80417608:	24420001 	addiu	v0,v0,1
8041760c:	afa20020 	sw	v0,32(sp)
80417610:	8e420000 	lw	v0,0(s2)
80417614:	00a41825 	or	v1,a1,a0
80417618:	ae430004 	sw	v1,4(s2)
8041761c:	00021200 	sll	v0,v0,0x8
80417620:	ae420000 	sw	v0,0(s2)
80417624:	24020001 	li	v0,1
80417628:	8e460000 	lw	a2,0(s2)
8041762c:	14400039 	bnez	v0,80417714 <LzmaDecoderCodeReal+0xd40>
80417630:	8e470004 	lw	a3,4(s2)
80417634:	000a10c0 	sll	v0,t2,0x3
80417638:	01221021 	addu	v0,t1,v0
8041763c:	8c4b0008 	lw	t3,8(v0)
80417640:	00e04021 	move	t0,a3
80417644:	244f0008 	addiu	t7,v0,8
80417648:	1160002b 	beqz	t3,804176f8 <LzmaDecoderCodeReal+0xd24>
8041764c:	240d0001 	li	t5,1
80417650:	8df00004 	lw	s0,4(t7)
80417654:	3c0200ff 	lui	v0,0xff
80417658:	3453ffff 	ori	s3,v0,0xffff
8041765c:	24110800 	li	s1,2048
80417660:	000d1080 	sll	v0,t5,0x2
80417664:	00503821 	addu	a3,v0,s0
80417668:	8ce30000 	lw	v1,0(a3)
8041766c:	000612c2 	srl	v0,a2,0xb
80417670:	000d5040 	sll	t2,t5,0x1
80417674:	70432802 	mul	a1,v0,v1
80417678:	02231023 	subu	v0,s1,v1
8041767c:	00021142 	srl	v0,v0,0x5
80417680:	00624821 	addu	t1,v1,v0
80417684:	00032142 	srl	a0,v1,0x5
80417688:	00641823 	subu	v1,v1,a0
8041768c:	0105102b 	sltu	v0,t0,a1
80417690:	10400004 	beqz	v0,804176a4 <LzmaDecoderCodeReal+0xcd0>
80417694:	01406821 	move	t5,t2
80417698:	00a03021 	move	a2,a1
8041769c:	08105dad 	j	804176b4 <LzmaDecoderCodeReal+0xce0>
804176a0:	ace90000 	sw	t1,0(a3)
804176a4:	254d0001 	addiu	t5,t2,1
804176a8:	ace30000 	sw	v1,0(a3)
804176ac:	01054023 	subu	t0,t0,a1
804176b0:	00c53023 	subu	a2,a2,a1
804176b4:	0266102b 	sltu	v0,s3,a2
804176b8:	256bffff 	addiu	t3,t3,-1
804176bc:	00082200 	sll	a0,t0,0x8
804176c0:	1440000b 	bnez	v0,804176f0 <LzmaDecoderCodeReal+0xd1c>
804176c4:	00002821 	move	a1,zero
804176c8:	8d820004 	lw	v0,4(t4)
804176cc:	00063200 	sll	a2,a2,0x8
804176d0:	10400006 	beqz	v0,804176ec <LzmaDecoderCodeReal+0xd18>
804176d4:	2443ffff 	addiu	v1,v0,-1
804176d8:	8d820000 	lw	v0,0(t4)
804176dc:	ad830004 	sw	v1,4(t4)
804176e0:	90450000 	lbu	a1,0(v0)
804176e4:	24420001 	addiu	v0,v0,1
804176e8:	ad820000 	sw	v0,0(t4)
804176ec:	00854025 	or	t0,a0,a1
804176f0:	1560ffdc 	bnez	t3,80417664 <LzmaDecoderCodeReal+0xc90>
804176f4:	000d1080 	sll	v0,t5,0x2
804176f8:	ae460000 	sw	a2,0(s2)
804176fc:	ae480004 	sw	t0,4(s2)
80417700:	8de30000 	lw	v1,0(t7)
80417704:	24020001 	li	v0,1
80417708:	00621004 	sllv	v0,v0,v1
8041770c:	08105e79 	j	804179e4 <LzmaDecoderCodeReal+0x1010>
80417710:	01a22023 	subu	a0,t5,v0
80417714:	8d220004 	lw	v0,4(t1)
80417718:	00061ac2 	srl	v1,a2,0xb
8041771c:	70622002 	mul	a0,v1,v0
80417720:	00e4102b 	sltu	v0,a3,a0
80417724:	1040001f 	beqz	v0,804177a4 <LzmaDecoderCodeReal+0xdd0>
80417728:	00c41023 	subu	v0,a2,a0
8041772c:	ae440000 	sw	a0,0(s2)
80417730:	8d220004 	lw	v0,4(t1)
80417734:	24030800 	li	v1,2048
80417738:	00621823 	subu	v1,v1,v0
8041773c:	00031942 	srl	v1,v1,0x5
80417740:	00431021 	addu	v0,v0,v1
80417744:	ad220004 	sw	v0,4(t1)
80417748:	8e460000 	lw	a2,0(s2)
8041774c:	3c0200ff 	lui	v0,0xff
80417750:	3442ffff 	ori	v0,v0,0xffff
80417754:	0046102b 	sltu	v0,v0,a2
80417758:	14400030 	bnez	v0,8041781c <LzmaDecoderCodeReal+0xe48>
8041775c:	00001021 	move	v0,zero
80417760:	8e420004 	lw	v0,4(s2)
80417764:	8d830004 	lw	v1,4(t4)
80417768:	00002821 	move	a1,zero
8041776c:	10600007 	beqz	v1,8041778c <LzmaDecoderCodeReal+0xdb8>
80417770:	00022200 	sll	a0,v0,0x8
80417774:	8d820000 	lw	v0,0(t4)
80417778:	2463ffff 	addiu	v1,v1,-1
8041777c:	ad830004 	sw	v1,4(t4)
80417780:	90450000 	lbu	a1,0(v0)
80417784:	24420001 	addiu	v0,v0,1
80417788:	ad820000 	sw	v0,0(t4)
8041778c:	00851025 	or	v0,a0,a1
80417790:	00061a00 	sll	v1,a2,0x8
80417794:	ae420004 	sw	v0,4(s2)
80417798:	ae430000 	sw	v1,0(s2)
8041779c:	08105e06 	j	80417818 <LzmaDecoderCodeReal+0xe44>
804177a0:	00001021 	move	v0,zero
804177a4:	00e41823 	subu	v1,a3,a0
804177a8:	ae420000 	sw	v0,0(s2)
804177ac:	ae430004 	sw	v1,4(s2)
804177b0:	8d220004 	lw	v0,4(t1)
804177b4:	00021942 	srl	v1,v0,0x5
804177b8:	00431023 	subu	v0,v0,v1
804177bc:	ad220004 	sw	v0,4(t1)
804177c0:	8e460000 	lw	a2,0(s2)
804177c4:	3c0200ff 	lui	v0,0xff
804177c8:	3442ffff 	ori	v0,v0,0xffff
804177cc:	0046102b 	sltu	v0,v0,a2
804177d0:	14400012 	bnez	v0,8041781c <LzmaDecoderCodeReal+0xe48>
804177d4:	24020001 	li	v0,1
804177d8:	8e420004 	lw	v0,4(s2)
804177dc:	8d830004 	lw	v1,4(t4)
804177e0:	00002821 	move	a1,zero
804177e4:	10600007 	beqz	v1,80417804 <LzmaDecoderCodeReal+0xe30>
804177e8:	00022200 	sll	a0,v0,0x8
804177ec:	8d820000 	lw	v0,0(t4)
804177f0:	2463ffff 	addiu	v1,v1,-1
804177f4:	ad830004 	sw	v1,4(t4)
804177f8:	90450000 	lbu	a1,0(v0)
804177fc:	24420001 	addiu	v0,v0,1
80417800:	ad820000 	sw	v0,0(t4)
80417804:	00851025 	or	v0,a0,a1
80417808:	00061a00 	sll	v1,a2,0x8
8041780c:	ae420004 	sw	v0,4(s2)
80417810:	ae430000 	sw	v1,0(s2)
80417814:	24020001 	li	v0,1
80417818:	8e460000 	lw	a2,0(s2)
8041781c:	1440003a 	bnez	v0,80417908 <LzmaDecoderCodeReal+0xf34>
80417820:	8e470004 	lw	a3,4(s2)
80417824:	000a10c0 	sll	v0,t2,0x3
80417828:	01221021 	addu	v0,t1,v0
8041782c:	8c4b0088 	lw	t3,136(v0)
80417830:	00e04021 	move	t0,a3
80417834:	244f0088 	addiu	t7,v0,136
80417838:	1160002b 	beqz	t3,804178e8 <LzmaDecoderCodeReal+0xf14>
8041783c:	240d0001 	li	t5,1
80417840:	8df00004 	lw	s0,4(t7)
80417844:	3c0200ff 	lui	v0,0xff
80417848:	3453ffff 	ori	s3,v0,0xffff
8041784c:	24110800 	li	s1,2048
80417850:	000d1080 	sll	v0,t5,0x2
80417854:	00503821 	addu	a3,v0,s0
80417858:	8ce30000 	lw	v1,0(a3)
8041785c:	000612c2 	srl	v0,a2,0xb
80417860:	000d5040 	sll	t2,t5,0x1
80417864:	70432802 	mul	a1,v0,v1
80417868:	02231023 	subu	v0,s1,v1
8041786c:	00021142 	srl	v0,v0,0x5
80417870:	00624821 	addu	t1,v1,v0
80417874:	00032142 	srl	a0,v1,0x5
80417878:	00641823 	subu	v1,v1,a0
8041787c:	0105102b 	sltu	v0,t0,a1
80417880:	10400004 	beqz	v0,80417894 <LzmaDecoderCodeReal+0xec0>
80417884:	01406821 	move	t5,t2
80417888:	00a03021 	move	a2,a1
8041788c:	08105e29 	j	804178a4 <LzmaDecoderCodeReal+0xed0>
80417890:	ace90000 	sw	t1,0(a3)
80417894:	254d0001 	addiu	t5,t2,1
80417898:	ace30000 	sw	v1,0(a3)
8041789c:	01054023 	subu	t0,t0,a1
804178a0:	00c53023 	subu	a2,a2,a1
804178a4:	0266102b 	sltu	v0,s3,a2
804178a8:	256bffff 	addiu	t3,t3,-1
804178ac:	00082200 	sll	a0,t0,0x8
804178b0:	1440000b 	bnez	v0,804178e0 <LzmaDecoderCodeReal+0xf0c>
804178b4:	00002821 	move	a1,zero
804178b8:	8d820004 	lw	v0,4(t4)
804178bc:	00063200 	sll	a2,a2,0x8
804178c0:	10400006 	beqz	v0,804178dc <LzmaDecoderCodeReal+0xf08>
804178c4:	2443ffff 	addiu	v1,v0,-1
804178c8:	8d820000 	lw	v0,0(t4)
804178cc:	ad830004 	sw	v1,4(t4)
804178d0:	90450000 	lbu	a1,0(v0)
804178d4:	24420001 	addiu	v0,v0,1
804178d8:	ad820000 	sw	v0,0(t4)
804178dc:	00854025 	or	t0,a0,a1
804178e0:	1560ffdb 	bnez	t3,80417850 <LzmaDecoderCodeReal+0xe7c>
804178e4:	00000000 	nop
804178e8:	ae460000 	sw	a2,0(s2)
804178ec:	ae480004 	sw	t0,4(s2)
804178f0:	8de30000 	lw	v1,0(t7)
804178f4:	24020001 	li	v0,1
804178f8:	00621004 	sllv	v0,v0,v1
804178fc:	01a21023 	subu	v0,t5,v0
80417900:	08105e78 	j	804179e0 <LzmaDecoderCodeReal+0x100c>
80417904:	24420008 	addiu	v0,v0,8
80417908:	8d2b0108 	lw	t3,264(t1)
8041790c:	00e04021 	move	t0,a3
80417910:	252f0108 	addiu	t7,t1,264
80417914:	1160002b 	beqz	t3,804179c4 <LzmaDecoderCodeReal+0xff0>
80417918:	240d0001 	li	t5,1
8041791c:	8df00004 	lw	s0,4(t7)
80417920:	3c0200ff 	lui	v0,0xff
80417924:	3453ffff 	ori	s3,v0,0xffff
80417928:	24110800 	li	s1,2048
8041792c:	000d1080 	sll	v0,t5,0x2
80417930:	00503821 	addu	a3,v0,s0
80417934:	8ce30000 	lw	v1,0(a3)
80417938:	000612c2 	srl	v0,a2,0xb
8041793c:	000d5040 	sll	t2,t5,0x1
80417940:	70432802 	mul	a1,v0,v1
80417944:	02231023 	subu	v0,s1,v1
80417948:	00021142 	srl	v0,v0,0x5
8041794c:	00624821 	addu	t1,v1,v0
80417950:	00032142 	srl	a0,v1,0x5
80417954:	00641823 	subu	v1,v1,a0
80417958:	0105102b 	sltu	v0,t0,a1
8041795c:	10400004 	beqz	v0,80417970 <LzmaDecoderCodeReal+0xf9c>
80417960:	01406821 	move	t5,t2
80417964:	00a03021 	move	a2,a1
80417968:	08105e60 	j	80417980 <LzmaDecoderCodeReal+0xfac>
8041796c:	ace90000 	sw	t1,0(a3)
80417970:	254d0001 	addiu	t5,t2,1
80417974:	ace30000 	sw	v1,0(a3)
80417978:	01054023 	subu	t0,t0,a1
8041797c:	00c53023 	subu	a2,a2,a1
80417980:	0266102b 	sltu	v0,s3,a2
80417984:	256bffff 	addiu	t3,t3,-1
80417988:	00082200 	sll	a0,t0,0x8
8041798c:	1440000b 	bnez	v0,804179bc <LzmaDecoderCodeReal+0xfe8>
80417990:	00002821 	move	a1,zero
80417994:	8d820004 	lw	v0,4(t4)
80417998:	00063200 	sll	a2,a2,0x8
8041799c:	10400006 	beqz	v0,804179b8 <LzmaDecoderCodeReal+0xfe4>
804179a0:	2443ffff 	addiu	v1,v0,-1
804179a4:	8d820000 	lw	v0,0(t4)
804179a8:	ad830004 	sw	v1,4(t4)
804179ac:	90450000 	lbu	a1,0(v0)
804179b0:	24420001 	addiu	v0,v0,1
804179b4:	ad820000 	sw	v0,0(t4)
804179b8:	00854025 	or	t0,a0,a1
804179bc:	1560ffdc 	bnez	t3,80417930 <LzmaDecoderCodeReal+0xf5c>
804179c0:	000d1080 	sll	v0,t5,0x2
804179c4:	ae460000 	sw	a2,0(s2)
804179c8:	ae480004 	sw	t0,4(s2)
804179cc:	8de30000 	lw	v1,0(t7)
804179d0:	24020001 	li	v0,1
804179d4:	00621004 	sllv	v0,v0,v1
804179d8:	01a21023 	subu	v0,t5,v0
804179dc:	24420010 	addiu	v0,v0,16
804179e0:	00402021 	move	a0,v0
804179e4:	93a20028 	lbu	v0,40(sp)
804179e8:	3c038042 	lui	v1,0x8042
804179ec:	24639e54 	addiu	v1,v1,-25004
804179f0:	00431021 	addu	v0,v0,v1
804179f4:	90420000 	lbu	v0,0(v0)
804179f8:	24910002 	addiu	s1,a0,2
804179fc:	0810609f 	j	8041827c <LzmaDecoderCodeReal+0x18a8>
80417a00:	a3a20028 	sb	v0,40(sp)
80417a04:	8e480740 	lw	t0,1856(s2)
80417a08:	000612c2 	srl	v0,a2,0xb
80417a0c:	27ac0020 	addiu	t4,sp,32
80417a10:	70482802 	mul	a1,v0,t0
80417a14:	00e5102b 	sltu	v0,a3,a1
80417a18:	1040001c 	beqz	v0,80417a8c <LzmaDecoderCodeReal+0x10b8>
80417a1c:	26490740 	addiu	t1,s2,1856
80417a20:	24020800 	li	v0,2048
80417a24:	00481023 	subu	v0,v0,t0
80417a28:	3c0300ff 	lui	v1,0xff
80417a2c:	00021142 	srl	v0,v0,0x5
80417a30:	3463ffff 	ori	v1,v1,0xffff
80417a34:	01021021 	addu	v0,t0,v0
80417a38:	0065182b 	sltu	v1,v1,a1
80417a3c:	ae420740 	sw	v0,1856(s2)
80417a40:	14600010 	bnez	v1,80417a84 <LzmaDecoderCodeReal+0x10b0>
80417a44:	ae450000 	sw	a1,0(s2)
80417a48:	8fa30024 	lw	v1,36(sp)
80417a4c:	00072a00 	sll	a1,a3,0x8
80417a50:	10600007 	beqz	v1,80417a70 <LzmaDecoderCodeReal+0x109c>
80417a54:	00002021 	move	a0,zero
80417a58:	8fa20020 	lw	v0,32(sp)
80417a5c:	2463ffff 	addiu	v1,v1,-1
80417a60:	afa30024 	sw	v1,36(sp)
80417a64:	90440000 	lbu	a0,0(v0)
80417a68:	24420001 	addiu	v0,v0,1
80417a6c:	afa20020 	sw	v0,32(sp)
80417a70:	8e420000 	lw	v0,0(s2)
80417a74:	00a41825 	or	v1,a1,a0
80417a78:	ae430004 	sw	v1,4(s2)
80417a7c:	00021200 	sll	v0,v0,0x8
80417a80:	ae420000 	sw	v0,0(s2)
80417a84:	08105ebe 	j	80417af8 <LzmaDecoderCodeReal+0x1124>
80417a88:	00001021 	move	v0,zero
80417a8c:	3c0200ff 	lui	v0,0xff
80417a90:	00c52023 	subu	a0,a2,a1
80417a94:	00081942 	srl	v1,t0,0x5
80417a98:	3442ffff 	ori	v0,v0,0xffff
80417a9c:	00e52823 	subu	a1,a3,a1
80417aa0:	01031823 	subu	v1,t0,v1
80417aa4:	0044102b 	sltu	v0,v0,a0
80417aa8:	ae430740 	sw	v1,1856(s2)
80417aac:	ae440000 	sw	a0,0(s2)
80417ab0:	14400010 	bnez	v0,80417af4 <LzmaDecoderCodeReal+0x1120>
80417ab4:	ae450004 	sw	a1,4(s2)
80417ab8:	8fa30024 	lw	v1,36(sp)
80417abc:	00052a00 	sll	a1,a1,0x8
80417ac0:	10600007 	beqz	v1,80417ae0 <LzmaDecoderCodeReal+0x110c>
80417ac4:	00002021 	move	a0,zero
80417ac8:	8fa20020 	lw	v0,32(sp)
80417acc:	2463ffff 	addiu	v1,v1,-1
80417ad0:	afa30024 	sw	v1,36(sp)
80417ad4:	90440000 	lbu	a0,0(v0)
80417ad8:	24420001 	addiu	v0,v0,1
80417adc:	afa20020 	sw	v0,32(sp)
80417ae0:	8e420000 	lw	v0,0(s2)
80417ae4:	00a41825 	or	v1,a1,a0
80417ae8:	ae430004 	sw	v1,4(s2)
80417aec:	00021200 	sll	v0,v0,0x8
80417af0:	ae420000 	sw	v0,0(s2)
80417af4:	24020001 	li	v0,1
80417af8:	8e460000 	lw	a2,0(s2)
80417afc:	14400039 	bnez	v0,80417be4 <LzmaDecoderCodeReal+0x1210>
80417b00:	8e470004 	lw	a3,4(s2)
80417b04:	000a10c0 	sll	v0,t2,0x3
80417b08:	01221021 	addu	v0,t1,v0
80417b0c:	8c4b0008 	lw	t3,8(v0)
80417b10:	00e04021 	move	t0,a3
80417b14:	244e0008 	addiu	t6,v0,8
80417b18:	1160002b 	beqz	t3,80417bc8 <LzmaDecoderCodeReal+0x11f4>
80417b1c:	240d0001 	li	t5,1
80417b20:	8dcf0004 	lw	t7,4(t6)
80417b24:	3c0200ff 	lui	v0,0xff
80417b28:	3451ffff 	ori	s1,v0,0xffff
80417b2c:	24100800 	li	s0,2048
80417b30:	000d1080 	sll	v0,t5,0x2
80417b34:	004f3821 	addu	a3,v0,t7
80417b38:	8ce30000 	lw	v1,0(a3)
80417b3c:	000612c2 	srl	v0,a2,0xb
80417b40:	000d5040 	sll	t2,t5,0x1
80417b44:	70432802 	mul	a1,v0,v1
80417b48:	02031023 	subu	v0,s0,v1
80417b4c:	00021142 	srl	v0,v0,0x5
80417b50:	00624821 	addu	t1,v1,v0
80417b54:	00032142 	srl	a0,v1,0x5
80417b58:	00641823 	subu	v1,v1,a0
80417b5c:	0105102b 	sltu	v0,t0,a1
80417b60:	10400004 	beqz	v0,80417b74 <LzmaDecoderCodeReal+0x11a0>
80417b64:	01406821 	move	t5,t2
80417b68:	00a03021 	move	a2,a1
80417b6c:	08105ee1 	j	80417b84 <LzmaDecoderCodeReal+0x11b0>
80417b70:	ace90000 	sw	t1,0(a3)
80417b74:	254d0001 	addiu	t5,t2,1
80417b78:	ace30000 	sw	v1,0(a3)
80417b7c:	01054023 	subu	t0,t0,a1
80417b80:	00c53023 	subu	a2,a2,a1
80417b84:	0226102b 	sltu	v0,s1,a2
80417b88:	256bffff 	addiu	t3,t3,-1
80417b8c:	00082200 	sll	a0,t0,0x8
80417b90:	1440000b 	bnez	v0,80417bc0 <LzmaDecoderCodeReal+0x11ec>
80417b94:	00002821 	move	a1,zero
80417b98:	8d820004 	lw	v0,4(t4)
80417b9c:	00063200 	sll	a2,a2,0x8
80417ba0:	10400006 	beqz	v0,80417bbc <LzmaDecoderCodeReal+0x11e8>
80417ba4:	2443ffff 	addiu	v1,v0,-1
80417ba8:	8d820000 	lw	v0,0(t4)
80417bac:	ad830004 	sw	v1,4(t4)
80417bb0:	90450000 	lbu	a1,0(v0)
80417bb4:	24420001 	addiu	v0,v0,1
80417bb8:	ad820000 	sw	v0,0(t4)
80417bbc:	00854025 	or	t0,a0,a1
80417bc0:	1560ffdc 	bnez	t3,80417b34 <LzmaDecoderCodeReal+0x1160>
80417bc4:	000d1080 	sll	v0,t5,0x2
80417bc8:	ae460000 	sw	a2,0(s2)
80417bcc:	ae480004 	sw	t0,4(s2)
80417bd0:	8dc30000 	lw	v1,0(t6)
80417bd4:	24020001 	li	v0,1
80417bd8:	00621004 	sllv	v0,v0,v1
80417bdc:	08105fad 	j	80417eb4 <LzmaDecoderCodeReal+0x14e0>
80417be0:	01a22823 	subu	a1,t5,v0
80417be4:	8d220004 	lw	v0,4(t1)
80417be8:	00061ac2 	srl	v1,a2,0xb
80417bec:	70622002 	mul	a0,v1,v0
80417bf0:	00e4102b 	sltu	v0,a3,a0
80417bf4:	1040001f 	beqz	v0,80417c74 <LzmaDecoderCodeReal+0x12a0>
80417bf8:	00c41023 	subu	v0,a2,a0
80417bfc:	ae440000 	sw	a0,0(s2)
80417c00:	8d220004 	lw	v0,4(t1)
80417c04:	24030800 	li	v1,2048
80417c08:	00621823 	subu	v1,v1,v0
80417c0c:	00031942 	srl	v1,v1,0x5
80417c10:	00431021 	addu	v0,v0,v1
80417c14:	ad220004 	sw	v0,4(t1)
80417c18:	8e460000 	lw	a2,0(s2)
80417c1c:	3c0200ff 	lui	v0,0xff
80417c20:	3442ffff 	ori	v0,v0,0xffff
80417c24:	0046102b 	sltu	v0,v0,a2
80417c28:	14400030 	bnez	v0,80417cec <LzmaDecoderCodeReal+0x1318>
80417c2c:	00001021 	move	v0,zero
80417c30:	8e420004 	lw	v0,4(s2)
80417c34:	8d830004 	lw	v1,4(t4)
80417c38:	00002821 	move	a1,zero
80417c3c:	10600007 	beqz	v1,80417c5c <LzmaDecoderCodeReal+0x1288>
80417c40:	00022200 	sll	a0,v0,0x8
80417c44:	8d820000 	lw	v0,0(t4)
80417c48:	2463ffff 	addiu	v1,v1,-1
80417c4c:	ad830004 	sw	v1,4(t4)
80417c50:	90450000 	lbu	a1,0(v0)
80417c54:	24420001 	addiu	v0,v0,1
80417c58:	ad820000 	sw	v0,0(t4)
80417c5c:	00851025 	or	v0,a0,a1
80417c60:	00061a00 	sll	v1,a2,0x8
80417c64:	ae420004 	sw	v0,4(s2)
80417c68:	ae430000 	sw	v1,0(s2)
80417c6c:	08105f3a 	j	80417ce8 <LzmaDecoderCodeReal+0x1314>
80417c70:	00001021 	move	v0,zero
80417c74:	00e41823 	subu	v1,a3,a0
80417c78:	ae420000 	sw	v0,0(s2)
80417c7c:	ae430004 	sw	v1,4(s2)
80417c80:	8d220004 	lw	v0,4(t1)
80417c84:	00021942 	srl	v1,v0,0x5
80417c88:	00431023 	subu	v0,v0,v1
80417c8c:	ad220004 	sw	v0,4(t1)
80417c90:	8e460000 	lw	a2,0(s2)
80417c94:	3c0200ff 	lui	v0,0xff
80417c98:	3442ffff 	ori	v0,v0,0xffff
80417c9c:	0046102b 	sltu	v0,v0,a2
80417ca0:	14400012 	bnez	v0,80417cec <LzmaDecoderCodeReal+0x1318>
80417ca4:	24020001 	li	v0,1
80417ca8:	8e420004 	lw	v0,4(s2)
80417cac:	8d830004 	lw	v1,4(t4)
80417cb0:	00002821 	move	a1,zero
80417cb4:	10600007 	beqz	v1,80417cd4 <LzmaDecoderCodeReal+0x1300>
80417cb8:	00022200 	sll	a0,v0,0x8
80417cbc:	8d820000 	lw	v0,0(t4)
80417cc0:	2463ffff 	addiu	v1,v1,-1
80417cc4:	ad830004 	sw	v1,4(t4)
80417cc8:	90450000 	lbu	a1,0(v0)
80417ccc:	24420001 	addiu	v0,v0,1
80417cd0:	ad820000 	sw	v0,0(t4)
80417cd4:	00851025 	or	v0,a0,a1
80417cd8:	00061a00 	sll	v1,a2,0x8
80417cdc:	ae420004 	sw	v0,4(s2)
80417ce0:	ae430000 	sw	v1,0(s2)
80417ce4:	24020001 	li	v0,1
80417ce8:	8e460000 	lw	a2,0(s2)
80417cec:	1440003a 	bnez	v0,80417dd8 <LzmaDecoderCodeReal+0x1404>
80417cf0:	8e470004 	lw	a3,4(s2)
80417cf4:	000a10c0 	sll	v0,t2,0x3
80417cf8:	01221021 	addu	v0,t1,v0
80417cfc:	8c4b0088 	lw	t3,136(v0)
80417d00:	00e04021 	move	t0,a3
80417d04:	244e0088 	addiu	t6,v0,136
80417d08:	1160002b 	beqz	t3,80417db8 <LzmaDecoderCodeReal+0x13e4>
80417d0c:	240d0001 	li	t5,1
80417d10:	8dcf0004 	lw	t7,4(t6)
80417d14:	3c0200ff 	lui	v0,0xff
80417d18:	3451ffff 	ori	s1,v0,0xffff
80417d1c:	24100800 	li	s0,2048
80417d20:	000d1080 	sll	v0,t5,0x2
80417d24:	004f3821 	addu	a3,v0,t7
80417d28:	8ce30000 	lw	v1,0(a3)
80417d2c:	000612c2 	srl	v0,a2,0xb
80417d30:	000d5040 	sll	t2,t5,0x1
80417d34:	70432802 	mul	a1,v0,v1
80417d38:	02031023 	subu	v0,s0,v1
80417d3c:	00021142 	srl	v0,v0,0x5
80417d40:	00624821 	addu	t1,v1,v0
80417d44:	00032142 	srl	a0,v1,0x5
80417d48:	00641823 	subu	v1,v1,a0
80417d4c:	0105102b 	sltu	v0,t0,a1
80417d50:	10400004 	beqz	v0,80417d64 <LzmaDecoderCodeReal+0x1390>
80417d54:	01406821 	move	t5,t2
80417d58:	00a03021 	move	a2,a1
80417d5c:	08105f5d 	j	80417d74 <LzmaDecoderCodeReal+0x13a0>
80417d60:	ace90000 	sw	t1,0(a3)
80417d64:	254d0001 	addiu	t5,t2,1
80417d68:	ace30000 	sw	v1,0(a3)
80417d6c:	01054023 	subu	t0,t0,a1
80417d70:	00c53023 	subu	a2,a2,a1
80417d74:	0226102b 	sltu	v0,s1,a2
80417d78:	256bffff 	addiu	t3,t3,-1
80417d7c:	00082200 	sll	a0,t0,0x8
80417d80:	1440000b 	bnez	v0,80417db0 <LzmaDecoderCodeReal+0x13dc>
80417d84:	00002821 	move	a1,zero
80417d88:	8d820004 	lw	v0,4(t4)
80417d8c:	00063200 	sll	a2,a2,0x8
80417d90:	10400006 	beqz	v0,80417dac <LzmaDecoderCodeReal+0x13d8>
80417d94:	2443ffff 	addiu	v1,v0,-1
80417d98:	8d820000 	lw	v0,0(t4)
80417d9c:	ad830004 	sw	v1,4(t4)
80417da0:	90450000 	lbu	a1,0(v0)
80417da4:	24420001 	addiu	v0,v0,1
80417da8:	ad820000 	sw	v0,0(t4)
80417dac:	00854025 	or	t0,a0,a1
80417db0:	1560ffdb 	bnez	t3,80417d20 <LzmaDecoderCodeReal+0x134c>
80417db4:	00000000 	nop
80417db8:	ae460000 	sw	a2,0(s2)
80417dbc:	ae480004 	sw	t0,4(s2)
80417dc0:	8dc30000 	lw	v1,0(t6)
80417dc4:	24020001 	li	v0,1
80417dc8:	00621004 	sllv	v0,v0,v1
80417dcc:	01a21023 	subu	v0,t5,v0
80417dd0:	08105fac 	j	80417eb0 <LzmaDecoderCodeReal+0x14dc>
80417dd4:	24420008 	addiu	v0,v0,8
80417dd8:	8d2b0108 	lw	t3,264(t1)
80417ddc:	00e04021 	move	t0,a3
80417de0:	252e0108 	addiu	t6,t1,264
80417de4:	1160002b 	beqz	t3,80417e94 <LzmaDecoderCodeReal+0x14c0>
80417de8:	240d0001 	li	t5,1
80417dec:	8dcf0004 	lw	t7,4(t6)
80417df0:	3c0200ff 	lui	v0,0xff
80417df4:	3451ffff 	ori	s1,v0,0xffff
80417df8:	24100800 	li	s0,2048
80417dfc:	000d1080 	sll	v0,t5,0x2
80417e00:	004f3821 	addu	a3,v0,t7
80417e04:	8ce30000 	lw	v1,0(a3)
80417e08:	000612c2 	srl	v0,a2,0xb
80417e0c:	000d5040 	sll	t2,t5,0x1
80417e10:	70432802 	mul	a1,v0,v1
80417e14:	02031023 	subu	v0,s0,v1
80417e18:	00021142 	srl	v0,v0,0x5
80417e1c:	00624821 	addu	t1,v1,v0
80417e20:	00032142 	srl	a0,v1,0x5
80417e24:	00641823 	subu	v1,v1,a0
80417e28:	0105102b 	sltu	v0,t0,a1
80417e2c:	10400004 	beqz	v0,80417e40 <LzmaDecoderCodeReal+0x146c>
80417e30:	01406821 	move	t5,t2
80417e34:	00a03021 	move	a2,a1
80417e38:	08105f94 	j	80417e50 <LzmaDecoderCodeReal+0x147c>
80417e3c:	ace90000 	sw	t1,0(a3)
80417e40:	254d0001 	addiu	t5,t2,1
80417e44:	ace30000 	sw	v1,0(a3)
80417e48:	01054023 	subu	t0,t0,a1
80417e4c:	00c53023 	subu	a2,a2,a1
80417e50:	0226102b 	sltu	v0,s1,a2
80417e54:	256bffff 	addiu	t3,t3,-1
80417e58:	00082200 	sll	a0,t0,0x8
80417e5c:	1440000b 	bnez	v0,80417e8c <LzmaDecoderCodeReal+0x14b8>
80417e60:	00002821 	move	a1,zero
80417e64:	8d820004 	lw	v0,4(t4)
80417e68:	00063200 	sll	a2,a2,0x8
80417e6c:	10400006 	beqz	v0,80417e88 <LzmaDecoderCodeReal+0x14b4>
80417e70:	2443ffff 	addiu	v1,v0,-1
80417e74:	8d820000 	lw	v0,0(t4)
80417e78:	ad830004 	sw	v1,4(t4)
80417e7c:	90450000 	lbu	a1,0(v0)
80417e80:	24420001 	addiu	v0,v0,1
80417e84:	ad820000 	sw	v0,0(t4)
80417e88:	00854025 	or	t0,a0,a1
80417e8c:	1560ffdc 	bnez	t3,80417e00 <LzmaDecoderCodeReal+0x142c>
80417e90:	000d1080 	sll	v0,t5,0x2
80417e94:	ae460000 	sw	a2,0(s2)
80417e98:	ae480004 	sw	t0,4(s2)
80417e9c:	8dc30000 	lw	v1,0(t6)
80417ea0:	24020001 	li	v0,1
80417ea4:	00621004 	sllv	v0,v0,v1
80417ea8:	01a21023 	subu	v0,t5,v0
80417eac:	24420010 	addiu	v0,v0,16
80417eb0:	00402821 	move	a1,v0
80417eb4:	93a30028 	lbu	v1,40(sp)
80417eb8:	3c028042 	lui	v0,0x8042
80417ebc:	24429e60 	addiu	v0,v0,-24992
80417ec0:	00621821 	addu	v1,v1,v0
80417ec4:	90640000 	lbu	a0,0(v1)
80417ec8:	24020003 	li	v0,3
80417ecc:	2ca30004 	sltiu	v1,a1,4
80417ed0:	00a3100b 	movn	v0,a1,v1
80417ed4:	000210c0 	sll	v0,v0,0x3
80417ed8:	a3a40028 	sb	a0,40(sp)
80417edc:	02421021 	addu	v0,s2,v0
80417ee0:	8c4b06c8 	lw	t3,1736(v0)
80417ee4:	24b10002 	addiu	s1,a1,2
80417ee8:	244e06c8 	addiu	t6,v0,1736
80417eec:	240d0001 	li	t5,1
80417ef0:	8e470000 	lw	a3,0(s2)
80417ef4:	1160002b 	beqz	t3,80417fa4 <LzmaDecoderCodeReal+0x15d0>
80417ef8:	8e480004 	lw	t0,4(s2)
80417efc:	8dcf0004 	lw	t7,4(t6)
80417f00:	3c0200ff 	lui	v0,0xff
80417f04:	3453ffff 	ori	s3,v0,0xffff
80417f08:	24100800 	li	s0,2048
80417f0c:	000d1080 	sll	v0,t5,0x2
80417f10:	004f3021 	addu	a2,v0,t7
80417f14:	8cc30000 	lw	v1,0(a2)
80417f18:	000712c2 	srl	v0,a3,0xb
80417f1c:	000d5040 	sll	t2,t5,0x1
80417f20:	70432802 	mul	a1,v0,v1
80417f24:	02031023 	subu	v0,s0,v1
80417f28:	00021142 	srl	v0,v0,0x5
80417f2c:	00624821 	addu	t1,v1,v0
80417f30:	00032142 	srl	a0,v1,0x5
80417f34:	00641823 	subu	v1,v1,a0
80417f38:	0105102b 	sltu	v0,t0,a1
80417f3c:	10400004 	beqz	v0,80417f50 <LzmaDecoderCodeReal+0x157c>
80417f40:	01406821 	move	t5,t2
80417f44:	00a03821 	move	a3,a1
80417f48:	08105fd8 	j	80417f60 <LzmaDecoderCodeReal+0x158c>
80417f4c:	acc90000 	sw	t1,0(a2)
80417f50:	254d0001 	addiu	t5,t2,1
80417f54:	acc30000 	sw	v1,0(a2)
80417f58:	01054023 	subu	t0,t0,a1
80417f5c:	00e53823 	subu	a3,a3,a1
80417f60:	0267102b 	sltu	v0,s3,a3
80417f64:	256bffff 	addiu	t3,t3,-1
80417f68:	00082200 	sll	a0,t0,0x8
80417f6c:	1440000b 	bnez	v0,80417f9c <LzmaDecoderCodeReal+0x15c8>
80417f70:	00002821 	move	a1,zero
80417f74:	8d820004 	lw	v0,4(t4)
80417f78:	00073a00 	sll	a3,a3,0x8
80417f7c:	10400006 	beqz	v0,80417f98 <LzmaDecoderCodeReal+0x15c4>
80417f80:	2443ffff 	addiu	v1,v0,-1
80417f84:	8d820000 	lw	v0,0(t4)
80417f88:	ad830004 	sw	v1,4(t4)
80417f8c:	90450000 	lbu	a1,0(v0)
80417f90:	24420001 	addiu	v0,v0,1
80417f94:	ad820000 	sw	v0,0(t4)
80417f98:	00854025 	or	t0,a0,a1
80417f9c:	1560ffdc 	bnez	t3,80417f10 <LzmaDecoderCodeReal+0x153c>
80417fa0:	000d1080 	sll	v0,t5,0x2
80417fa4:	ae470000 	sw	a3,0(s2)
80417fa8:	ae480004 	sw	t0,4(s2)
80417fac:	8dc20000 	lw	v0,0(t6)
80417fb0:	24030001 	li	v1,1
80417fb4:	00431804 	sllv	v1,v1,v0
80417fb8:	01a32023 	subu	a0,t5,v1
80417fbc:	2c820004 	sltiu	v0,a0,4
80417fc0:	144000a7 	bnez	v0,80418260 <LzmaDecoderCodeReal+0x188c>
80417fc4:	00807021 	move	t6,a0
80417fc8:	3c038042 	lui	v1,0x8042
80417fcc:	24632918 	addiu	v1,v1,10520
80417fd0:	00041080 	sll	v0,a0,0x2
80417fd4:	00431021 	addu	v0,v0,v1
80417fd8:	2c83000e 	sltiu	v1,a0,14
80417fdc:	1060003d 	beqz	v1,804180d4 <LzmaDecoderCodeReal+0x1700>
80417fe0:	8c4e0000 	lw	t6,0(v0)
80417fe4:	000410c0 	sll	v0,a0,0x3
80417fe8:	02421021 	addu	v0,s2,v0
80417fec:	8c4306c8 	lw	v1,1736(v0)
80417ff0:	00e03021 	move	a2,a3
80417ff4:	245006c8 	addiu	s0,v0,1736
80417ff8:	240b0001 	li	t3,1
80417ffc:	00007821 	move	t7,zero
80418000:	10600030 	beqz	v1,804180c4 <LzmaDecoderCodeReal+0x16f0>
80418004:	00006821 	move	t5,zero
80418008:	8e130004 	lw	s3,4(s0)
8041800c:	3c0200ff 	lui	v0,0xff
80418010:	3457ffff 	ori	s7,v0,0xffff
80418014:	24160800 	li	s6,2048
80418018:	241f0001 	li	ra,1
8041801c:	000b1080 	sll	v0,t3,0x2
80418020:	00533821 	addu	a3,v0,s3
80418024:	8ce30000 	lw	v1,0(a3)
80418028:	000612c2 	srl	v0,a2,0xb
8041802c:	01bf5004 	sllv	t2,ra,t5
80418030:	70432802 	mul	a1,v0,v1
80418034:	02c31023 	subu	v0,s6,v1
80418038:	00021142 	srl	v0,v0,0x5
8041803c:	00032142 	srl	a0,v1,0x5
80418040:	00624821 	addu	t1,v1,v0
80418044:	00641823 	subu	v1,v1,a0
80418048:	000b2040 	sll	a0,t3,0x1
8041804c:	0105102b 	sltu	v0,t0,a1
80418050:	10400004 	beqz	v0,80418064 <LzmaDecoderCodeReal+0x1690>
80418054:	00805821 	move	t3,a0
80418058:	00a03021 	move	a2,a1
8041805c:	0810601e 	j	80418078 <LzmaDecoderCodeReal+0x16a4>
80418060:	ace90000 	sw	t1,0(a3)
80418064:	01ea7825 	or	t7,t7,t2
80418068:	248b0001 	addiu	t3,a0,1
8041806c:	ace30000 	sw	v1,0(a3)
80418070:	01054023 	subu	t0,t0,a1
80418074:	00c53023 	subu	a2,a2,a1
80418078:	02e6102b 	sltu	v0,s7,a2
8041807c:	25ad0001 	addiu	t5,t5,1
80418080:	00082200 	sll	a0,t0,0x8
80418084:	1440000b 	bnez	v0,804180b4 <LzmaDecoderCodeReal+0x16e0>
80418088:	00002821 	move	a1,zero
8041808c:	8d820004 	lw	v0,4(t4)
80418090:	00063200 	sll	a2,a2,0x8
80418094:	10400006 	beqz	v0,804180b0 <LzmaDecoderCodeReal+0x16dc>
80418098:	2443ffff 	addiu	v1,v0,-1
8041809c:	8d820000 	lw	v0,0(t4)
804180a0:	ad830004 	sw	v1,4(t4)
804180a4:	90450000 	lbu	a1,0(v0)
804180a8:	24420001 	addiu	v0,v0,1
804180ac:	ad820000 	sw	v0,0(t4)
804180b0:	00854025 	or	t0,a0,a1
804180b4:	8e020000 	lw	v0,0(s0)
804180b8:	01a2102b 	sltu	v0,t5,v0
804180bc:	1440ffd8 	bnez	v0,80418020 <LzmaDecoderCodeReal+0x164c>
804180c0:	000b1080 	sll	v0,t3,0x2
804180c4:	01cf7021 	addu	t6,t6,t7
804180c8:	ae460000 	sw	a2,0(s2)
804180cc:	08106098 	j	80418260 <LzmaDecoderCodeReal+0x188c>
804180d0:	ae480004 	sw	t0,4(s2)
804180d4:	3c028042 	lui	v0,0x8042
804180d8:	24429e04 	addiu	v0,v0,-25084
804180dc:	00821021 	addu	v0,a0,v0
804180e0:	90420000 	lbu	v0,0(v0)
804180e4:	01003021 	move	a2,t0
804180e8:	2448fffc 	addiu	t0,v0,-4
804180ec:	1100001f 	beqz	t0,8041816c <LzmaDecoderCodeReal+0x1798>
804180f0:	00002821 	move	a1,zero
804180f4:	3c0200ff 	lui	v0,0xff
804180f8:	344affff 	ori	t2,v0,0xffff
804180fc:	24090001 	li	t1,1
80418100:	00073842 	srl	a3,a3,0x1
80418104:	00c71023 	subu	v0,a2,a3
80418108:	000217c2 	srl	v0,v0,0x1f
8041810c:	00001821 	move	v1,zero
80418110:	00e2180a 	movz	v1,a3,v0
80418114:	01222023 	subu	a0,t1,v0
80418118:	00052840 	sll	a1,a1,0x1
8041811c:	00601021 	move	v0,v1
80418120:	0147182b 	sltu	v1,t2,a3
80418124:	2508ffff 	addiu	t0,t0,-1
80418128:	00c23023 	subu	a2,a2,v0
8041812c:	1460000d 	bnez	v1,80418164 <LzmaDecoderCodeReal+0x1790>
80418130:	00a42825 	or	a1,a1,a0
80418134:	8d820004 	lw	v0,4(t4)
80418138:	00073a00 	sll	a3,a3,0x8
8041813c:	00063200 	sll	a2,a2,0x8
80418140:	00002021 	move	a0,zero
80418144:	10400006 	beqz	v0,80418160 <LzmaDecoderCodeReal+0x178c>
80418148:	2443ffff 	addiu	v1,v0,-1
8041814c:	8d820000 	lw	v0,0(t4)
80418150:	ad830004 	sw	v1,4(t4)
80418154:	90440000 	lbu	a0,0(v0)
80418158:	24420001 	addiu	v0,v0,1
8041815c:	ad820000 	sw	v0,0(t4)
80418160:	00c43025 	or	a2,a2,a0
80418164:	1500ffe6 	bnez	t0,80418100 <LzmaDecoderCodeReal+0x172c>
80418168:	00000000 	nop
8041816c:	8e430738 	lw	v1,1848(s2)
80418170:	00051100 	sll	v0,a1,0x4
80418174:	01c27021 	addu	t6,t6,v0
80418178:	ae470000 	sw	a3,0(s2)
8041817c:	ae460004 	sw	a2,4(s2)
80418180:	00c04021 	move	t0,a2
80418184:	26500738 	addiu	s0,s2,1848
80418188:	240b0001 	li	t3,1
8041818c:	00007821 	move	t7,zero
80418190:	10600030 	beqz	v1,80418254 <LzmaDecoderCodeReal+0x1880>
80418194:	00006821 	move	t5,zero
80418198:	8e130004 	lw	s3,4(s0)
8041819c:	3c0200ff 	lui	v0,0xff
804181a0:	3457ffff 	ori	s7,v0,0xffff
804181a4:	24160800 	li	s6,2048
804181a8:	241f0001 	li	ra,1
804181ac:	000b1080 	sll	v0,t3,0x2
804181b0:	00533021 	addu	a2,v0,s3
804181b4:	8cc30000 	lw	v1,0(a2)
804181b8:	000712c2 	srl	v0,a3,0xb
804181bc:	01bf5004 	sllv	t2,ra,t5
804181c0:	70432802 	mul	a1,v0,v1
804181c4:	02c31023 	subu	v0,s6,v1
804181c8:	00021142 	srl	v0,v0,0x5
804181cc:	00032142 	srl	a0,v1,0x5
804181d0:	00624821 	addu	t1,v1,v0
804181d4:	00641823 	subu	v1,v1,a0
804181d8:	000b2040 	sll	a0,t3,0x1
804181dc:	0105102b 	sltu	v0,t0,a1
804181e0:	10400004 	beqz	v0,804181f4 <LzmaDecoderCodeReal+0x1820>
804181e4:	00805821 	move	t3,a0
804181e8:	00a03821 	move	a3,a1
804181ec:	08106082 	j	80418208 <LzmaDecoderCodeReal+0x1834>
804181f0:	acc90000 	sw	t1,0(a2)
804181f4:	01ea7825 	or	t7,t7,t2
804181f8:	248b0001 	addiu	t3,a0,1
804181fc:	acc30000 	sw	v1,0(a2)
80418200:	01054023 	subu	t0,t0,a1
80418204:	00e53823 	subu	a3,a3,a1
80418208:	02e7102b 	sltu	v0,s7,a3
8041820c:	25ad0001 	addiu	t5,t5,1
80418210:	00082200 	sll	a0,t0,0x8
80418214:	1440000b 	bnez	v0,80418244 <LzmaDecoderCodeReal+0x1870>
80418218:	00002821 	move	a1,zero
8041821c:	8d820004 	lw	v0,4(t4)
80418220:	00073a00 	sll	a3,a3,0x8
80418224:	10400006 	beqz	v0,80418240 <LzmaDecoderCodeReal+0x186c>
80418228:	2443ffff 	addiu	v1,v0,-1
8041822c:	8d820000 	lw	v0,0(t4)
80418230:	ad830004 	sw	v1,4(t4)
80418234:	90450000 	lbu	a1,0(v0)
80418238:	24420001 	addiu	v0,v0,1
8041823c:	ad820000 	sw	v0,0(t4)
80418240:	00854025 	or	t0,a0,a1
80418244:	8e020000 	lw	v0,0(s0)
80418248:	01a2102b 	sltu	v0,t5,v0
8041824c:	1440ffd8 	bnez	v0,804181b0 <LzmaDecoderCodeReal+0x17dc>
80418250:	000b1080 	sll	v0,t3,0x2
80418254:	ae470000 	sw	a3,0(s2)
80418258:	ae480004 	sw	t0,4(s2)
8041825c:	01cf7021 	addu	t6,t6,t7
80418260:	8fa20018 	lw	v0,24(sp)
80418264:	afa2001c 	sw	v0,28(sp)
80418268:	8fa20014 	lw	v0,20(sp)
8041826c:	afa20018 	sw	v0,24(sp)
80418270:	8fa20010 	lw	v0,16(sp)
80418274:	afae0010 	sw	t6,16(sp)
80418278:	afa20014 	sw	v0,20(sp)
8041827c:	00002021 	move	a0,zero
80418280:	0094102b 	sltu	v0,a0,s4
80418284:	1440000b 	bnez	v0,804182b4 <LzmaDecoderCodeReal+0x18e0>
80418288:	8f83814c 	lw	v1,-32436(gp)
8041828c:	16840004 	bne	s4,a0,804182a0 <LzmaDecoderCodeReal+0x18cc>
80418290:	00000000 	nop
80418294:	01d5102b 	sltu	v0,t6,s5
80418298:	14400006 	bnez	v0,804182b4 <LzmaDecoderCodeReal+0x18e0>
8041829c:	00000000 	nop
804182a0:	3c048042 	lui	a0,0x8042
804182a4:	0c10331a 	jal	8040cc68 <xprintf>
804182a8:	2484c53c 	addiu	a0,a0,-15044
804182ac:	0810610f 	j	8041843c <LzmaDecoderCodeReal+0x1a68>
804182b0:	2402fffb 	li	v0,-5
804182b4:	8f828150 	lw	v0,-32432(gp)
804182b8:	25c40001 	addiu	a0,t6,1
804182bc:	00003021 	move	a2,zero
804182c0:	12200009 	beqz	s1,804182e8 <LzmaDecoderCodeReal+0x1914>
804182c4:	00623821 	addu	a3,v1,v0
804182c8:	00e42823 	subu	a1,a3,a0
804182cc:	90a20000 	lbu	v0,0(a1)
804182d0:	00e61821 	addu	v1,a3,a2
804182d4:	24c60001 	addiu	a2,a2,1
804182d8:	00d1202b 	sltu	a0,a2,s1
804182dc:	a0620000 	sb	v0,0(v1)
804182e0:	1480fffa 	bnez	a0,804182cc <LzmaDecoderCodeReal+0x18f8>
804182e4:	24a50001 	addiu	a1,a1,1
804182e8:	8f858150 	lw	a1,-32432(gp)
804182ec:	8f84814c 	lw	a0,-32436(gp)
804182f0:	00001021 	move	v0,zero
804182f4:	00b12821 	addu	a1,a1,s1
804182f8:	00852021 	addu	a0,a0,a1
804182fc:	af858150 	sw	a1,-32432(gp)
80418300:	9090ffff 	lbu	s0,-1(a0)
80418304:	02b1a821 	addu	s5,s5,s1
80418308:	02b1202b 	sltu	a0,s5,s1
8041830c:	0282a021 	addu	s4,s4,v0
80418310:	08105aae 	j	80416ab8 <LzmaDecoderCodeReal+0xe4>
80418314:	0284a021 	addu	s4,s4,a0
80418318:	8e450968 	lw	a1,2408(s2)
8041831c:	3c138042 	lui	s3,0x8042
80418320:	0c103031 	jal	8040c0c4 <kfree>
80418324:	26642bec 	addiu	a0,s3,11244
80418328:	265006cc 	addiu	s0,s2,1740
8041832c:	24110003 	li	s1,3
80418330:	8e050000 	lw	a1,0(s0)
80418334:	26642bec 	addiu	a0,s3,11244
80418338:	0c103031 	jal	8040c0c4 <kfree>
8041833c:	2631ffff 	addiu	s1,s1,-1
80418340:	0621fffb 	bgez	s1,80418330 <LzmaDecoderCodeReal+0x195c>
80418344:	26100008 	addiu	s0,s0,8
80418348:	8e420850 	lw	v0,2128(s2)
8041834c:	1040000e 	beqz	v0,80418388 <LzmaDecoderCodeReal+0x19b4>
80418350:	00008821 	move	s1,zero
80418354:	02408021 	move	s0,s2
80418358:	8e05074c 	lw	a1,1868(s0)
8041835c:	26642bec 	addiu	a0,s3,11244
80418360:	0c103031 	jal	8040c0c4 <kfree>
80418364:	26310001 	addiu	s1,s1,1
80418368:	8e0507cc 	lw	a1,1996(s0)
8041836c:	26642bec 	addiu	a0,s3,11244
80418370:	0c103031 	jal	8040c0c4 <kfree>
80418374:	26100008 	addiu	s0,s0,8
80418378:	8e420850 	lw	v0,2128(s2)
8041837c:	0222102b 	sltu	v0,s1,v0
80418380:	1440fff5 	bnez	v0,80418358 <LzmaDecoderCodeReal+0x1984>
80418384:	00000000 	nop
80418388:	8e45084c 	lw	a1,2124(s2)
8041838c:	3c138042 	lui	s3,0x8042
80418390:	0c103031 	jal	8040c0c4 <kfree>
80418394:	26642bec 	addiu	a0,s3,11244
80418398:	8e420964 	lw	v0,2404(s2)
8041839c:	1040000e 	beqz	v0,804183d8 <LzmaDecoderCodeReal+0x1a04>
804183a0:	00008821 	move	s1,zero
804183a4:	02408021 	move	s0,s2
804183a8:	8e050860 	lw	a1,2144(s0)
804183ac:	26642bec 	addiu	a0,s3,11244
804183b0:	0c103031 	jal	8040c0c4 <kfree>
804183b4:	26310001 	addiu	s1,s1,1
804183b8:	8e0508e0 	lw	a1,2272(s0)
804183bc:	26642bec 	addiu	a0,s3,11244
804183c0:	0c103031 	jal	8040c0c4 <kfree>
804183c4:	26100008 	addiu	s0,s0,8
804183c8:	8e420964 	lw	v0,2404(s2)
804183cc:	0222102b 	sltu	v0,s1,v0
804183d0:	1440fff5 	bnez	v0,804183a8 <LzmaDecoderCodeReal+0x19d4>
804183d4:	00000000 	nop
804183d8:	8e450960 	lw	a1,2400(s2)
804183dc:	3c138042 	lui	s3,0x8042
804183e0:	0c103031 	jal	8040c0c4 <kfree>
804183e4:	26642bec 	addiu	a0,s3,11244
804183e8:	8e45073c 	lw	a1,1852(s2)
804183ec:	26642bec 	addiu	a0,s3,11244
804183f0:	0c103031 	jal	8040c0c4 <kfree>
804183f4:	265006ec 	addiu	s0,s2,1772
804183f8:	24110009 	li	s1,9
804183fc:	8e050000 	lw	a1,0(s0)
80418400:	26642bec 	addiu	a0,s3,11244
80418404:	0c103031 	jal	8040c0c4 <kfree>
80418408:	2631ffff 	addiu	s1,s1,-1
8041840c:	0621fffb 	bgez	s1,804183fc <LzmaDecoderCodeReal+0x1a28>
80418410:	26100008 	addiu	s0,s0,8
80418414:	3c028042 	lui	v0,0x8042
80418418:	24442d10 	addiu	a0,v0,11536
8041841c:	8f838150 	lw	v1,-32432(gp)
80418420:	8c820004 	lw	v0,4(a0)
80418424:	0043102b 	sltu	v0,v0,v1
80418428:	10400003 	beqz	v0,80418438 <LzmaDecoderCodeReal+0x1a64>
8041842c:	ac83000c 	sw	v1,12(a0)
80418430:	24020001 	li	v0,1
80418434:	ac820008 	sw	v0,8(a0)
80418438:	00001021 	move	v0,zero
8041843c:	8fbf005c 	lw	ra,92(sp)
80418440:	8fbe0058 	lw	s8,88(sp)
80418444:	8fb70054 	lw	s7,84(sp)
80418448:	8fb60050 	lw	s6,80(sp)
8041844c:	8fb5004c 	lw	s5,76(sp)
80418450:	8fb40048 	lw	s4,72(sp)
80418454:	8fb30044 	lw	s3,68(sp)
80418458:	8fb20040 	lw	s2,64(sp)
8041845c:	8fb1003c 	lw	s1,60(sp)
80418460:	8fb00038 	lw	s0,56(sp)
80418464:	03e00008 	jr	ra
80418468:	27bd0060 	addiu	sp,sp,96

8041846c <LzmaDecoderCode>:
8041846c:	3c028042 	lui	v0,0x8042
80418470:	244b9e04 	addiu	t3,v0,-25084
80418474:	3c028042 	lui	v0,0x8042
80418478:	24492918 	addiu	t1,v0,10520
8041847c:	00004021 	move	t0,zero
80418480:	00003821 	move	a3,zero
80418484:	240a0001 	li	t2,1
80418488:	00eb1021 	addu	v0,a3,t3
8041848c:	90420000 	lbu	v0,0(v0)
80418490:	24e70001 	addiu	a3,a3,1
80418494:	28e30038 	slti	v1,a3,56
80418498:	004a1004 	sllv	v0,t2,v0
8041849c:	ad280000 	sw	t0,0(t1)
804184a0:	01024021 	addu	t0,t0,v0
804184a4:	1460fff8 	bnez	v1,80418488 <LzmaDecoderCode+0x1c>
804184a8:	25290004 	addiu	t1,t1,4
804184ac:	08105a75 	j	804169d4 <LzmaDecoderCodeReal>
804184b0:	00000000 	nop

804184b4 <LzmaDecoderReadCoderProperties>:
804184b4:	27bdffc8 	addiu	sp,sp,-56
804184b8:	afb3002c 	sw	s3,44(sp)
804184bc:	24050001 	li	a1,1
804184c0:	00809821 	move	s3,a0
804184c4:	27a60014 	addiu	a2,sp,20
804184c8:	27a40010 	addiu	a0,sp,16
804184cc:	afbf0030 	sw	ra,48(sp)
804184d0:	afb20028 	sw	s2,40(sp)
804184d4:	afb10024 	sw	s1,36(sp)
804184d8:	0c106176 	jal	804185d8 <InStreamRead>
804184dc:	afb00020 	sw	s0,32(sp)
804184e0:	14400035 	bnez	v0,804185b8 <LzmaDecoderReadCoderProperties+0x104>
804184e4:	00403821 	move	a3,v0
804184e8:	8fa30014 	lw	v1,20(sp)
804184ec:	24020001 	li	v0,1
804184f0:	27a60014 	addiu	a2,sp,20
804184f4:	27a40018 	addiu	a0,sp,24
804184f8:	24050004 	li	a1,4
804184fc:	1462002e 	bne	v1,v0,804185b8 <LzmaDecoderReadCoderProperties+0x104>
80418500:	2407ffff 	li	a3,-1
80418504:	93a80010 	lbu	t0,16(sp)
80418508:	3c0338e3 	lui	v1,0x38e3
8041850c:	34638e39 	ori	v1,v1,0x8e39
80418510:	01030019 	multu	t0,v1
80418514:	3c07cccc 	lui	a3,0xcccc
80418518:	34e7cccd 	ori	a3,a3,0xcccd
8041851c:	00001810 	mfhi	v1
80418520:	00031842 	srl	v1,v1,0x1
80418524:	306900ff 	andi	t1,v1,0xff
80418528:	01270019 	multu	t1,a3
8041852c:	000310c0 	sll	v0,v1,0x3
80418530:	00431021 	addu	v0,v0,v1
80418534:	01024023 	subu	t0,t0,v0
80418538:	311100ff 	andi	s1,t0,0xff
8041853c:	00003810 	mfhi	a3
80418540:	00073882 	srl	a3,a3,0x2
80418544:	00071080 	sll	v0,a3,0x2
80418548:	00471021 	addu	v0,v0,a3
8041854c:	01224823 	subu	t1,t1,v0
80418550:	30f200ff 	andi	s2,a3,0xff
80418554:	0c106176 	jal	804185d8 <InStreamRead>
80418558:	313000ff 	andi	s0,t1,0xff
8041855c:	14400016 	bnez	v0,804185b8 <LzmaDecoderReadCoderProperties+0x104>
80418560:	00403821 	move	a3,v0
80418564:	8fa30014 	lw	v1,20(sp)
80418568:	24020004 	li	v0,4
8041856c:	02602021 	move	a0,s3
80418570:	14620011 	bne	v1,v0,804185b8 <LzmaDecoderReadCoderProperties+0x104>
80418574:	2407ffff 	li	a3,-1
80418578:	0c1058c0 	jal	80416300 <LzmaDecoderSetDictionarySize>
8041857c:	8fa50018 	lw	a1,24(sp)
80418580:	00403821 	move	a3,v0
80418584:	02002821 	move	a1,s0
80418588:	02203021 	move	a2,s1
8041858c:	1440000a 	bnez	v0,804185b8 <LzmaDecoderReadCoderProperties+0x104>
80418590:	02602021 	move	a0,s3
80418594:	0c1058ca 	jal	80416328 <LzmaDecoderSetLiteralProperties>
80418598:	00000000 	nop
8041859c:	00403821 	move	a3,v0
804185a0:	02602021 	move	a0,s3
804185a4:	14400004 	bnez	v0,804185b8 <LzmaDecoderReadCoderProperties+0x104>
804185a8:	02402821 	move	a1,s2
804185ac:	0c1058f1 	jal	804163c4 <LzmaDecoderSetPosBitsProperties>
804185b0:	00000000 	nop
804185b4:	00403821 	move	a3,v0
804185b8:	8fbf0030 	lw	ra,48(sp)
804185bc:	8fb3002c 	lw	s3,44(sp)
804185c0:	8fb20028 	lw	s2,40(sp)
804185c4:	8fb10024 	lw	s1,36(sp)
804185c8:	8fb00020 	lw	s0,32(sp)
804185cc:	00e01021 	move	v0,a3
804185d0:	03e00008 	jr	ra
804185d4:	27bd0038 	addiu	sp,sp,56

804185d8 <InStreamRead>:
804185d8:	8f838148 	lw	v1,-32440(gp)
804185dc:	0065102b 	sltu	v0,v1,a1
804185e0:	0062280b 	movn	a1,v1,v0
804185e4:	acc50000 	sw	a1,0(a2)
804185e8:	8f838144 	lw	v1,-32444(gp)
804185ec:	10a00007 	beqz	a1,8041860c <InStreamRead+0x34>
804185f0:	00a03021 	move	a2,a1
804185f4:	90620000 	lbu	v0,0(v1)
804185f8:	24c6ffff 	addiu	a2,a2,-1
804185fc:	24630001 	addiu	v1,v1,1
80418600:	a0820000 	sb	v0,0(a0)
80418604:	14c0fffb 	bnez	a2,804185f4 <InStreamRead+0x1c>
80418608:	24840001 	addiu	a0,a0,1
8041860c:	8f848148 	lw	a0,-32440(gp)
80418610:	8f838144 	lw	v1,-32444(gp)
80418614:	00001021 	move	v0,zero
80418618:	00852023 	subu	a0,a0,a1
8041861c:	00651821 	addu	v1,v1,a1
80418620:	af848148 	sw	a0,-32440(gp)
80418624:	03e00008 	jr	ra
80418628:	af838144 	sw	v1,-32444(gp)

8041862c <cfe_bootarea_init>:
8041862c:	8f82800c 	lw	v0,-32756(gp)
80418630:	3c041000 	lui	a0,0x1000
80418634:	3c031fff 	lui	v1,0x1fff
80418638:	00022d00 	sll	a1,v0,0x14
8041863c:	2c420101 	sltiu	v0,v0,257
80418640:	00a2200b 	movn	a0,a1,v0
80418644:	8f828010 	lw	v0,-32752(gp)
80418648:	3463ffff 	ori	v1,v1,0xffff
8041864c:	27bdffe8 	addiu	sp,sp,-24
80418650:	00432824 	and	a1,v0,v1
80418654:	8f828018 	lw	v0,-32744(gp)
80418658:	00852023 	subu	a0,a0,a1
8041865c:	afb00010 	sw	s0,16(sp)
80418660:	00431024 	and	v0,v0,v1
80418664:	0082202b 	sltu	a0,a0,v0
80418668:	2403f000 	li	v1,-4096
8041866c:	2442f001 	addiu	v0,v0,-4095
80418670:	00431024 	and	v0,v0,v1
80418674:	3c03fffc 	lui	v1,0xfffc
80418678:	afbf0014 	sw	ra,20(sp)
8041867c:	00438021 	addu	s0,v0,v1
80418680:	14800003 	bnez	a0,80418690 <cfe_bootarea_init+0x64>
80418684:	24a50fff 	addiu	a1,a1,4095
80418688:	2402f000 	li	v0,-4096
8041868c:	00a28024 	and	s0,a1,v0
80418690:	3c048042 	lui	a0,0x8042
80418694:	24842bec 	addiu	a0,a0,11244
80418698:	24050400 	li	a1,1024
8041869c:	24060400 	li	a2,1024
804186a0:	3c020004 	lui	v0,0x4
804186a4:	af90812c 	sw	s0,-32468(gp)
804186a8:	0c103064 	jal	8040c190 <kmalloc>
804186ac:	af828130 	sw	v0,-32464(gp)
804186b0:	000227c3 	sra	a0,v0,0x1f
804186b4:	00021cc2 	srl	v1,v0,0x13
804186b8:	00042340 	sll	a0,a0,0xd
804186bc:	00832025 	or	a0,a0,v1
804186c0:	00022b40 	sll	a1,v0,0xd
804186c4:	0c1004f1 	jal	804013c4 <_setcontext>
804186c8:	af828124 	sw	v0,-32476(gp)
804186cc:	8f848124 	lw	a0,-32476(gp)
804186d0:	02002821 	move	a1,s0
804186d4:	8fbf0014 	lw	ra,20(sp)
804186d8:	8fb00010 	lw	s0,16(sp)
804186dc:	08103013 	j	8040c04c <bcmcore_pagetable_init>
804186e0:	27bd0018 	addiu	sp,sp,24

804186e4 <lib_strdup>:
804186e4:	27bdffe0 	addiu	sp,sp,-32
804186e8:	afbf0018 	sw	ra,24(sp)
804186ec:	afb10014 	sw	s1,20(sp)
804186f0:	afb00010 	sw	s0,16(sp)
804186f4:	0c1033bf 	jal	8040cefc <lib_strlen>
804186f8:	00808021 	move	s0,a0
804186fc:	3c048042 	lui	a0,0x8042
80418700:	24842bec 	addiu	a0,a0,11244
80418704:	24450001 	addiu	a1,v0,1
80418708:	0c103064 	jal	8040c190 <kmalloc>
8041870c:	00003021 	move	a2,zero
80418710:	00408821 	move	s1,v0
80418714:	02002821 	move	a1,s0
80418718:	10400003 	beqz	v0,80418728 <lib_strdup+0x44>
8041871c:	00402021 	move	a0,v0
80418720:	0c10338e 	jal	8040ce38 <lib_strcpy>
80418724:	00000000 	nop
80418728:	02201021 	move	v0,s1
8041872c:	8fbf0018 	lw	ra,24(sp)
80418730:	8fb10014 	lw	s1,20(sp)
80418734:	8fb00010 	lw	s0,16(sp)
80418738:	03e00008 	jr	ra
8041873c:	27bd0020 	addiu	sp,sp,32

80418740 <lib_trimleading>:
80418740:	80830000 	lb	v1,0(a0)
80418744:	27bdffe8 	addiu	sp,sp,-24
80418748:	2402002f 	li	v0,47
8041874c:	afbf0010 	sw	ra,16(sp)
80418750:	14620003 	bne	v1,v0,80418760 <lib_trimleading+0x20>
80418754:	24850001 	addiu	a1,a0,1
80418758:	0c10338e 	jal	8040ce38 <lib_strcpy>
8041875c:	00000000 	nop
80418760:	8fbf0010 	lw	ra,16(sp)
80418764:	03e00008 	jr	ra
80418768:	27bd0018 	addiu	sp,sp,24

8041876c <lib_chop_filename>:
8041876c:	27bdffe0 	addiu	sp,sp,-32
80418770:	aca40000 	sw	a0,0(a1)
80418774:	2405003a 	li	a1,58
80418778:	afb10014 	sw	s1,20(sp)
8041877c:	afb00010 	sw	s0,16(sp)
80418780:	afbf0018 	sw	ra,24(sp)
80418784:	00808021 	move	s0,a0
80418788:	0c103424 	jal	8040d090 <lib_strchr>
8041878c:	00c08821 	move	s1,a2
80418790:	02002021 	move	a0,s0
80418794:	14400005 	bnez	v0,804187ac <lib_chop_filename+0x40>
80418798:	2405002f 	li	a1,47
8041879c:	0c103424 	jal	8040d090 <lib_strchr>
804187a0:	00000000 	nop
804187a4:	10400005 	beqz	v0,804187bc <lib_chop_filename+0x50>
804187a8:	00000000 	nop
804187ac:	a0400000 	sb	zero,0(v0)
804187b0:	24420001 	addiu	v0,v0,1
804187b4:	081061f0 	j	804187c0 <lib_chop_filename+0x54>
804187b8:	ae220000 	sw	v0,0(s1)
804187bc:	ae200000 	sw	zero,0(s1)
804187c0:	8fbf0018 	lw	ra,24(sp)
804187c4:	8fb10014 	lw	s1,20(sp)
804187c8:	8fb00010 	lw	s0,16(sp)
804187cc:	03e00008 	jr	ra
804187d0:	27bd0020 	addiu	sp,sp,32

804187d4 <eth_open>:
804187d4:	8c880000 	lw	t0,0(a0)
804187d8:	00001821 	move	v1,zero
804187dc:	8d020014 	lw	v0,20(t0)
804187e0:	10400006 	beqz	v0,804187fc <eth_open+0x28>
804187e4:	24020004 	li	v0,4
804187e8:	24630001 	addiu	v1,v1,1
804187ec:	28620004 	slti	v0,v1,4
804187f0:	1440fffa 	bnez	v0,804187dc <eth_open+0x8>
804187f4:	2508001c 	addiu	t0,t0,28
804187f8:	24020004 	li	v0,4
804187fc:	10620011 	beq	v1,v0,80418844 <eth_open+0x70>
80418800:	2409ffe7 	li	t1,-25
80418804:	24020001 	li	v0,1
80418808:	14a2000e 	bne	a1,v0,80418844 <eth_open+0x70>
8041880c:	2409ffed 	li	t1,-19
80418810:	90c20000 	lbu	v0,0(a2)
80418814:	00604821 	move	t1,v1
80418818:	a1020004 	sb	v0,4(t0)
8041881c:	90c30001 	lbu	v1,1(a2)
80418820:	240205dc 	li	v0,1500
80418824:	ad020010 	sw	v0,16(t0)
80418828:	a1030005 	sb	v1,5(t0)
8041882c:	ad05000c 	sw	a1,12(t0)
80418830:	8c830014 	lw	v1,20(a0)
80418834:	8fa20010 	lw	v0,16(sp)
80418838:	ad070014 	sw	a3,20(t0)
8041883c:	ad030000 	sw	v1,0(t0)
80418840:	ad020018 	sw	v0,24(t0)
80418844:	03e00008 	jr	ra
80418848:	01201021 	move	v0,t1

8041884c <eth_close>:
8041884c:	000510c0 	sll	v0,a1,0x3
80418850:	8c840000 	lw	a0,0(a0)
80418854:	00451023 	subu	v0,v0,a1
80418858:	00021080 	sll	v0,v0,0x2
8041885c:	00822021 	addu	a0,a0,v0
80418860:	ac80000c 	sw	zero,12(a0)
80418864:	ac800014 	sw	zero,20(a0)
80418868:	ac800000 	sw	zero,0(a0)
8041886c:	00002821 	move	a1,zero
80418870:	24840004 	addiu	a0,a0,4
80418874:	08103468 	j	8040d1a0 <lib_memset>
80418878:	24060008 	li	a2,8

8041887c <eth_free>:
8041887c:	00802821 	move	a1,a0
80418880:	8c840014 	lw	a0,20(a0)
80418884:	08103341 	j	8040cd04 <q_enqueue>
80418888:	24840004 	addiu	a0,a0,4

8041888c <eth_poll>:
8041888c:	27bdffe0 	addiu	sp,sp,-32
80418890:	afb10014 	sw	s1,20(sp)
80418894:	afbf001c 	sw	ra,28(sp)
80418898:	afb20018 	sw	s2,24(sp)
8041889c:	afb00010 	sw	s0,16(sp)
804188a0:	00808821 	move	s1,a0
804188a4:	0c103956 	jal	8040e558 <cfe_inpstat>
804188a8:	8c840014 	lw	a0,20(a0)
804188ac:	10400052 	beqz	v0,804189f8 <eth_poll+0x16c>
804188b0:	8fbf001c 	lw	ra,28(sp)
804188b4:	26320004 	addiu	s2,s1,4
804188b8:	0c10334d 	jal	8040cd34 <q_deqnext>
804188bc:	02402021 	move	a0,s2
804188c0:	1040004c 	beqz	v0,804189f4 <eth_poll+0x168>
804188c4:	00408021 	move	s0,v0
804188c8:	ac400008 	sw	zero,8(v0)
804188cc:	ac40000c 	sw	zero,12(v0)
804188d0:	8e240014 	lw	a0,20(s1)
804188d4:	24450024 	addiu	a1,v0,36
804188d8:	ac450020 	sw	a1,32(v0)
804188dc:	0c10390e 	jal	8040e438 <cfe_read>
804188e0:	240605ea 	li	a2,1514
804188e4:	1c400009 	bgtz	v0,8041890c <eth_poll+0x80>
804188e8:	00401821 	move	v1,v0
804188ec:	02402021 	move	a0,s2
804188f0:	02002821 	move	a1,s0
804188f4:	8fbf001c 	lw	ra,28(sp)
804188f8:	8fb20018 	lw	s2,24(sp)
804188fc:	8fb10014 	lw	s1,20(sp)
80418900:	8fb00010 	lw	s0,16(sp)
80418904:	08103341 	j	8040cd04 <q_enqueue>
80418908:	27bd0020 	addiu	sp,sp,32
8041890c:	8e050020 	lw	a1,32(s0)
80418910:	ae020008 	sw	v0,8(s0)
80418914:	ae00000c 	sw	zero,12(s0)
80418918:	ae110014 	sw	s1,20(s0)
8041891c:	ae000018 	sw	zero,24(s0)
80418920:	90a20006 	lbu	v0,6(a1)
80418924:	30420001 	andi	v0,v0,0x1
80418928:	1440002c 	bnez	v0,804189dc <eth_poll+0x150>
8041892c:	02002021 	move	a0,s0
80418930:	2c62003c 	sltiu	v0,v1,60
80418934:	1440002a 	bnez	v0,804189e0 <eth_poll+0x154>
80418938:	8fbf001c 	lw	ra,28(sp)
8041893c:	8e240000 	lw	a0,0(s1)
80418940:	00003021 	move	a2,zero
80418944:	24090001 	li	t1,1
80418948:	8c880014 	lw	t0,20(a0)
8041894c:	24c60001 	addiu	a2,a2,1
80418950:	1100000c 	beqz	t0,80418984 <eth_poll+0xf8>
80418954:	28c70004 	slti	a3,a2,4
80418958:	8c82000c 	lw	v0,12(a0)
8041895c:	14490009 	bne	v0,t1,80418984 <eth_poll+0xf8>
80418960:	00000000 	nop
80418964:	90830004 	lbu	v1,4(a0)
80418968:	90a2000c 	lbu	v0,12(a1)
8041896c:	14620005 	bne	v1,v0,80418984 <eth_poll+0xf8>
80418970:	00000000 	nop
80418974:	90830005 	lbu	v1,5(a0)
80418978:	90a2000d 	lbu	v0,13(a1)
8041897c:	10620005 	beq	v1,v0,80418994 <eth_poll+0x108>
80418980:	24a3000e 	addiu	v1,a1,14
80418984:	14e0fff0 	bnez	a3,80418948 <eth_poll+0xbc>
80418988:	2484001c 	addiu	a0,a0,28
8041898c:	08106277 	j	804189dc <eth_poll+0x150>
80418990:	02002021 	move	a0,s0
80418994:	8e020008 	lw	v0,8(s0)
80418998:	ae030020 	sw	v1,32(s0)
8041899c:	2442fff2 	addiu	v0,v0,-14
804189a0:	1080000d 	beqz	a0,804189d8 <eth_poll+0x14c>
804189a4:	ae020008 	sw	v0,8(s0)
804189a8:	8e230000 	lw	v1,0(s1)
804189ac:	3c02b6db 	lui	v0,0xb6db
804189b0:	34426db7 	ori	v0,v0,0x6db7
804189b4:	00831823 	subu	v1,a0,v1
804189b8:	00031883 	sra	v1,v1,0x2
804189bc:	70621802 	mul	v1,v1,v0
804189c0:	8c850018 	lw	a1,24(a0)
804189c4:	02002021 	move	a0,s0
804189c8:	0100f809 	jalr	t0
804189cc:	ae030010 	sw	v1,16(s0)
804189d0:	14400009 	bnez	v0,804189f8 <eth_poll+0x16c>
804189d4:	8fbf001c 	lw	ra,28(sp)
804189d8:	02002021 	move	a0,s0
804189dc:	8fbf001c 	lw	ra,28(sp)
804189e0:	8fb20018 	lw	s2,24(sp)
804189e4:	8fb10014 	lw	s1,20(sp)
804189e8:	8fb00010 	lw	s0,16(sp)
804189ec:	0810621f 	j	8041887c <eth_free>
804189f0:	27bd0020 	addiu	sp,sp,32
804189f4:	8fbf001c 	lw	ra,28(sp)
804189f8:	8fb20018 	lw	s2,24(sp)
804189fc:	8fb10014 	lw	s1,20(sp)
80418a00:	8fb00010 	lw	s0,16(sp)
80418a04:	03e00008 	jr	ra
80418a08:	27bd0020 	addiu	sp,sp,32

80418a0c <eth_gethwaddr>:
80418a0c:	2482000c 	addiu	v0,a0,12
80418a10:	24060006 	li	a2,6
80418a14:	00a02021 	move	a0,a1
80418a18:	0810345e 	j	8040d178 <lib_memcpy>
80418a1c:	00402821 	move	a1,v0

80418a20 <eth_sethwaddr>:
80418a20:	27bdffc8 	addiu	sp,sp,-56
80418a24:	afb1002c 	sw	s1,44(sp)
80418a28:	2491000c 	addiu	s1,a0,12
80418a2c:	afb00028 	sw	s0,40(sp)
80418a30:	24060006 	li	a2,6
80418a34:	00808021 	move	s0,a0
80418a38:	afbf0030 	sw	ra,48(sp)
80418a3c:	0c10345e 	jal	8040d178 <lib_memcpy>
80418a40:	02202021 	move	a0,s1
80418a44:	8e040014 	lw	a0,20(s0)
80418a48:	27a20020 	addiu	v0,sp,32
80418a4c:	afa20010 	sw	v0,16(sp)
80418a50:	02203021 	move	a2,s1
80418a54:	00001821 	move	v1,zero
80418a58:	00001021 	move	v0,zero
80418a5c:	24050002 	li	a1,2
80418a60:	24070006 	li	a3,6
80418a64:	afa3001c 	sw	v1,28(sp)
80418a68:	0c10393a 	jal	8040e4e8 <cfe_ioctl>
80418a6c:	afa20018 	sw	v0,24(sp)
80418a70:	8fbf0030 	lw	ra,48(sp)
80418a74:	8fb1002c 	lw	s1,44(sp)
80418a78:	8fb00028 	lw	s0,40(sp)
80418a7c:	03e00008 	jr	ra
80418a80:	27bd0038 	addiu	sp,sp,56

80418a84 <eth_setspeed>:
80418a84:	27bdffd0 	addiu	sp,sp,-48
80418a88:	afbf0028 	sw	ra,40(sp)
80418a8c:	8c840014 	lw	a0,20(a0)
80418a90:	27a20020 	addiu	v0,sp,32
80418a94:	afa50034 	sw	a1,52(sp)
80418a98:	afa20010 	sw	v0,16(sp)
80418a9c:	27a60034 	addiu	a2,sp,52
80418aa0:	00001821 	move	v1,zero
80418aa4:	00001021 	move	v0,zero
80418aa8:	24050004 	li	a1,4
80418aac:	24070004 	li	a3,4
80418ab0:	afa3001c 	sw	v1,28(sp)
80418ab4:	0c10393a 	jal	8040e4e8 <cfe_ioctl>
80418ab8:	afa20018 	sw	v0,24(sp)
80418abc:	8fbf0028 	lw	ra,40(sp)
80418ac0:	03e00008 	jr	ra
80418ac4:	27bd0030 	addiu	sp,sp,48

80418ac8 <eth_setloopback>:
80418ac8:	27bdffd0 	addiu	sp,sp,-48
80418acc:	afbf0028 	sw	ra,40(sp)
80418ad0:	8c840014 	lw	a0,20(a0)
80418ad4:	27a20020 	addiu	v0,sp,32
80418ad8:	afa50034 	sw	a1,52(sp)
80418adc:	afa20010 	sw	v0,16(sp)
80418ae0:	27a60034 	addiu	a2,sp,52
80418ae4:	00001821 	move	v1,zero
80418ae8:	00001021 	move	v0,zero
80418aec:	24050008 	li	a1,8
80418af0:	24070004 	li	a3,4
80418af4:	afa3001c 	sw	v1,28(sp)
80418af8:	0c10393a 	jal	8040e4e8 <cfe_ioctl>
80418afc:	afa20018 	sw	v0,24(sp)
80418b00:	8fbf0028 	lw	ra,40(sp)
80418b04:	03e00008 	jr	ra
80418b08:	27bd0030 	addiu	sp,sp,48

80418b0c <eth_getspeed>:
80418b0c:	27bdffd0 	addiu	sp,sp,-48
80418b10:	afbf0028 	sw	ra,40(sp)
80418b14:	8c840014 	lw	a0,20(a0)
80418b18:	27a20020 	addiu	v0,sp,32
80418b1c:	afa20010 	sw	v0,16(sp)
80418b20:	00a03021 	move	a2,a1
80418b24:	00001821 	move	v1,zero
80418b28:	00001021 	move	v0,zero
80418b2c:	24050003 	li	a1,3
80418b30:	24070004 	li	a3,4
80418b34:	afa3001c 	sw	v1,28(sp)
80418b38:	0c10393a 	jal	8040e4e8 <cfe_ioctl>
80418b3c:	afa20018 	sw	v0,24(sp)
80418b40:	8fbf0028 	lw	ra,40(sp)
80418b44:	03e00008 	jr	ra
80418b48:	27bd0030 	addiu	sp,sp,48

80418b4c <eth_getloopback>:
80418b4c:	27bdffd0 	addiu	sp,sp,-48
80418b50:	afbf0028 	sw	ra,40(sp)
80418b54:	8c840014 	lw	a0,20(a0)
80418b58:	27a20020 	addiu	v0,sp,32
80418b5c:	afa20010 	sw	v0,16(sp)
80418b60:	00a03021 	move	a2,a1
80418b64:	00001821 	move	v1,zero
80418b68:	00001021 	move	v0,zero
80418b6c:	24050007 	li	a1,7
80418b70:	24070004 	li	a3,4
80418b74:	afa3001c 	sw	v1,28(sp)
80418b78:	0c10393a 	jal	8040e4e8 <cfe_ioctl>
80418b7c:	afa20018 	sw	v0,24(sp)
80418b80:	8fbf0028 	lw	ra,40(sp)
80418b84:	03e00008 	jr	ra
80418b88:	27bd0030 	addiu	sp,sp,48

80418b8c <eth_send>:
80418b8c:	27bdffe0 	addiu	sp,sp,-32
80418b90:	afb10014 	sw	s1,20(sp)
80418b94:	afb00010 	sw	s0,16(sp)
80418b98:	afbf001c 	sw	ra,28(sp)
80418b9c:	afb20018 	sw	s2,24(sp)
80418ba0:	8c830010 	lw	v1,16(a0)
80418ba4:	8c920014 	lw	s2,20(a0)
80418ba8:	24060006 	li	a2,6
80418bac:	000310c0 	sll	v0,v1,0x3
80418bb0:	8e470000 	lw	a3,0(s2)
80418bb4:	00431023 	subu	v0,v0,v1
80418bb8:	00021080 	sll	v0,v0,0x2
80418bbc:	00e28821 	addu	s1,a3,v0
80418bc0:	8e23000c 	lw	v1,12(s1)
80418bc4:	24020001 	li	v0,1
80418bc8:	14620021 	bne	v1,v0,80418c50 <eth_send+0xc4>
80418bcc:	00808021 	move	s0,a0
80418bd0:	8c820020 	lw	v0,32(a0)
80418bd4:	2442fff2 	addiu	v0,v0,-14
80418bd8:	00402021 	move	a0,v0
80418bdc:	0c10345e 	jal	8040d178 <lib_memcpy>
80418be0:	ae020020 	sw	v0,32(s0)
80418be4:	8e020020 	lw	v0,32(s0)
80418be8:	2645000c 	addiu	a1,s2,12
80418bec:	24060006 	li	a2,6
80418bf0:	24420006 	addiu	v0,v0,6
80418bf4:	00402021 	move	a0,v0
80418bf8:	0c10345e 	jal	8040d178 <lib_memcpy>
80418bfc:	ae020020 	sw	v0,32(s0)
80418c00:	8e020020 	lw	v0,32(s0)
80418c04:	26250004 	addiu	a1,s1,4
80418c08:	24060002 	li	a2,2
80418c0c:	24420006 	addiu	v0,v0,6
80418c10:	00402021 	move	a0,v0
80418c14:	0c10345e 	jal	8040d178 <lib_memcpy>
80418c18:	ae020020 	sw	v0,32(s0)
80418c1c:	8e060008 	lw	a2,8(s0)
80418c20:	8e050020 	lw	a1,32(s0)
80418c24:	8fbf001c 	lw	ra,28(sp)
80418c28:	24c6000e 	addiu	a2,a2,14
80418c2c:	ae060008 	sw	a2,8(s0)
80418c30:	8e240000 	lw	a0,0(s1)
80418c34:	24a5fff4 	addiu	a1,a1,-12
80418c38:	ae050020 	sw	a1,32(s0)
80418c3c:	8fb20018 	lw	s2,24(sp)
80418c40:	8fb10014 	lw	s1,20(sp)
80418c44:	8fb00010 	lw	s0,16(sp)
80418c48:	08103930 	j	8040e4c0 <cfe_write>
80418c4c:	27bd0020 	addiu	sp,sp,32
80418c50:	0c10621f 	jal	8041887c <eth_free>
80418c54:	00000000 	nop
80418c58:	8fbf001c 	lw	ra,28(sp)
80418c5c:	8fb20018 	lw	s2,24(sp)
80418c60:	8fb10014 	lw	s1,20(sp)
80418c64:	8fb00010 	lw	s0,16(sp)
80418c68:	2402ffed 	li	v0,-19
80418c6c:	03e00008 	jr	ra
80418c70:	27bd0020 	addiu	sp,sp,32

80418c74 <eth_alloc>:
80418c74:	27bdffe0 	addiu	sp,sp,-32
80418c78:	afb20018 	sw	s2,24(sp)
80418c7c:	afb10014 	sw	s1,20(sp)
80418c80:	afb00010 	sw	s0,16(sp)
80418c84:	afbf001c 	sw	ra,28(sp)
80418c88:	8c830000 	lw	v1,0(a0)
80418c8c:	000510c0 	sll	v0,a1,0x3
80418c90:	00451023 	subu	v0,v0,a1
80418c94:	00021080 	sll	v0,v0,0x2
80418c98:	00808821 	move	s1,a0
80418c9c:	24840004 	addiu	a0,a0,4
80418ca0:	00a08021 	move	s0,a1
80418ca4:	0c10334d 	jal	8040cd34 <q_deqnext>
80418ca8:	00629021 	addu	s2,v1,v0
80418cac:	00402021 	move	a0,v0
80418cb0:	24460024 	addiu	a2,v0,36
80418cb4:	1080000d 	beqz	a0,80418cec <eth_alloc+0x78>
80418cb8:	00001021 	move	v0,zero
80418cbc:	ac900010 	sw	s0,16(a0)
80418cc0:	ac800008 	sw	zero,8(a0)
80418cc4:	ac80000c 	sw	zero,12(a0)
80418cc8:	8e43000c 	lw	v1,12(s2)
80418ccc:	24020001 	li	v0,1
80418cd0:	24850032 	addiu	a1,a0,50
80418cd4:	ac860020 	sw	a2,32(a0)
80418cd8:	14620002 	bne	v1,v0,80418ce4 <eth_alloc+0x70>
80418cdc:	ac910014 	sw	s1,20(a0)
80418ce0:	ac850020 	sw	a1,32(a0)
80418ce4:	ac800008 	sw	zero,8(a0)
80418ce8:	00801021 	move	v0,a0
80418cec:	8fbf001c 	lw	ra,28(sp)
80418cf0:	8fb20018 	lw	s2,24(sp)
80418cf4:	8fb10014 	lw	s1,20(sp)
80418cf8:	8fb00010 	lw	s0,16(sp)
80418cfc:	03e00008 	jr	ra
80418d00:	27bd0020 	addiu	sp,sp,32

80418d04 <eth_getmtu>:
80418d04:	8c830000 	lw	v1,0(a0)
80418d08:	000510c0 	sll	v0,a1,0x3
80418d0c:	00451023 	subu	v0,v0,a1
80418d10:	00021080 	sll	v0,v0,0x2
80418d14:	00621821 	addu	v1,v1,v0
80418d18:	03e00008 	jr	ra
80418d1c:	8c620010 	lw	v0,16(v1)

80418d20 <eth_init>:
80418d20:	27bdffc0 	addiu	sp,sp,-64
80418d24:	afb40038 	sw	s4,56(sp)
80418d28:	afbf003c 	sw	ra,60(sp)
80418d2c:	afb30034 	sw	s3,52(sp)
80418d30:	afb20030 	sw	s2,48(sp)
80418d34:	afb1002c 	sw	s1,44(sp)
80418d38:	0c1038cf 	jal	8040e33c <cfe_open>
80418d3c:	afb00028 	sw	s0,40(sp)
80418d40:	0040a021 	move	s4,v0
80418d44:	06800046 	bltz	s4,80418e60 <eth_init+0x140>
80418d48:	00001021 	move	v0,zero
80418d4c:	3c108042 	lui	s0,0x8042
80418d50:	26042bec 	addiu	a0,s0,11244
80418d54:	2405001c 	li	a1,28
80418d58:	0c103064 	jal	8040c190 <kmalloc>
80418d5c:	00003021 	move	a2,zero
80418d60:	14400005 	bnez	v0,80418d78 <eth_init+0x58>
80418d64:	00408821 	move	s1,v0
80418d68:	0c1038e8 	jal	8040e3a0 <cfe_close>
80418d6c:	02802021 	move	a0,s4
80418d70:	08106398 	j	80418e60 <eth_init+0x140>
80418d74:	00001021 	move	v0,zero
80418d78:	00402021 	move	a0,v0
80418d7c:	00002821 	move	a1,zero
80418d80:	0c103468 	jal	8040d1a0 <lib_memset>
80418d84:	2406001c 	li	a2,28
80418d88:	27a20020 	addiu	v0,sp,32
80418d8c:	00001821 	move	v1,zero
80418d90:	02802021 	move	a0,s4
80418d94:	24050001 	li	a1,1
80418d98:	2626000c 	addiu	a2,s1,12
80418d9c:	24070006 	li	a3,6
80418da0:	afa20010 	sw	v0,16(sp)
80418da4:	00001021 	move	v0,zero
80418da8:	afa3001c 	sw	v1,28(sp)
80418dac:	0c10393a 	jal	8040e4e8 <cfe_ioctl>
80418db0:	afa20018 	sw	v0,24(sp)
80418db4:	26042bec 	addiu	a0,s0,11244
80418db8:	24050070 	li	a1,112
80418dbc:	0c103064 	jal	8040c190 <kmalloc>
80418dc0:	00003021 	move	a2,zero
80418dc4:	14400005 	bnez	v0,80418ddc <eth_init+0xbc>
80418dc8:	ae220000 	sw	v0,0(s1)
80418dcc:	0c1038e8 	jal	8040e3a0 <cfe_close>
80418dd0:	02802021 	move	a0,s4
80418dd4:	08106387 	j	80418e1c <eth_init+0xfc>
80418dd8:	26042bec 	addiu	a0,s0,11244
80418ddc:	00402021 	move	a0,v0
80418de0:	00002821 	move	a1,zero
80418de4:	0c103468 	jal	8040d1a0 <lib_memset>
80418de8:	24060070 	li	a2,112
80418dec:	26042bec 	addiu	a0,s0,11244
80418df0:	240530a0 	li	a1,12448
80418df4:	0c103064 	jal	8040c190 <kmalloc>
80418df8:	00003021 	move	a2,zero
80418dfc:	1440000b 	bnez	v0,80418e2c <eth_init+0x10c>
80418e00:	ae220018 	sw	v0,24(s1)
80418e04:	0c1038e8 	jal	8040e3a0 <cfe_close>
80418e08:	02802021 	move	a0,s4
80418e0c:	8e250000 	lw	a1,0(s1)
80418e10:	0c103031 	jal	8040c0c4 <kfree>
80418e14:	26042bec 	addiu	a0,s0,11244
80418e18:	26042bec 	addiu	a0,s0,11244
80418e1c:	0c103031 	jal	8040c0c4 <kfree>
80418e20:	02202821 	move	a1,s1
80418e24:	08106398 	j	80418e60 <eth_init+0x140>
80418e28:	00001021 	move	v0,zero
80418e2c:	26320004 	addiu	s2,s1,4
80418e30:	ae320008 	sw	s2,8(s1)
80418e34:	ae320004 	sw	s2,4(s1)
80418e38:	00408021 	move	s0,v0
80418e3c:	24130007 	li	s3,7
80418e40:	02002821 	move	a1,s0
80418e44:	02402021 	move	a0,s2
80418e48:	0c103341 	jal	8040cd04 <q_enqueue>
80418e4c:	2673ffff 	addiu	s3,s3,-1
80418e50:	0661fffb 	bgez	s3,80418e40 <eth_init+0x120>
80418e54:	26100614 	addiu	s0,s0,1556
80418e58:	ae340014 	sw	s4,20(s1)
80418e5c:	02201021 	move	v0,s1
80418e60:	8fbf003c 	lw	ra,60(sp)
80418e64:	8fb40038 	lw	s4,56(sp)
80418e68:	8fb30034 	lw	s3,52(sp)
80418e6c:	8fb20030 	lw	s2,48(sp)
80418e70:	8fb1002c 	lw	s1,44(sp)
80418e74:	8fb00028 	lw	s0,40(sp)
80418e78:	03e00008 	jr	ra
80418e7c:	27bd0040 	addiu	sp,sp,64

80418e80 <eth_uninit>:
80418e80:	27bdffe0 	addiu	sp,sp,-32
80418e84:	afbf0018 	sw	ra,24(sp)
80418e88:	afb10014 	sw	s1,20(sp)
80418e8c:	afb00010 	sw	s0,16(sp)
80418e90:	00808821 	move	s1,a0
80418e94:	8c840014 	lw	a0,20(a0)
80418e98:	0c1038e8 	jal	8040e3a0 <cfe_close>
80418e9c:	3c108042 	lui	s0,0x8042
80418ea0:	8e250018 	lw	a1,24(s1)
80418ea4:	0c103031 	jal	8040c0c4 <kfree>
80418ea8:	26042bec 	addiu	a0,s0,11244
80418eac:	8e250000 	lw	a1,0(s1)
80418eb0:	0c103031 	jal	8040c0c4 <kfree>
80418eb4:	26042bec 	addiu	a0,s0,11244
80418eb8:	26042bec 	addiu	a0,s0,11244
80418ebc:	02202821 	move	a1,s1
80418ec0:	8fbf0018 	lw	ra,24(sp)
80418ec4:	8fb10014 	lw	s1,20(sp)
80418ec8:	8fb00010 	lw	s0,16(sp)
80418ecc:	08103031 	j	8040c0c4 <kfree>
80418ed0:	27bd0020 	addiu	sp,sp,32

80418ed4 <_udp_find_port>:
80418ed4:	30a5ffff 	andi	a1,a1,0xffff
80418ed8:	2484000c 	addiu	a0,a0,12
80418edc:	00001821 	move	v1,zero
80418ee0:	8c820010 	lw	v0,16(a0)
80418ee4:	24630001 	addiu	v1,v1,1
80418ee8:	10400006 	beqz	v0,80418f04 <_udp_find_port+0x30>
80418eec:	28660004 	slti	a2,v1,4
80418ef0:	94820002 	lhu	v0,2(a0)
80418ef4:	14450003 	bne	v0,a1,80418f04 <_udp_find_port+0x30>
80418ef8:	00801021 	move	v0,a0
80418efc:	03e00008 	jr	ra
80418f00:	00000000 	nop
80418f04:	14c0fff6 	bnez	a2,80418ee0 <_udp_find_port+0xc>
80418f08:	24840014 	addiu	a0,a0,20
80418f0c:	03e00008 	jr	ra
80418f10:	00001021 	move	v0,zero

80418f14 <_udp_socket>:
80418f14:	27bdffe0 	addiu	sp,sp,-32
80418f18:	afb20018 	sw	s2,24(sp)
80418f1c:	afb10014 	sw	s1,20(sp)
80418f20:	afb00010 	sw	s0,16(sp)
80418f24:	afbf001c 	sw	ra,28(sp)
80418f28:	00808821 	move	s1,a0
80418f2c:	0c1004eb 	jal	804013ac <_getticks>
80418f30:	30b2ffff 	andi	s2,a1,0xffff
80418f34:	30420fff 	andi	v0,v0,0xfff
80418f38:	081063d4 	j	80418f50 <_udp_socket+0x3c>
80418f3c:	24500400 	addiu	s0,v0,1024
80418f40:	3070ffff 	andi	s0,v1,0xffff
80418f44:	2e031401 	sltiu	v1,s0,5121
80418f48:	24020400 	li	v0,1024
80418f4c:	0043800a 	movz	s0,v0,v1
80418f50:	02002821 	move	a1,s0
80418f54:	0c1063b5 	jal	80418ed4 <_udp_find_port>
80418f58:	02202021 	move	a0,s1
80418f5c:	1440fff8 	bnez	v0,80418f40 <_udp_socket+0x2c>
80418f60:	26030001 	addiu	v1,s0,1
80418f64:	2624000c 	addiu	a0,s1,12
80418f68:	00002821 	move	a1,zero
80418f6c:	8c820010 	lw	v0,16(a0)
80418f70:	10400006 	beqz	v0,80418f8c <_udp_socket+0x78>
80418f74:	24020004 	li	v0,4
80418f78:	24a50001 	addiu	a1,a1,1
80418f7c:	28a20004 	slti	v0,a1,4
80418f80:	1440fffa 	bnez	v0,80418f6c <_udp_socket+0x58>
80418f84:	24840014 	addiu	a0,a0,20
80418f88:	24020004 	li	v0,4
80418f8c:	10a2000b 	beq	a1,v0,80418fbc <_udp_socket+0xa8>
80418f90:	2403ffe7 	li	v1,-25
80418f94:	24030002 	li	v1,2
80418f98:	24820004 	addiu	v0,a0,4
80418f9c:	ac83000c 	sw	v1,12(a0)
80418fa0:	24030001 	li	v1,1
80418fa4:	ac830010 	sw	v1,16(a0)
80418fa8:	ac820004 	sw	v0,4(a0)
80418fac:	a4920000 	sh	s2,0(a0)
80418fb0:	a4900002 	sh	s0,2(a0)
80418fb4:	ac820008 	sw	v0,8(a0)
80418fb8:	00a01821 	move	v1,a1
80418fbc:	8fbf001c 	lw	ra,28(sp)
80418fc0:	8fb20018 	lw	s2,24(sp)
80418fc4:	8fb10014 	lw	s1,20(sp)
80418fc8:	8fb00010 	lw	s0,16(sp)
80418fcc:	00601021 	move	v0,v1
80418fd0:	03e00008 	jr	ra
80418fd4:	27bd0020 	addiu	sp,sp,32

80418fd8 <_udp_close>:
80418fd8:	00051080 	sll	v0,a1,0x2
80418fdc:	00451021 	addu	v0,v0,a1
80418fe0:	00021080 	sll	v0,v0,0x2
80418fe4:	27bdffe0 	addiu	sp,sp,-32
80418fe8:	00821021 	addu	v0,a0,v0
80418fec:	afb10014 	sw	s1,20(sp)
80418ff0:	afb00010 	sw	s0,16(sp)
80418ff4:	afbf0018 	sw	ra,24(sp)
80418ff8:	00808821 	move	s1,a0
80418ffc:	08106403 	j	8041900c <_udp_close+0x34>
80419000:	2450000c 	addiu	s0,v0,12
80419004:	0c1048ee 	jal	804123b8 <_ip_free>
80419008:	8e240008 	lw	a0,8(s1)
8041900c:	0c10334d 	jal	8040cd34 <q_deqnext>
80419010:	26040004 	addiu	a0,s0,4
80419014:	1440fffb 	bnez	v0,80419004 <_udp_close+0x2c>
80419018:	00402821 	move	a1,v0
8041901c:	ae000010 	sw	zero,16(s0)
80419020:	a6000002 	sh	zero,2(s0)
80419024:	a6000000 	sh	zero,0(s0)
80419028:	ae00000c 	sw	zero,12(s0)
8041902c:	8fbf0018 	lw	ra,24(sp)
80419030:	8fb10014 	lw	s1,20(sp)
80419034:	8fb00010 	lw	s0,16(sp)
80419038:	03e00008 	jr	ra
8041903c:	27bd0020 	addiu	sp,sp,32

80419040 <_udp_send>:
80419040:	27bdffc0 	addiu	sp,sp,-64
80419044:	afbf0038 	sw	ra,56(sp)
80419048:	afb50034 	sw	s5,52(sp)
8041904c:	afb40030 	sw	s4,48(sp)
80419050:	afb3002c 	sw	s3,44(sp)
80419054:	afb10024 	sw	s1,36(sp)
80419058:	afb00020 	sw	s0,32(sp)
8041905c:	afb20028 	sw	s2,40(sp)
80419060:	0080a021 	move	s4,a0
80419064:	8cd20008 	lw	s2,8(a2)
80419068:	8c840008 	lw	a0,8(a0)
8041906c:	00058080 	sll	s0,a1,0x2
80419070:	00e0a821 	move	s5,a3
80419074:	02058021 	addu	s0,s0,a1
80419078:	27a50010 	addiu	a1,sp,16
8041907c:	00c09821 	move	s3,a2
80419080:	0c1048f0 	jal	804123c0 <_ip_getaddr>
80419084:	26520008 	addiu	s2,s2,8
80419088:	00108080 	sll	s0,s0,0x2
8041908c:	27a40014 	addiu	a0,sp,20
80419090:	02a02821 	move	a1,s5
80419094:	0c10345e 	jal	8040d178 <lib_memcpy>
80419098:	24060004 	li	a2,4
8041909c:	02908021 	addu	s0,s4,s0
804190a0:	00123a03 	sra	a3,s2,0x8
804190a4:	24020011 	li	v0,17
804190a8:	a3a7001a 	sb	a3,26(sp)
804190ac:	a3b2001b 	sb	s2,27(sp)
804190b0:	a3a20019 	sb	v0,25(sp)
804190b4:	a3a00018 	sb	zero,24(sp)
804190b8:	2605000c 	addiu	a1,s0,12
804190bc:	94a20002 	lhu	v0,2(a1)
804190c0:	8e630020 	lw	v1,32(s3)
804190c4:	00002021 	move	a0,zero
804190c8:	00021202 	srl	v0,v0,0x8
804190cc:	a062fff8 	sb	v0,-8(v1)
804190d0:	94a20002 	lhu	v0,2(a1)
804190d4:	2471fff8 	addiu	s1,v1,-8
804190d8:	27a50010 	addiu	a1,sp,16
804190dc:	a062fff9 	sb	v0,-7(v1)
804190e0:	9602000c 	lhu	v0,12(s0)
804190e4:	2406000c 	li	a2,12
804190e8:	00021202 	srl	v0,v0,0x8
804190ec:	a062fffa 	sb	v0,-6(v1)
804190f0:	9602000c 	lhu	v0,12(s0)
804190f4:	a067fffc 	sb	a3,-4(v1)
804190f8:	a072fffd 	sb	s2,-3(v1)
804190fc:	a060ffff 	sb	zero,-1(v1)
80419100:	a062fffb 	sb	v0,-5(v1)
80419104:	a060fffe 	sb	zero,-2(v1)
80419108:	8e620008 	lw	v0,8(s3)
8041910c:	ae710020 	sw	s1,32(s3)
80419110:	24420008 	addiu	v0,v0,8
80419114:	0c104758 	jal	80411d60 <ip_chksum>
80419118:	ae620008 	sw	v0,8(s3)
8041911c:	00402021 	move	a0,v0
80419120:	02202821 	move	a1,s1
80419124:	0c104758 	jal	80411d60 <ip_chksum>
80419128:	02403021 	move	a2,s2
8041912c:	00021027 	nor	v0,zero,v0
80419130:	3403ffff 	li	v1,0xffff
80419134:	3042ffff 	andi	v0,v0,0xffff
80419138:	0062100a 	movz	v0,v1,v0
8041913c:	00021a02 	srl	v1,v0,0x8
80419140:	a2220007 	sb	v0,7(s1)
80419144:	a2230006 	sb	v1,6(s1)
80419148:	8e840008 	lw	a0,8(s4)
8041914c:	02602821 	move	a1,s3
80419150:	02a03021 	move	a2,s5
80419154:	0c104775 	jal	80411dd4 <_ip_send>
80419158:	24070011 	li	a3,17
8041915c:	8fbf0038 	lw	ra,56(sp)
80419160:	8fb50034 	lw	s5,52(sp)
80419164:	8fb40030 	lw	s4,48(sp)
80419168:	8fb3002c 	lw	s3,44(sp)
8041916c:	8fb20028 	lw	s2,40(sp)
80419170:	8fb10024 	lw	s1,36(sp)
80419174:	8fb00020 	lw	s0,32(sp)
80419178:	00001021 	move	v0,zero
8041917c:	03e00008 	jr	ra
80419180:	27bd0040 	addiu	sp,sp,64

80419184 <_udp_bind>:
80419184:	00051080 	sll	v0,a1,0x2
80419188:	27bdffe0 	addiu	sp,sp,-32
8041918c:	00451021 	addu	v0,v0,a1
80419190:	afb10014 	sw	s1,20(sp)
80419194:	00021080 	sll	v0,v0,0x2
80419198:	30d1ffff 	andi	s1,a2,0xffff
8041919c:	00821021 	addu	v0,a0,v0
804191a0:	02202821 	move	a1,s1
804191a4:	afb00010 	sw	s0,16(sp)
804191a8:	afbf0018 	sw	ra,24(sp)
804191ac:	0c1063b5 	jal	80418ed4 <_udp_find_port>
804191b0:	2450000c 	addiu	s0,v0,12
804191b4:	14400003 	bnez	v0,804191c4 <_udp_bind+0x40>
804191b8:	2403ffe6 	li	v1,-26
804191bc:	a6110002 	sh	s1,2(s0)
804191c0:	00001821 	move	v1,zero
804191c4:	8fbf0018 	lw	ra,24(sp)
804191c8:	8fb10014 	lw	s1,20(sp)
804191cc:	8fb00010 	lw	s0,16(sp)
804191d0:	00601021 	move	v0,v1
804191d4:	03e00008 	jr	ra
804191d8:	27bd0020 	addiu	sp,sp,32

804191dc <_udp_connect>:
804191dc:	00051080 	sll	v0,a1,0x2
804191e0:	00451021 	addu	v0,v0,a1
804191e4:	00021080 	sll	v0,v0,0x2
804191e8:	00822021 	addu	a0,a0,v0
804191ec:	00001021 	move	v0,zero
804191f0:	03e00008 	jr	ra
804191f4:	a486000c 	sh	a2,12(a0)

804191f8 <_udp_rx_callback>:
804191f8:	27bdffc0 	addiu	sp,sp,-64
804191fc:	afb50034 	sw	s5,52(sp)
80419200:	afb40030 	sw	s4,48(sp)
80419204:	afb3002c 	sw	s3,44(sp)
80419208:	afb10024 	sw	s1,36(sp)
8041920c:	afbf0038 	sw	ra,56(sp)
80419210:	afb20028 	sw	s2,40(sp)
80419214:	afb00020 	sw	s0,32(sp)
80419218:	8cb00020 	lw	s0,32(a1)
8041921c:	00a08821 	move	s1,a1
80419220:	00c09821 	move	s3,a2
80419224:	92020006 	lbu	v0,6(s0)
80419228:	92030007 	lbu	v1,7(s0)
8041922c:	0080a021 	move	s4,a0
80419230:	00e0a821 	move	s5,a3
80419234:	00431025 	or	v0,v0,v1
80419238:	304200ff 	andi	v0,v0,0xff
8041923c:	00e02821 	move	a1,a3
80419240:	24060004 	li	a2,4
80419244:	27a40010 	addiu	a0,sp,16
80419248:	10400023 	beqz	v0,804192d8 <_udp_rx_callback+0xe0>
8041924c:	8e320008 	lw	s2,8(s1)
80419250:	0c10345e 	jal	8040d178 <lib_memcpy>
80419254:	00000000 	nop
80419258:	02602821 	move	a1,s3
8041925c:	27a40014 	addiu	a0,sp,20
80419260:	0c10345e 	jal	8040d178 <lib_memcpy>
80419264:	24060004 	li	a2,4
80419268:	00121a03 	sra	v1,s2,0x8
8041926c:	24020011 	li	v0,17
80419270:	a3a20019 	sb	v0,25(sp)
80419274:	a3a3001a 	sb	v1,26(sp)
80419278:	a3a00018 	sb	zero,24(sp)
8041927c:	a3b2001b 	sb	s2,27(sp)
80419280:	92020006 	lbu	v0,6(s0)
80419284:	92030007 	lbu	v1,7(s0)
80419288:	00002021 	move	a0,zero
8041928c:	00021200 	sll	v0,v0,0x8
80419290:	27a50010 	addiu	a1,sp,16
80419294:	2406000c 	li	a2,12
80419298:	a2000006 	sb	zero,6(s0)
8041929c:	a2000007 	sb	zero,7(s0)
804192a0:	0c104758 	jal	80411d60 <ip_chksum>
804192a4:	00439825 	or	s3,v0,v1
804192a8:	00402021 	move	a0,v0
804192ac:	02002821 	move	a1,s0
804192b0:	0c104758 	jal	80411d60 <ip_chksum>
804192b4:	02403021 	move	a2,s2
804192b8:	00401821 	move	v1,v0
804192bc:	00022027 	nor	a0,zero,v0
804192c0:	3402ffff 	li	v0,0xffff
804192c4:	10620002 	beq	v1,v0,804192d0 <_udp_rx_callback+0xd8>
804192c8:	00000000 	nop
804192cc:	3083ffff 	andi	v1,a0,0xffff
804192d0:	14730037 	bne	v1,s3,804193b0 <_udp_rx_callback+0x1b8>
804192d4:	00003821 	move	a3,zero
804192d8:	8e290020 	lw	t1,32(s1)
804192dc:	8e280008 	lw	t0,8(s1)
804192e0:	02802021 	move	a0,s4
804192e4:	25230002 	addiu	v1,t1,2
804192e8:	2502fffe 	addiu	v0,t0,-2
804192ec:	ae220008 	sw	v0,8(s1)
804192f0:	ae230020 	sw	v1,32(s1)
804192f4:	25220004 	addiu	v0,t1,4
804192f8:	2505fffc 	addiu	a1,t0,-4
804192fc:	906bffff 	lbu	t3,-1(v1)
80419300:	9067fffe 	lbu	a3,-2(v1)
80419304:	2506fffa 	addiu	a2,t0,-6
80419308:	ae250008 	sw	a1,8(s1)
8041930c:	ae220020 	sw	v0,32(s1)
80419310:	25230006 	addiu	v1,t1,6
80419314:	904affff 	lbu	t2,-1(v0)
80419318:	9045fffe 	lbu	a1,-2(v0)
8041931c:	ae260008 	sw	a2,8(s1)
80419320:	ae230020 	sw	v1,32(s1)
80419324:	9062fffe 	lbu	v0,-2(v1)
80419328:	9063ffff 	lbu	v1,-1(v1)
8041932c:	00073a00 	sll	a3,a3,0x8
80419330:	00021200 	sll	v0,v0,0x8
80419334:	00052a00 	sll	a1,a1,0x8
80419338:	2508fff8 	addiu	t0,t0,-8
8041933c:	25290008 	addiu	t1,t1,8
80419340:	324cffff 	andi	t4,s2,0xffff
80419344:	0043a025 	or	s4,v0,v1
80419348:	00eb9825 	or	s3,a3,t3
8041934c:	00aa2825 	or	a1,a1,t2
80419350:	ae280008 	sw	t0,8(s1)
80419354:	ae290020 	sw	t1,32(s1)
80419358:	168c0015 	bne	s4,t4,804193b0 <_udp_rx_callback+0x1b8>
8041935c:	00003821 	move	a3,zero
80419360:	0c1063b5 	jal	80418ed4 <_udp_find_port>
80419364:	00000000 	nop
80419368:	24520004 	addiu	s2,v0,4
8041936c:	00408021 	move	s0,v0
80419370:	02402021 	move	a0,s2
80419374:	1040000e 	beqz	v0,804193b0 <_udp_rx_callback+0x1b8>
80419378:	00003821 	move	a3,zero
8041937c:	ae330018 	sw	s3,24(s1)
80419380:	0c103377 	jal	8040cddc <q_count>
80419384:	ae35001c 	sw	s5,28(s1)
80419388:	8e03000c 	lw	v1,12(s0)
8041938c:	2686fff8 	addiu	a2,s4,-8
80419390:	02402021 	move	a0,s2
80419394:	0043102a 	slt	v0,v0,v1
80419398:	02202821 	move	a1,s1
8041939c:	10400004 	beqz	v0,804193b0 <_udp_rx_callback+0x1b8>
804193a0:	00003821 	move	a3,zero
804193a4:	0c103341 	jal	8040cd04 <q_enqueue>
804193a8:	ae260008 	sw	a2,8(s1)
804193ac:	24070001 	li	a3,1
804193b0:	8fbf0038 	lw	ra,56(sp)
804193b4:	8fb50034 	lw	s5,52(sp)
804193b8:	8fb40030 	lw	s4,48(sp)
804193bc:	8fb3002c 	lw	s3,44(sp)
804193c0:	8fb20028 	lw	s2,40(sp)
804193c4:	8fb10024 	lw	s1,36(sp)
804193c8:	8fb00020 	lw	s0,32(sp)
804193cc:	00e01021 	move	v0,a3
804193d0:	03e00008 	jr	ra
804193d4:	27bd0040 	addiu	sp,sp,64

804193d8 <_udp_recv>:
804193d8:	00051080 	sll	v0,a1,0x2
804193dc:	00451021 	addu	v0,v0,a1
804193e0:	00021080 	sll	v0,v0,0x2
804193e4:	00822021 	addu	a0,a0,v0
804193e8:	0810334d 	j	8040cd34 <q_deqnext>
804193ec:	24840010 	addiu	a0,a0,16

804193f0 <_udp_init>:
804193f0:	27bdffe0 	addiu	sp,sp,-32
804193f4:	afb20018 	sw	s2,24(sp)
804193f8:	00809021 	move	s2,a0
804193fc:	3c048042 	lui	a0,0x8042
80419400:	afb10014 	sw	s1,20(sp)
80419404:	24842bec 	addiu	a0,a0,11244
80419408:	00a08821 	move	s1,a1
8041940c:	00003021 	move	a2,zero
80419410:	afb00010 	sw	s0,16(sp)
80419414:	afbf001c 	sw	ra,28(sp)
80419418:	0c103064 	jal	8040c190 <kmalloc>
8041941c:	2405005c 	li	a1,92
80419420:	00408021 	move	s0,v0
80419424:	12000017 	beqz	s0,80419484 <_udp_init+0x94>
80419428:	00001021 	move	v0,zero
8041942c:	02002021 	move	a0,s0
80419430:	00002821 	move	a1,zero
80419434:	0c103468 	jal	8040d1a0 <lib_memset>
80419438:	2406005c 	li	a2,92
8041943c:	ae110004 	sw	s1,4(s0)
80419440:	ae120008 	sw	s2,8(s0)
80419444:	2603000c 	addiu	v1,s0,12
80419448:	24040003 	li	a0,3
8041944c:	24620004 	addiu	v0,v1,4
80419450:	2484ffff 	addiu	a0,a0,-1
80419454:	ac620004 	sw	v0,4(v1)
80419458:	ac600010 	sw	zero,16(v1)
8041945c:	ac620008 	sw	v0,8(v1)
80419460:	0481fffa 	bgez	a0,8041944c <_udp_init+0x5c>
80419464:	24630014 	addiu	v1,v1,20
80419468:	3c068042 	lui	a2,0x8042
8041946c:	02402021 	move	a0,s2
80419470:	24c691f8 	addiu	a2,a2,-28168
80419474:	24050011 	li	a1,17
80419478:	0c104967 	jal	8041259c <_ip_register>
8041947c:	02003821 	move	a3,s0
80419480:	02001021 	move	v0,s0
80419484:	8fbf001c 	lw	ra,28(sp)
80419488:	8fb20018 	lw	s2,24(sp)
8041948c:	8fb10014 	lw	s1,20(sp)
80419490:	8fb00010 	lw	s0,16(sp)
80419494:	03e00008 	jr	ra
80419498:	27bd0020 	addiu	sp,sp,32

8041949c <_udp_uninit>:
8041949c:	27bdffe0 	addiu	sp,sp,-32
804194a0:	afb20018 	sw	s2,24(sp)
804194a4:	afb10014 	sw	s1,20(sp)
804194a8:	afb00010 	sw	s0,16(sp)
804194ac:	afbf001c 	sw	ra,28(sp)
804194b0:	00808821 	move	s1,a0
804194b4:	8c840008 	lw	a0,8(a0)
804194b8:	24050011 	li	a1,17
804194bc:	0c10497b 	jal	804125ec <_ip_deregister>
804194c0:	2630000c 	addiu	s0,s1,12
804194c4:	24120003 	li	s2,3
804194c8:	8e020010 	lw	v0,16(s0)
804194cc:	10400009 	beqz	v0,804194f4 <_udp_uninit+0x58>
804194d0:	00000000 	nop
804194d4:	08106539 	j	804194e4 <_udp_uninit+0x48>
804194d8:	00000000 	nop
804194dc:	0c1048ee 	jal	804123b8 <_ip_free>
804194e0:	8e240008 	lw	a0,8(s1)
804194e4:	0c10334d 	jal	8040cd34 <q_deqnext>
804194e8:	26040004 	addiu	a0,s0,4
804194ec:	1440fffb 	bnez	v0,804194dc <_udp_uninit+0x40>
804194f0:	00402821 	move	a1,v0
804194f4:	2652ffff 	addiu	s2,s2,-1
804194f8:	0641fff3 	bgez	s2,804194c8 <_udp_uninit+0x2c>
804194fc:	26100014 	addiu	s0,s0,20
80419500:	3c048042 	lui	a0,0x8042
80419504:	02202821 	move	a1,s1
80419508:	8fbf001c 	lw	ra,28(sp)
8041950c:	8fb20018 	lw	s2,24(sp)
80419510:	8fb10014 	lw	s1,20(sp)
80419514:	8fb00010 	lw	s0,16(sp)
80419518:	24842bec 	addiu	a0,a0,11244
8041951c:	08103031 	j	8040c0c4 <kfree>
80419520:	27bd0020 	addiu	sp,sp,32

80419524 <_udp_alloc>:
80419524:	27bdffe8 	addiu	sp,sp,-24
80419528:	afbf0010 	sw	ra,16(sp)
8041952c:	0c104747 	jal	80411d1c <_ip_alloc>
80419530:	8c840008 	lw	a0,8(a0)
80419534:	00401821 	move	v1,v0
80419538:	10400006 	beqz	v0,80419554 <_udp_alloc+0x30>
8041953c:	00002021 	move	a0,zero
80419540:	8c420020 	lw	v0,32(v0)
80419544:	ac600008 	sw	zero,8(v1)
80419548:	00602021 	move	a0,v1
8041954c:	24420008 	addiu	v0,v0,8
80419550:	ac620020 	sw	v0,32(v1)
80419554:	8fbf0010 	lw	ra,16(sp)
80419558:	00801021 	move	v0,a0
8041955c:	03e00008 	jr	ra
80419560:	27bd0018 	addiu	sp,sp,24

80419564 <_udp_free>:
80419564:	081048ee 	j	804123b8 <_ip_free>
80419568:	8c840008 	lw	a0,8(a0)

8041956c <bcm6348_enet>:
8041956c:	80419e6c 80419e80 00000001 80419580     .A.l.A.......A..
8041957c:	80401a3c                                .@.<

80419580 <bcm6348_ether_dispatch>:
80419580:	80401730 80401738 8040187c 804018e8     .@.0.@.8.@.|.@..
80419590:	80401f94 80401fd8 00000000 00000000     .@...@..........
804195a0:	80402d08 80402cfc 80402cf0 80402ce4     .@-..@,..@,..@,.
804195b0:	80402cd8                                .@,.

804195b4 <bcm63xx_uart>:
804195b4:	8041a180 8041a190 00000004 804195c8     .A...A.......A..
804195c4:	80402e88                                .@..

804195c8 <bcm63xx_uart_dispatch>:
804195c8:	80402f04 80402f58 80402fe0 80402ffc     .@/..@/X.@/..@/.
804195d8:	80403084 80403110 00000000 00000000     .@0..@1.........
804195e8:	00000000 80404920 8040492c 80404938     .....@I .@I,.@I8
804195f8:	80404944 80404938 8040492c 00000000     .@ID.@I8.@I,....
80419608:	00000000                                ....

8041960c <rawloader>:
8041960c:	8041b524 80407718 00000000              .A.$.@w.....

80419618 <elfloader>:
80419618:	8041b538 804079cc 00000000 80408258     .A.8.@y......@.X
80419628:	80408260 80408268 80408260 80408258     .@.`.@.h.@.`.@.X
80419638:	8040a6b4 8040a6bc 8040a6d4 8040a6e4     .@...@...@...@..
80419648:	8040a704 8040a720 8040a734 8040a784     .@...@. .@.4.@..
80419658:	8040a78c 8040a794 8040a8bc 8040a79c     .@...@...@...@..
80419668:	8040a8bc 8040a7c0 8040a804 8040a66c     .@...@...@...@.l
80419678:	8040a824 8040a8bc 8040a84c 8040a8bc     .@.$.@...@.L.@..
80419688:	8040a88c 224a414d 3239444c 38303054     .@.."JAM29DL800T
	...
804196ac:	22cb414d 3239444c 38303042 00000000     ".AM29DL800B....
	...
804196cc:	22da414d 32394c56 38303054 00000000     ".AM29LV800T....
	...
804196ec:	225b414d 32394c56 38303042 00000000     "[AM29LV800B....
	...
8041970c:	22ba414d 32394c56 34303042 00000000     ".AM29LV400B....
	...
8041972c:	223b414d 32394c56 32303042 54000000     ";AM29LV200BT...
	...
8041974c:	2249414d 32394c56 31363042 00000000     "IAM29LV160B....
	...
8041976c:	22c4414d 32394c56 31363054 00000000     ".AM29LV160T....
	...
8041978c:	22f6414d 32394c56 33323054 00000000     ".AM29LV320T....
	...
804197ac:	22a74d58 32394c56 33323041 54000000     ".MX29LV320AT...
	...
804197cc:	22f9414d 32394c56 33323042 00000000     ".AM29LV320B....
	...
804197ec:	22a84d58 32394c56 33323041 42000000     ".MX29LV320AB...
	...
8041980c:	227e414d 32394c56 3332304d 00000000     "~AM29LV320M....
	...
8041982c:	2200414d 32394c56 3332304d 42000000     ".AM29LV320MB...
	...
8041984c:	2201414d 32394c56 3332304d 54000000     ".AM29LV320MT...
	...
8041986c:	22c94d58 32394c56 36343042 54000000     ".MX29LV640BT...
	...
8041988c:	27895353 54333956 46323030 41000000     '.SST39VF200A...
	...
804198ac:	27805353 54333956 46343030 41000000     '.SST39VF400A...
	...
804198cc:	27815353 54333956 46383030 41000000     '.SST39VF800A...
	...
804198ec:	234b5353 54333956 46313630 31000000     #KSST39VF1601...
	...
8041990c:	235b5353 54333956 46333230 31000000     #[SST39VF3201...
	...
8041992c:	88c24932 38463136 30433354 00000000     ..I28F160C3T....
	...
8041994c:	88c34932 38463136 30433342 00000000     ..I28F160C3B....
	...
8041996c:	88c44932 38463332 30433354 00000000     ..I28F320C3T....
	...
8041998c:	88c54932 38463332 30433342 00000000     ..I28F320C3B....
	...
804199ac:	89164932 38463634 304a3300 00000000     ..I28F640J3.....
	...

804199ec <ldigits>:
804199ec:	30313233 34353637 38396162 63646566     0123456789abcdef
804199fc:	00000000                                ....

80419a00 <digits>:
80419a00:	30313233 34353637 38394142 43444546     0123456789ABCDEF
80419a10:	00000000                                ....

80419a14 <cfe_cmd_dispatch_table>:
80419a14:	00000050 00000000 8040dd88 00000004     ...P.....@......
80419a24:	00000000 8040de34 00000018 00000000     .....@.4........
80419a34:	8040de7c 00000018 00000000 8040de84     .@.|.........@..
80419a44:	00000008 00000000 8040de8c 00000018     .........@......
80419a54:	00000000 8040dec4 00000000 00000000     .....@..........
80419a64:	8040df44 ffffffff 00000000 00000000     .@.D............
80419a74:	ffffffff 00000000 00000000 00000000     ................
80419a84:	00000000 8040df6c 00000014 00000000     .....@.l........
80419a94:	8040df64 00000018 00000000 8040df98     .@.d.........@..
80419aa4:	00000004 00000001 8040e0e0 00000018     .........@......
80419ab4:	00000001 8040e0f4 00000018 00000001     .....@..........
80419ac4:	8040e108 00000018 00000001 8040e11c     .@...........@..
80419ad4:	00000000 00000001 8040e130 00000018     .........@.0....
80419ae4:	00000000 8040e1a8 ffffffff 00000000     .....@..........
80419af4:	00000000 ffffffff 00000000 00000000     ................
80419b04:	00000014 00000000 8040e210 ffffffff     .........@......
	...
80419b1c:	00000014 00000000 8040e260 00000014     .........@.`....
80419b2c:	00000000 8040e2a8 00000014 00000000     .....@..........
80419b3c:	8040e310 ffffffff 00000000 00000000     .@..............
80419b4c:	ffffffff 00000000 00000000 ffffffff     ................
	...
80419b64:	ffffffff 00000000 00000000 ffffffff     ................
	...
80419b7c:	ffffffff 00000000 00000000 ffffffff     ................
	...

80419b94 <cfe_xcmd_dispatch_table>:
80419b94:	00000050 00000050 00000007 00000008     ...P...P........
80419ba4:	00000004 00000008 00000028 00000018     ...........(....
80419bb4:	00000001 00000030 00000018 00000002     .......0........
80419bc4:	00000008 00000008 00000006 00000020     ............... 
80419bd4:	00000018 00000003 00000000 00000000     ................
80419be4:	00000000 ffffffff 00000000 00000000     ................
80419bf4:	ffffffff 00000000 00000000 00000000     ................
	...
80419c0c:	00000028 00000014 00000004 00000028     ...(...........(
80419c1c:	00000018 00000001 00000008 00000004     ................
80419c2c:	00000005 00000028 00000018 00000001     .......(........
80419c3c:	00000028 00000018 00000001 00000028     ...(...........(
80419c4c:	00000018 00000001 00000000 00000000     ................
80419c5c:	00000000 00000028 00000018 00000001     .......(........
80419c6c:	ffffffff 00000000 00000000 ffffffff     ................
	...
80419c84:	00000028 00000014 00000004 ffffffff     ...(............
	...
80419c9c:	00000028 00000014 00000004 00000028     ...(...........(
80419cac:	00000014 00000004 00000028 00000014     ...........(....
80419cbc:	00000004 ffffffff 00000000 00000000     ................
80419ccc:	ffffffff 00000000 00000000 ffffffff     ................
	...
80419ce4:	ffffffff 00000000 00000000 ffffffff     ................
	...
80419cfc:	ffffffff 00000000 00000000 ffffffff     ................
	...
80419d14:	8040f2f0 8040f314 8040f348 8040f37c     .@...@...@.H.@.|
80419d24:	8040f3b8 8040f3a8 8040f3c0 8040f3b8     .@...@...@...@..
80419d34:	8040f3f4 8040f440 8040f474 8040f4c0     .@...@.@.@.t.@..
80419d44:	8040f5cc 8040f520 8040f528 8040f5cc     .@...@. .@.(.@..
80419d54:	00000000                                ....

80419d58 <tftp_fileops>:
80419d58:	8041a9f4 40000008 8041139c 804113e4     .A..@....A...A..
80419d68:	804117a8 80411a18 80411b04 80411b90     .A...A...A...A..
80419d78:	80411d0c 804123fc 80412404 8041240c     .A...A#..A$..A$.
80419d88:	80412414 8041241c 80412424 8041242c     .A$..A$..A$$.A$,
80419d98:	80412434 80412434 80412488 804124a4     .A$4.A$4.A$..A$.
80419da8:	804124ac 804124b4 80412534 804124cc     .A$..A$..A%4.A$.
80419db8:	80412500 8041255c 80412570 8041518c     .A%..A%\.A%p.AQ.
80419dc8:	8041518c 8041518c 80415184 80415184     .AQ..AQ..AQ..AQ.
80419dd8:	804151ac 8041561c 80415670 80415720     .AQ..AV..AVp.AW 
80419de8:	804157a4 80415b34 804157a4 804157a4     .AW..A[4.AW..AW.
80419df8:	80415a58 80415ab0 80415af8              .AZX.AZ..AZ.

80419e04 <kDistDirectBits>:
80419e04:	00000000 01010202 03030404 05050606     ................
80419e14:	07070808 09090a0a 0b0b0c0c 0d0d0e0e     ................
80419e24:	0f0f1010 11111212 13131414 15151616     ................
80419e34:	17171818 19191a1a                       ........

80419e3c <kLiteralNextStates>:
80419e3c:	00000000 01020304 05060405              ............

80419e48 <kShortRepNextStates>:
80419e48:	09090909 0909090b 0b0b0b0b              ............

80419e54 <kRepNextStates>:
80419e54:	08080808 0808080b 0b0b0b0b              ............

80419e60 <kMatchNextStates>:
80419e60:	07070707 0707070a 0a0a0a0a 42434d36     ............BCM6
80419e70:	33343820 45746865 726e6574 00000000     348 Ethernet....
80419e80:	65746800 4e6f2063 6f6e7465 78740a00     eth.No context..
80419e90:	4e6f2064 73742062 75666665 720a0000     No dst buffer...
80419ea0:	64737420 62756666 65722074 6f6f2073     dst buffer too s
80419eb0:	6d616c6c 2e0a0000 61637475 616c2073     mall....actual s
80419ec0:	697a6520 69732025 640a0000 736f6674     ize is %d...soft
80419ed0:	63206861 73206e6f 74206265 656e2069     c has not been i
80419ee0:	6e697469 616c697a 65642e0a 00000000     nitialized......
80419ef0:	646d6146 6c616720 28726574 75726e20     dmaFlag (return 
80419f00:	2d31295b 25303478 5d0a0000 4e6f2069     -1)[%04x]...No i
80419f10:	6e707374 61742062 75666665 720a0000     npstat buffer...
80419f20:	73726320 62756666 65722074 6f6f206c     src buffer too l
80419f30:	61726765 2e0a0000 73697a65 20697320     arge....size is 
80419f40:	25640a00 4e6f2074 78204244 20617661     %d..No tx BD ava
80419f50:	696c6162 6c65203f 210a0000 42434d36     ilable ?!...BCM6
80419f60:	33343820 3a204661 696c6564 20746f20     348 : Failed to 
80419f70:	616c6c6f 63617465 20736f66 7463206d     allocate softc m
80419f80:	656d6f72 792e0a00 42434d36 33343820     emory...BCM6348 
80419f90:	3a204661 696c6564 20746f20 616c6c6f     : Failed to allo
80419fa0:	63617465 20747842 6473206d 656d6f72     cate txBds memor
80419fb0:	792e0a00 42434d36 33343820 3a204661     y...BCM6348 : Fa
80419fc0:	696c6564 20746f20 616c6c6f 63617465     iled to allocate
80419fd0:	20727842 6473206d 656d6f72 792e0a00      rxBds memory...
80419fe0:	42434d36 33343820 3a204661 696c6564     BCM6348 : Failed
80419ff0:	20746f20 616c6c6f 63617465 20527842      to allocate RxB
8041a000:	75666665 72206d65 6d6f7279 2e0a0000     uffer memory....
8041a010:	42434d36 33343820 3a204661 696c6564     BCM6348 : Failed
8041a020:	20746f20 616c6c6f 63617465 20747842      to allocate txB
8041a030:	75666665 72206d65 6d6f7279 2e0a0000     uffer memory....
8041a040:	4661696c 65642069 6e697469 616c697a     Failed initializ
8041a050:	696e6720 656e6574 20686172 64776172     ing enet hardwar
8041a060:	650a0000 4175746f 2d6e6567 6f746961     e...Auto-negotia
8041a070:	74696f6e 2074696d 65642d6f 75740a00     tion timed-out..
8041a080:	31303020 4d422046 756c6c2d 4475706c     100 MB Full-Dupl
8041a090:	65782028 6175746f 2d6e6567 290a0000     ex (auto-neg)...
8041a0a0:	31303020 4d422048 616c662d 4475706c     100 MB Half-Dupl
8041a0b0:	65782028 6175746f 2d6e6567 290a0000     ex (auto-neg)...
8041a0c0:	3130204d 42204675 6c6c2d44 75706c65     10 MB Full-Duple
8041a0d0:	78202861 75746f2d 6e656729 0a000000     x (auto-neg)....
8041a0e0:	3130204d 42204861 6c662d44 75706c65     10 MB Half-Duple
8041a0f0:	78202861 7373756d 6564290a 00000000     x (assumed).....
8041a100:	556e6b6e 6f776e20 50485920 74797065     Unknown PHY type
8041a110:	0a000000 556e6b6e 6f776e20 50485920     ....Unknown PHY 
8041a120:	636f6e66 69677572 6174696f 6e207479     configuration ty
8041a130:	70650a00 6572726f 72206f6e 20457468     pe..error on Eth
8041a140:	65726e65 74205377 69746368 20736574     ernet Switch set
8041a150:	75700a00 6572726f 72206f6e 20457468     up..error on Eth
8041a160:	65726e65 74205377 69746368 20726576     ernet Switch rev
8041a170:	65727365 204d4949 20736574 75700a00     erse MII setup..
8041a180:	42434d36 33787820 44554152 54000000     BCM63xx DUART...
8041a190:	75617274 00000000 25732063 68616e6e     uart....%s chann
8041a1a0:	656c2025 64000000 6661696c 65642074     el %d...failed t
8041a1b0:	6f20616c 6c6f6361 7465206d 656d6f72     o allocate memor
8041a1c0:	79207769 74682073 697a653a 2025640a     y with size: %d.
8041a1d0:	00000000 4572726f 72207772 6974696e     ....Error writin
8041a1e0:	6720666c 61736820 73656374 6f722025     g flash sector %
8041a1f0:	642e0000 4661696c 65642074 6f20616c     d...Failed to al
8041a200:	6c6f6361 7465206d 656d6f72 79207769     locate memory wi
8041a210:	74682073 697a653a 2025640a 00000000     th size: %d.....
8041a220:	4661696c 65642074 6f20666c 61736820     Failed to flash 
8041a230:	74686520 6d656d6f 72792074 7970650a     the memory type.
8041a240:	00000000 496d6167 65206973 20746f6f     ....Image is too
8041a250:	20626967 0a000000 50617261 6c6c656c      big....Parallel
8041a260:	00000000 25732066 6c617368 20646576     ....%s flash dev
8041a270:	6963653a 206e616d 65202573 2c206964     ice: name %s, id
8041a280:	20307825 342e3478 2c207369 7a652025      0x%4.4x, size %
8041a290:	644b420a 00000000 50617261 6c6c656c     dKB.....Parallel
8041a2a0:	20666c61 73682064 65766963 65206964      flash device id
8041a2b0:	2025342e 34782069 73206e6f 74207375      %4.4x is not su
8041a2c0:	70706f72 7465642e 0a000000 466c6173     pported.....Flas
8041a2d0:	68206465 76696365 20697320 6e6f7420     h device is not 
8041a2e0:	666f756e 642e0a00 53657269 616c2066     found...Serial f
8041a2f0:	6c617368 20646576 69636520 69642025     lash device id %
8041a300:	342e3478 20697320 6e6f7420 73757070     4.4x is not supp
8041a310:	6f727465 642e0a00 75617274 30000000     orted...uart0...
8041a320:	0a2a2a2a 20526573 746f7265 20746f20     .*** Restore to 
8041a330:	46616374 6f727920 44656661 756c7420     Factory Default 
8041a340:	53657474 696e6720 2a2a2a0a 0a000000     Setting ***.....
8041a350:	0a2a2a2a 20427265 616b2069 6e746f20     .*** Break into 
8041a360:	43464520 636f6e73 6f6c6520 2a2a2a0a     CFE console ***.
8041a370:	0a000000 0a2a2a20 496d6167 6520696e     .....** Image in
8041a380:	666f726d 6174696f 6e206e6f 7420666f     formation not fo
8041a390:	756e642e 202a2a0a 0a000000 426f6172     und. **.....Boar
8041a3a0:	64204964 204e616d 65202830 2d202020     d Id Name (0-   
8041a3b0:	200a2020 20202020 20202020 20202020      .              
8041a3c0:	2020202d 2d2d2d2d 2d2d2020 300a2020        -------  0.  
8041a3d0:	20202020 20202020 20202020 2020202d                    -
8041a3e0:	2d2d2d2d 2d2d2020 310a2020 20202020     ------  1.      
8041a3f0:	20202020 20202020 2020202d 2d2d2d2d                -----
8041a400:	2d2d2020 320a2020 20202020 20202020     --  2.          
8041a410:	20202020 2020202d 2d2d2d2d 2d2d2020            -------  
8041a420:	330a2020 20202020 20202020 20202020     3.              
8041a430:	2020202d 2d2d2d2d 2d2d2020 340a2020        -------  4.  
8041a440:	20202020 20202020 20202020 2020202d                    -
8041a450:	2d2d2d2d 2d2d2020 350a2020 20202020     ------  5.      
8041a460:	20202020 20202020 2020202d 2d2d2d2d                -----
8041a470:	2d2d2020 360a2020 20202020 20202020     --  6.          
8041a480:	20202020 2020202d 2d2d2d2d 2d2d2020            -------  
8041a490:	370a2020 20202020 20202020 20202020     7.              
8041a4a0:	2020202d 2d2d2d2d 2d2d2020 380a2020        -------  8.  
8041a4b0:	20202020 20202020 20202020 2020202d                    -
8041a4c0:	2d2d2d2d 2d2d2020 390a2020 20202020     ------  9.      
8041a4d0:	20202020 20202020 2020202d 2d2d2d2d                -----
8041a4e0:	2d2d2031 300a2020 20202020 20202020     -- 10.          
8041a4f0:	20202020 2020202d 2d2d2d2d 2d2d2031            ------- 1
8041a500:	310a2020 20202020 20202020 20202020     1.              
8041a510:	2020202d 2d2d2d2d 2d2d2031 320a2020        ------- 12.  
8041a520:	20202020 20202020 20202020 2020202d                    -
8041a530:	2d2d2d2d 2d2d2031 330a2020 20202020     ------ 13.      
8041a540:	20202020 20202020 2020202d 2d2d2d2d                -----
8041a550:	2d2d2031 340a2020 20202020 20202020     -- 14.          
8041a560:	20202020 2020202d 2d2d2d2d 2d2d2031            ------- 1
8041a570:	35202020 20202020 3a000000 496e7661     5       :...Inva
8041a580:	6c696420 626f6172 64206964 00000000     lid board id....
8041a590:	4e756d62 6572206f 66204d41 43204164     Number of MAC Ad
8041a5a0:	64726573 73657320 28312d33 32292020     dresses (1-32)  
8041a5b0:	20203a00 496e7661 6c696420 4d616320       :.Invalid Mac 
8041a5c0:	61646472 65737365 73206e75 6d626572     addresses number
8041a5d0:	3a203120 2d203332 00000000 42617365     : 1 - 32....Base
8041a5e0:	204d4143 20416464 72657373 20202020      MAC Address    
8041a5f0:	20202020 20202020 20202020 20203a00                   :.
8041a600:	496e7661 6c696420 4d616320 61646472     Invalid Mac addr
8041a610:	65737320 666f726d 61742120 2065672e     ess format!  eg.
8041a620:	2031323a 33343a35 363a6162 3a63643a      12:34:56:ab:cd:
8041a630:	6566206f 72203132 33343536 61626364     ef or 123456abcd
8041a640:	65660000 426f6172 64204964 204e616d     ef..Board Id Nam
8041a650:	65202830 2d202020 200a0000 25640000     e (0-    ...%d..
8041a660:	20202020 2020203a 00000000 25642900            :....%d).
8041a670:	426f6172 64204964 204e616d 65202830     Board Id Name (0
8041a680:	2d000000 50726573 7320616e 79206b65     -...Press any ke
8041a690:	7920746f 20726573 65742074 68652062     y to reset the b
8041a6a0:	6f617264 3a200a00 426f6172 64204964     oard: ..Board Id
8041a6b0:	204e616d 65202020 20202020 20202020      Name           
8041a6c0:	20202020 20202020 20203a00 25732025               :.%s %
8041a6d0:	7320200a 00000000 50736920 73697a65     s  .....Psi size
8041a6e0:	20696e20 4b422020 20202020 20202020      in KB          
8041a6f0:	20202020 20202020 20203a20 25640a00               : %d..
8041a700:	45746865 726e6574 20504859 20547970     Ethernet PHY Typ
8041a710:	65202020 20202020 20202020 20202020     e               
8041a720:	20203a20 00000000 45787465 726e616c       : ....External
8041a730:	20537769 74636820 4e6f7420 5573696e      Switch Not Usin
8041a740:	67205265 76657273 65204d49 490a0000     g Reverse MII...
8041a750:	45787465 726e616c 20537769 74636820     External Switch 
8041a760:	5573696e 67205265 76657273 65204d49     Using Reverse MI
8041a770:	490a0000 45787465 726e616c 0a000000     I...External....
8041a780:	496e7465 726e616c 0a000000 4d656d6f     Internal....Memo
8041a790:	72792073 697a6520 696e204d 42202020     ry size in MB   
8041a7a0:	20202020 20202020 20202020 20203a20                   : 
8041a7b0:	00000000 380a0000 31360a00 33320a00     ....8...16..32..
8041a7c0:	36340a00 2a2a2a20 4e6f7420 64656669     64..*** Not defi
8041a7d0:	6e656420 2a2a2a0a 00000000 434d5420     ned ***.....CMT 
8041a7e0:	54687265 6164204e 756d6265 72202020     Thread Number   
8041a7f0:	20202020 20202020 20202020 20203a20                   : 
8041a800:	25640a00 653d3139 322e3136 382e312e     %d..e=192.168.1.
8041a810:	313a6666 66666666 30302068 3d313932     1:ffffff00 h=192
8041a820:	2e313638 2e312e31 30302067 3d20723d     .168.1.100 g= r=
8041a830:	6620663d 766d6c69 6e757820 693d6263     f f=vmlinux i=bc
8041a840:	6d393633 78785f66 735f6b65 726e656c     m963xx_fs_kernel
8041a850:	20643d31 20703d30 20000000 55736520      d=1 p=0 ...Use 
8041a860:	64656661 756c7420 626f6f74 206c696e     default boot lin
8041a870:	65207061 72616d65 74657273 3a202573     e parameters: %s
8041a880:	0a000000 2028792f 6e293a00 45726173     .... (y/n):.Eras
8041a890:	65207065 72736973 74656e20 73746f72     e persisten stor
8041a8a0:	61676520 64617461 3f000000 45726173     age data?...Eras
8041a8b0:	65205b6e 5d767261 6d2c205b 705d6572     e [n]vram, [p]er
8041a8c0:	73697374 656e7420 73746f72 61676520     sistent storage 
8041a8d0:	6f72205b 615d6c6c 20666c61 73682065     or [a]ll flash e
8041a8e0:	78636570 7420626f 6f74726f 6d0a7573     xcept bootrom.us
8041a8f0:	6167653a 2065205b 6e2f702f 615d0a00     age: e [n/p/a]..
8041a900:	45726173 6520626f 6f74206c 6f616465     Erase boot loade
8041a910:	723f0000 0a4e6f77 20746869 6e6b2063     r?...Now think c
8041a920:	61726566 756c6c79 2e202044 6f20796f     arefully.  Do yo
8041a930:	75207265 616c6c79 2c0a7265 616c6c79     u really,.really
8041a940:	2077616e 7420746f 20657261 73652074      want to erase t
8041a950:	68652062 6f6f7420 6c6f6164 65723f00     he boot loader?.
8041a960:	45726173 65206e76 72616d3f 00000000     Erase nvram?....
8041a970:	45726173 6520616c 6c20666c 61736820     Erase all flash 
8041a980:	28657863 65707420 626f6f74 726f6d29     (except bootrom)
8041a990:	3f000000 4e6f2069 6d616765 20746167     ?...No image tag
8041a9a0:	20666f75 6e642e20 20457261 73652074      found.  Erase t
8041a9b0:	68652062 6c6f636b 73207374 61727420     he blocks start 
8041a9c0:	6174205b 25645d0a 00000000 0a526573     at [%d]......Res
8041a9d0:	65747469 6e672062 6f617264 2e2e2e0a     etting board....
8041a9e0:	00000000 4c6f6164 696e6720 2573202e     ....Loading %s .
8041a9f0:	2e2e0a00 74667470 00000000 4c6f6164     ....tftp....Load
8041aa00:	696e6720 6661696c 65642e00 46696e69     ing failed..Fini
8041aa10:	73686564 206c6f61 64696e67 20256420     shed loading %d 
8041aa20:	62797465 730a0000 52657365 7474696e     bytes...Resettin
8041aa30:	6720626f 6172642e 2e2e0a00 46696e69     g board.....Fini
8041aa40:	73686564 20666c61 7368696e 6720696d     shed flashing im
8041aa50:	6167652e 0a000000 4661696c 65642074     age.....Failed t
8041aa60:	6f20666c 61736820 696d6167 652e2045     o flash image. E
8041aa70:	72726f72 3a202564 0a000000 4e6f2070     rror: %d....No p
8041aa80:	726f6772 616d2068 61732062 65656e20     rogram has been 
8041aa90:	6c6f6164 65642e0a 00000000 436c6f73     loaded......Clos
8041aaa0:	696e6720 6e657477 6f726b2e 0a000000     ing network.....
8041aab0:	53746172 74696e67 2070726f 6772616d     Starting program
8041aac0:	20617420 30782570 0a000000 426f6f74      at 0x%p....Boot
8041aad0:	696e6720 66726f6d 20707265 76696f75     ing from previou
8041aae0:	7320696d 61676520 28307825 382e386c     s image (0x%8.8l
8041aaf0:	7829202e 2e2e0a00 426f6f74 696e6720     x) .....Booting 
8041ab00:	66726f6d 206c6174 65737420 696d6167     from latest imag
8041ab10:	65202830 7825382e 386c7829 202e2e2e     e (0x%8.8lx) ...
8041ab20:	0a000000 436f6465 20416464 72657373     ....Code Address
8041ab30:	3a203078 25303858 2c20456e 74727920     : 0x%08X, Entry 
8041ab40:	41646472 6573733a 20307825 3038780a     Address: 0x%08x.
8041ab50:	00000000 4c696e75 78206669 6c652073     ....Linux file s
8041ab60:	79737465 6d204352 43206572 726f722e     ystem CRC error.
8041ab70:	2020436f 72727570 74656420 696d6167       Corrupted imag
8041ab80:	653f0a00 4c696e75 78206b65 726e656c     e?..Linux kernel
8041ab90:	20435243 20657272 6f722e20 20436f72      CRC error.  Cor
8041aba0:	72757074 65642069 6d616765 3f0a0000     rupted image?...
8041abb0:	4661696c 6564206f 6e206465 636f6d70     Failed on decomp
8041abc0:	72657373 696f6e2e 2020436f 72727570     ression.  Corrup
8041abd0:	74656420 696d6167 653f0a00 4465636f     ted image?..Deco
8041abe0:	6d707265 7373696f 6e204f4b 210a0000     mpression OK!...
8041abf0:	456e7472 79206174 20307825 700a0000     Entry at 0x%p...
8041ac00:	65746830 00000000 52657472 79206c6f     eth0....Retry lo
8041ac10:	6164696e 67206974 20617320 6120636f     ading it as a co
8041ac20:	6d707265 73736564 20696d61 67652e0a     mpressed image..
8041ac30:	00000000 4552524f 523a2054 68657265     ....ERROR: There
8041ac40:	20697320 6e6f7420 61207661 6c696420      is not a valid 
8041ac50:	696d6167 6520746f 20626f6f 74206672     image to boot fr
8041ac60:	6f6d2e0a 00000000 666c6173 68696d61     om......flashima
8041ac70:	67650000 466c6173 68657320 6120636f     ge..Flashes a co
8041ac80:	6d707265 73736564 20696d61 67652061     mpressed image a
8041ac90:	66746572 20746865 20626f6f 746c6f61     fter the bootloa
8041aca0:	6465722e 00000000 65672e20 666c6173     der.....eg. flas
8041acb0:	68696d61 6765205b 686f7374 69703a5d     himage [hostip:]
8041acc0:	636f6d70 72657373 65645f69 6d616765     compressed_image
8041acd0:	5f66696c 655f6e61 6d650000 72657365     _file_name..rese
8041ace0:	74000000 52657365 74207468 6520626f     t...Reset the bo
8041acf0:	61726400 62000000 4368616e 67652062     ard.b...Change b
8041ad00:	6f617264 20706172 616d6574 65727300     oard parameters.
8041ad10:	69000000 45726173 65207065 72736973     i...Erase persis
8041ad20:	74656e74 2073746f 72616765 20646174     tent storage dat
8041ad30:	61000000 66000000 57726974 6520696d     a...f...Write im
8041ad40:	61676520 746f2074 68652066 6c617368     age to the flash
8041ad50:	20000000 65672e20 66205b5b 686f7374      ...eg. f [[host
8041ad60:	69703a5d 66696c65 6e616d65 5d3c6372     ip:]filename]<cr
8041ad70:	3e202d2d 20696620 6e6f2066 696c656e     > -- if no filen
8041ad80:	616d652c 20746674 70656420 66726f6d     ame, tftped from
8041ad90:	20686f73 74207769 74682066 696c6520      host with file 
8041ada0:	6e616d65 20696e20 27446566 61756c74     name in 'Default
8041adb0:	20686f73 7420666c 61736820 66696c65      host flash file
8041adc0:	206e616d 65270000 63000000 4368616e      name'..c...Chan
8041add0:	67652062 6f6f6c69 6e652070 6172616d     ge booline param
8041ade0:	65746572 73000000 70000000 5072696e     eters...p...Prin
8041adf0:	7420626f 6f74206c 696e6520 616e6420     t boot line and 
8041ae00:	626f6172 64207061 72616d65 74657220     board parameter 
8041ae10:	696e666f 00000000 72000000 52756e20     info....r...Run 
8041ae20:	70726f67 72616d20 66726f6d 20666c61     program from fla
8041ae30:	73682069 6d616765 206f7220 66726f6d     sh image or from
8041ae40:	20686f73 74206465 70656e64 206f6e20      host depend on 
8041ae50:	5b662f68 5d20666c 61670000 65672e20     [f/h] flag..eg. 
8041ae60:	72205b5b 686f7374 69703a5d 66696c65     r [[hostip:]file
8041ae70:	6e61656d 5d3c6372 3e206966 206e6f20     naem]<cr> if no 
8041ae80:	66696c65 6e616d65 2c207573 65207468     filename, use th
8041ae90:	65206669 6c65206e 616d6520 696e2027     e file name in '
8041aea0:	44656661 756c7420 686f7374 2072756e     Default host run
8041aeb0:	2066696c 65206e61 6d652700 65000000      file name'.e...
8041aec0:	45726173 65205b6e 5d767261 6d206f72     Erase [n]vram or
8041aed0:	205b615d 6c6c2066 6c617368 20657863      [a]ll flash exc
8041aee0:	65707420 626f6f74 726f6d00 65205b6e     ept bootrom.e [n
8041aef0:	2f615d00 77000000 57726974 65207468     /a].w...Write th
8041af00:	65207768 6f6c6520 696d6167 65207374     e whole image st
8041af10:	61727420 66726f6d 20626567 696e6e69     art from beginni
8041af20:	6e67206f 66207468 6520666c 61736800     ng of the flash.
8041af30:	65672e20 77205b68 6f737469 703a5d77     eg. w [hostip:]w
8041af40:	686f6c65 5f696d61 67655f66 696c655f     hole_image_file_
8041af50:	6e616d65 00000000 426f6172 64204950     name....Board IP
8041af60:	20616464 72657373 20202020 20202020      address        
8041af70:	20202020 20202020 20203a00 496e7661               :.Inva
8041af80:	6c696420 69702061 64647265 73732e20     lid ip address. 
8041af90:	65672e20 3139322e 3136382e 312e3230     eg. 192.168.1.20
8041afa0:	305b3a66 66666666 6630305d 00000000     0[:ffffff00]....
8041afb0:	486f7374 20495020 61646472 65737320     Host IP address 
8041afc0:	20202020 20202020 20202020 20202020                     
8041afd0:	20203a00 47617465 77617920 49502061       :.Gateway IP a
8041afe0:	64647265 73732020 20202020 20202020     ddress          
8041aff0:	20202020 20203a00 52756e20 66726f6d           :.Run from
8041b000:	20666c61 73682f68 6f737420 28662f68      flash/host (f/h
8041b010:	29202020 20202020 20203a00 66203d20     )         :.f = 
8041b020:	6a756d70 20746f20 666c6173 683b2068     jump to flash; h
8041b030:	203d2074 66747064 2066726f 6d20686f      = tftpd from ho
8041b040:	73740000 44656661 756c7420 686f7374     st..Default host
8041b050:	2072756e 2066696c 65206e61 6d652020      run file name  
8041b060:	20202020 20203a00 65672e20 766d6c69           :.eg. vmli
8041b070:	6e757800 44656661 756c7420 686f7374     nux.Default host
8041b080:	20666c61 73682066 696c6520 6e616d65      flash file name
8041b090:	20202020 20203a00 65672e20 62636d39           :.eg. bcm9
8041b0a0:	36337878 5f66735f 6b65726e 656c0000     63xx_fs_kernel..
8041b0b0:	426f6f74 2064656c 61792028 302d3920     Boot delay (0-9 
8041b0c0:	7365636f 6e647329 20202020 20202020     seconds)        
8041b0d0:	20203a00 72616e67 6520302d 392c2030       :.range 0-9, 0
8041b0e0:	3d666f72 65766572 2070726f 6d707400     =forever prompt.
8041b0f0:	426f6f74 20696d61 67652028 303d6c61     Boot image (0=la
8041b100:	74657374 2c20313d 70726576 696f7573     test, 1=previous
8041b110:	29203a00 31203d20 6c617465 73742069     ) :.1 = latest i
8041b120:	6d616765 2c203220 3d207072 6576696f     mage, 2 = previo
8041b130:	75732069 6d616765 00000000 25642e25     us image....%d.%
8041b140:	642e2564 2e256400 25322e32 783a2532     d.%d.%d.%2.2x:%2
8041b150:	2e32783a 25322e32 783a2532 2e32783a     .2x:%2.2x:%2.2x:
8041b160:	25322e32 783a2532 2e327800 436f756c     %2.2x:%2.2x.Coul
8041b170:	64206e6f 74206163 74697661 7465206e     d not activate n
8041b180:	6574776f 726b2069 6e746572 66616365     etwork interface
8041b190:	20272573 27000000 3139322e 3136382e      '%s'...192.168.
8041b1a0:	312e3100 3235352e 3235352e 3235352e     1.1.255.255.255.
8041b1b0:	30000000 202d6777 3d000000 4669726d     0... -gw=...Firm
8041b1c0:	77617265 00000000 43686970 20696420     ware....Chip id 
8041b1d0:	25303478 206e6f74 20737570 706f7274     %04x not support
8041b1e0:	65642e0a 00000000 43686970 20496420     ed......Chip Id 
8041b1f0:	6572726f 722e2020 496d6167 65204368     error.  Image Ch
8041b200:	69702049 64203d20 25642c20 426f6172     ip Id = %d, Boar
8041b210:	64204368 69702049 64203d20 25303478     d Chip Id = %04x
8041b220:	2e0a0000 36000000 32360000 4669726d     ....6...26..Firm
8041b230:	77617265 20746167 20766572 73696f6e     ware tag version
8041b240:	205b2564 5d206973 206e6f74 20636f6d      [%d] is not com
8041b250:	70617469 626c6520 77697468 20746865     patible with the
8041b260:	20637572 72656e74 20546167 20766572      current Tag ver
8041b270:	73696f6e 205b2564 5d2e0a00 496c6c65     sion [%d]...Ille
8041b280:	67616c20 696d6167 65202120 54616720     gal image ! Tag 
8041b290:	63726320 6661696c 65642e0a 00000000     crc failed......
8041b2a0:	50726573 733a2020 3c656e74 65723e20     Press:  <enter> 
8041b2b0:	746f2075 73652063 75727265 6e742076     to use current v
8041b2c0:	616c7565 0d0a0000 20202020 20202020     alue....        
8041b2d0:	272d2720 746f2067 6f207072 6576696f     '-' to go previo
8041b2e0:	75732070 6172616d 65746572 0d0a0000     us parameter....
8041b2f0:	20202020 20202020 272e2720 746f2063             '.' to c
8041b300:	6c656172 20746865 20637572 72656e74     lear the current
8041b310:	2076616c 75650d0a 00000000 20202020      value......    
8041b320:	20202020 27782720 746f2065 78697420         'x' to exit 
8041b330:	74686973 20636f6d 6d616e64 0d0a0000     this command....
8041b340:	25732020 25732020 00000000 25732020     %s  %s  ....%s  
8041b350:	25730000 0a25733b 20205472 79206167     %s...%s;  Try ag
8041b360:	61696e21 0a000000 496d6167 65207369     ain!....Image si
8041b370:	7a652074 6f6f2062 69670a00 496c6c65     ze too big..Ille
8041b380:	67616c20 77686f6c 6520666c 61736820     gal whole flash 
8041b390:	696d6167 650a0000 4661696c 65642074     image...Failed t
8041b3a0:	6f20666c 61736820 77686f6c 6520696d     o flash whole im
8041b3b0:	6167652e 20457272 6f723a20 25640a00     age. Error: %d..
8041b3c0:	20496c6c 6567616c 20696d61 67652021      Illegal image !
8041b3d0:	20496d61 67652063 72632066 61696c65      Image crc faile
8041b3e0:	642e0a00 496c6c65 67616c20 63666520     d...Illegal cfe 
8041b3f0:	73697a65 205b2564 5d2e0a00 0a466c61     size [%d]....Fla
8041b400:	7368696e 67204346 453a2000 4661696c     shing CFE: .Fail
8041b410:	65642074 6f20666c 61736820 4346452e     ed to flash CFE.
8041b420:	20457272 6f723a20 25640a00 2e0a2a2a      Error: %d....**
8041b430:	2a20496d 61676520 666c6173 6820646f     * Image flash do
8041b440:	6e65202a 2a2a2021 0a000000 496c6c65     ne *** !....Ille
8041b450:	67616c20 696d6167 65207369 7a652025     gal image size %
8041b460:	642e2020 496d6167 65207369 7a65206d     d.  Image size m
8041b470:	75737420 6e6f7420 62652067 72656174     ust not be great
8041b480:	65722074 68616e20 25642e0a 00000000     er than %d......
8041b490:	256c7500 0a466c61 7368696e 6720726f     %lu..Flashing ro
8041b4a0:	6f742066 696c6520 73797374 656d2061     ot file system a
8041b4b0:	6e64206b 65726e65 6c206174 20307825     nd kernel at 0x%
8041b4c0:	382e386c 783a2000 4661696c 65642074     8.8lx: .Failed t
8041b4d0:	6f20666c 61736820 726f6f74 2066696c     o flash root fil
8041b4e0:	65207379 7374656d 2e204572 726f723a     e system. Error:
8041b4f0:	2025640a 00000000 2a2a2a20 426f6172      %d.....*** Boar
8041b500:	64206973 206e6f74 20696e69 7469616c     d is not initial
8041b510:	697a6564 2070726f 7065726c 79202a2a     ized properly **
8041b520:	2a0a0a00 72617700 20256420 62797465     *...raw. %d byte
8041b530:	73207265 61640a00 656c6600 30782578     s read..elf.0x%x
8041b540:	2f256420 00000000 42434d39 36333438     /%d ....BCM96348
8041b550:	00000000 50524f4d 50540000 4346453e     ....PROMPT..CFE>
8041b560:	20000000 2a2a2a20 636f6d6d 616e6420      ...*** command 
8041b570:	73746174 7573203d 2025640a 00000000     status = %d.....
8041b580:	43464520 76657273 696f6e20 25642e25     CFE version %d.%
8041b590:	642e2564 2d25642e 25642066 6f722025     d.%d-%d.%d for %
8041b5a0:	73202825 73290a00 33326269 742c5350     s (%s)..32bit,SP
8041b5b0:	2c424500 4275696c 64204461 74653a20     ,BE.Build Date: 
8041b5c0:	25732028 2573290a 00000000 436f7079     %s (%s).....Copy
8041b5d0:	72696768 74202843 29203230 30302d32     right (C) 2000-2
8041b5e0:	30303520 42726f61 64636f6d 20436f72     005 Broadcom Cor
8041b5f0:	706f7261 74696f6e 2e0a0000 426f6f74     poration....Boot
8041b600:	20416464 72657373 20307825 780a0a00      Address 0x%x...
8041b610:	496e6974 69616c69 7a696e67 20417265     Initializing Are
8041b620:	6e612e0a 00000000 496e6974 69616c69     na......Initiali
8041b630:	7a696e67 20446576 69636573 2e0a0000     zing Devices....
8041b640:	43505520 74797065 20307825 583a2000     CPU type 0x%X: .
8041b650:	25644b48 7a0a0000 25644d48 7a000000     %dKHz...%dMHz...
8041b660:	2c204275 733a2025 644d487a 2c205265     , Bus: %dMHz, Re
8041b670:	663a2025 644d487a 0a000000 546f7461     f: %dMHz....Tota
8041b680:	6c206d65 6d6f7279 3a20256c 75206279     l memory: %lu by
8041b690:	74657320 28256c75 4d42290a 00000000     tes (%luMB).....
8041b6a0:	546f7461 6c206d65 6d6f7279 20757365     Total memory use
8041b6b0:	64206279 20434645 3a202030 78253038     d by CFE:  0x%08
8041b6c0:	58202d20 30782530 38582028 2564290a     X - 0x%08X (%d).
8041b6d0:	00000000 496e6974 69616c69 7a656420     ....Initialized 
8041b6e0:	44617461 3a202020 20202020 20202030     Data:          0
8041b6f0:	78253038 58202d20 30782530 38582028     x%08X - 0x%08X (
8041b700:	2564290a 00000000 42535320 41726561     %d).....BSS Area
8041b710:	3a202020 20202020 20202020 20202020     :               
8041b720:	20202030 78253038 58202d20 30782530        0x%08X - 0x%0
8041b730:	38582028 2564290a 00000000 4c6f6361     8X (%d).....Loca
8041b740:	6c204865 61703a20 20202020 20202020     l Heap:         
8041b750:	20202020 20202030 78253038 58202d20            0x%08X - 
8041b760:	30782530 38582028 2564290a 00000000     0x%08X (%d).....
8041b770:	53746163 6b204172 65613a20 20202020     Stack Area:     
8041b780:	20202020 20202020 20202030 78253038                0x%08
8041b790:	58202d20 30782530 38582028 2564290a     X - 0x%08X (%d).
8041b7a0:	00000000 54657874 2028636f 64652920     ....Text (code) 
8041b7b0:	7365676d 656e743a 20202020 20202030     segment:       0
8041b7c0:	78253038 58202d20 30782530 38582028     x%08X - 0x%08X (
8041b7d0:	2564290a 00000000 426f6f74 20617265     %d).....Boot are
8041b7e0:	61202870 68797369 63616c29 3a202020     a (physical):   
8041b7f0:	20202030 78253038 58202d20 30782530        0x%08X - 0x%0
8041b800:	38580a00 52656c6f 63617469 6f6e2046     8X..Relocation F
8041b810:	6163746f 723a2020 20202020 20202049     actor:         I
8041b820:	3a253038 58202d20 443a2530 38580a00     :%08X - D:%08X..
8041b830:	25642e25 642e2564 00000000 4346455f     %d.%d.%d....CFE_
8041b840:	56455253 494f4e00 4346455f 424f4152     VERSION.CFE_BOAR
8041b850:	444e414d 45000000 43464520 6572726f     DNAME...CFE erro
8041b860:	72202564 00000000 74657874 2f68746d     r %d....text/htm
8041b870:	6c000000 2f75706c 6f61642e 68746d6c     l.../upload.html
8041b880:	00000000 2f75706c 6f616469 6e666f2e     ..../uploadinfo.
8041b890:	68746d6c 00000000 77656220 696e666f     html....web info
8041b8a0:	3a205761 6974696e 6720666f 7220636f     : Waiting for co
8041b8b0:	6e6e6563 74696f6e 206f6e20 736f636b     nnection on sock
8041b8c0:	65742025 642e0000 77656220 6572726f     et %d...web erro
8041b8d0:	723a206c 69737465 6e206572 726f7220     r: listen error 
8041b8e0:	6f6e2025 642e0000 77656220 6572726f     on %d...web erro
8041b8f0:	72202564 3a20436f 756c6420 6e6f7420     r %d: Could not 
8041b900:	63726561 74652054 43502073 6f636b65     create TCP socke
8041b910:	742e0000 48545450 2f312e30 00000000     t...HTTP/1.0....
8041b920:	25732025 64202573 0d0a0000 53657276     %s %d %s....Serv
8041b930:	65723a20 25730d0a 00000000 6d696372     er: %s......micr
8041b940:	6f5f6874 74706400 44617465 3a205468     o_httpd.Date: Th
8041b950:	752c2030 31204a61 6e203139 37302025     u, 01 Jan 1970 %
8041b960:	322e3264 3a25322e 32643a25 322e3264     2.2d:%2.2d:%2.2d
8041b970:	20474d54 0d0a0000 436f6e6e 65637469      GMT....Connecti
8041b980:	6f6e3a20 636c6f73 650d0a0d 0a000000     on: close.......
8041b990:	436f6e74 656e742d 54797065 3a202573     Content-Type: %s
8041b9a0:	0d0a0000 77656220 6572726f 723a2054     ....web error: T
8041b9b0:	43502077 72697465 20657272 6f722073     CP write error s
8041b9c0:	656e6469 6e672068 65616465 722e0000     ending header...
8041b9d0:	3c48544d 4c3e3c48 4541443e 3c544954     <HTML><HEAD><TIT
8041b9e0:	4c453e25 64202573 3c2f5449 544c453e     LE>%d %s</TITLE>
8041b9f0:	3c2f4845 41443e0a 3c424f44 59204247     </HEAD>.<BODY BG
8041ba00:	434f4c4f 523d2223 63633939 3939223e     COLOR="#cc9999">
8041ba10:	3c48343e 25642025 733c2f48 343e0a00     <H4>%d %s</H4>..
8041ba20:	3c48523e 0a3c4144 44524553 533e3c41     <HR>.<ADDRESS><A
8041ba30:	20485245 463d2225 73223e25 733c2f41      HREF="%s">%s</A
8041ba40:	3e3c2f41 44445245 53533e0a 3c2f424f     ></ADDRESS>.</BO
8041ba50:	44593e3c 2f48544d 4c3e0a00 68747470     DY></HTML>..http
8041ba60:	3a2f2f77 77772e61 636d652e 636f6d2f     ://www.acme.com/
8041ba70:	736f6674 77617265 2f6d6963 726f5f68     software/micro_h
8041ba80:	74747064 2f000000 77656220 6572726f     ttpd/...web erro
8041ba90:	723a2054 43502077 72697465 20657272     r: TCP write err
8041baa0:	6f722073 656e6469 6e672065 72726f72     or sending error
8041bab0:	20726573 706f6e73 652e0000 77656220      response...web 
8041bac0:	6572726f 723a2054 43502077 72697465     error: TCP write
8041bad0:	20657272 6f722073 656e6469 6e672061      error sending a
8041bae0:	20776562 20706167 652e0000 4f6b0000      web page...Ok..
8041baf0:	46696c65 206e6f74 20666f75 6e642e00     File not found..
8041bb00:	4e6f7420 466f756e 64000000 77656220     Not Found...web 
8041bb10:	6572726f 723a2054 43502072 65616420     error: TCP read 
8041bb20:	6572726f 722e0000 436f6e74 656e742d     error...Content-
8041bb30:	4c656e67 74683a00 42616420 52657175     Length:.Bad Requ
8041bb40:	65737400 67657400 706f7374 00000000     est.get.post....
8041bb50:	4e6f7420 496d706c 656d656e 74656400     Not Implemented.
8041bb60:	55706c6f 61642042 75737900 416e2069     Upload Busy.An i
8041bb70:	6d616765 20697320 616c7265 61647920     mage is already 
8041bb80:	6265696e 67207570 6c6f6164 65642e00     being uploaded..
8041bb90:	54686174 206d6574 686f6420 6973206e     That method is n
8041bba0:	6f742069 6d706c65 6d656e74 65642e00     ot implemented..
8041bbb0:	43616e27 74207061 72736520 72657175     Can't parse requ
8041bbc0:	6573742e 00000000 436f6e73 6f6c6520     est.....Console 
8041bbd0:	636f6d6d 616e6420 69732069 6e207072     command is in pr
8041bbe0:	6f677265 73732e00 77656220 6572726f     ogress..web erro
8041bbf0:	723a2054 43502072 65616420 6572726f     r: TCP read erro
8041bc00:	72207265 63656976 696e6720 706f7374     r receiving post
8041bc10:	20646174 612e0000 77656220 6572726f      data...web erro
8041bc20:	723a2048 54545020 504f5354 20737461     r: HTTP POST sta
8041bc30:	72742062 6f756e64 20666965 6c64206e     rt bound field n
8041bc40:	6f742066 6f756e64 2e000000 0d0a0d0a     ot found........
8041bc50:	00000000 66696c65 6e616d65 3d000000     ....filename=...
8041bc60:	77656220 6572726f 723a2048 54545020     web error: HTTP 
8041bc70:	504f5354 2066696c 656e616d 65206e6f     POST filename no
8041bc80:	74207370 65636966 6965642e 00000000     t specified.....
8041bc90:	77656220 6572726f 723a2048 54545020     web error: HTTP 
8041bca0:	504f5354 2066696c 656e616d 65206669     POST filename fi
8041bcb0:	656c6420 6e6f7420 666f756e 642e0000     eld not found...
8041bcc0:	77656220 6572726f 723a2048 54545020     web error: HTTP 
8041bcd0:	504f5354 206e6f20 696d6167 65206461     POST no image da
8041bce0:	74612e00 77656220 6572726f 723a2048     ta..web error: H
8041bcf0:	54545020 504f5354 20656e64 20626f75     TTP POST end bou
8041bd00:	6e642066 69656c64 206e6f74 20666f75     nd field not fou
8041bd10:	6e642e00 77656220 696e666f 3a205570     nd..web info: Up
8041bd20:	6c6f6164 20256c75 20627974 65732c20     load %lu bytes, 
8041bd30:	666c6173 6820696d 61676520 666f726d     flash image form
8041bd40:	61742e00 77656220 696e666f 3a205570     at..web info: Up
8041bd50:	6c6f6164 20256c75 20627974 65732c20     load %lu bytes, 
8041bd60:	696e7661 6c696420 696d6167 6520666f     invalid image fo
8041bd70:	726d6174 2e000000 77656220 696e666f     rmat....web info
8041bd80:	3a205570 6c6f6164 20256c75 20627974     : Upload %lu byt
8041bd90:	65732c20 42726f61 64636f6d 20696d61     es, Broadcom ima
8041bda0:	67652066 6f726d61 742e0000 77656220     ge format...web 
8041bdb0:	7761726e 696e673a 20556e65 78706563     warning: Unexpec
8041bdc0:	74656420 54435020 64697363 6f6e6e65     ted TCP disconne
8041bdd0:	63742e00 4d583236 4c563830 30420000     ct..MX26LV800B..
8041bde0:	466c6173 68207772 69746520 6572726f     Flash write erro
8041bdf0:	722e2020 56657269 66792066 61696c65     r.  Verify faile
8041be00:	640a0000 41646472 65737320 69732074     d...Address is t
8041be10:	6f6f2062 69672e0a 00000000 30204154     oo big......0 AT
8041be20:	76307631 61306131 61326133 74307431     v0v1a0a1a2a3t0t1
8041be30:	74327433 74347435 74367437 73307331     t2t3t4t5t6t7s0s1
8041be40:	73327333 73347335 73367337 74387439     s2s3s4s5s6s7t8t9
8041be50:	6b306b31 67707370 66707261 00000000     k0k1gpspfpra....
8041be60:	496e7465 72727570 74544c42 4d6f6420     InterruptTLBMod 
8041be70:	2020544c 424d6973 73526454 4c424d69       TLBMissRdTLBMi
8041be80:	73735772 41646472 45727252 64416464     ssWrAddrErrRdAdd
8041be90:	72457272 57724275 73457272 52642042     rErrWrBusErrRd B
8041bea0:	75734572 72577220 53797363 616c6c20     usErrWr Syscall 
8041beb0:	20427265 616b7074 2020496e 764f7063      Breakpt  InvOpc
8041bec0:	6f646543 6f50726f 63556e75 41726974     odeCoProcUnuArit
8041bed0:	684f7666 6c547261 70457863 20205643     hOvflTrapExc  VC
8041bee0:	45492020 20202046 50554578 63202020     EI     FPUExc   
8041bef0:	43503245 78632020 20457863 31372020     CP2Exc   Exc17  
8041bf00:	20204578 63313820 20202045 78633139       Exc18    Exc19
8041bf10:	20202020 45786332 30202020 20457863         Exc20    Exc
8041bf20:	32312020 20204578 63323220 20202057     21    Exc22    W
8041bf30:	61746368 70742020 45786332 34202020     atchpt  Exc24   
8041bf40:	20457863 32352020 20204578 63323620      Exc25    Exc26 
8041bf50:	20202045 78633237 20202020 45786332        Exc27    Exc2
8041bf60:	38202020 20457863 32392020 20204578     8    Exc29    Ex
8041bf70:	63333020 20202056 43454420 20202020     c30    VCED     
8041bf80:	00000000 43464520 00000000 45584321     ....CFE ....EXC!
8041bf90:	00000000 2a2a4578 63657074 696f6e20     ....**Exception 
8041bfa0:	25643a20 4550433d 25303858 2c204361     %d: EPC=%08X, Ca
8041bfb0:	7573653d 25303858 20282539 73290a00     use=%08X (%9s)..
8041bfc0:	20202020 20202020 20202020 20202020                     
8041bfd0:	52413d25 3038582c 20564164 64723d25     RA=%08X, VAddr=%
8041bfe0:	3038580a 00000000 20202020 20202020     08X.....        
8041bff0:	25327320 28242532 6429203d 20253038     %2s ($%2d) = %08
8041c000:	58202020 20202532 73202824 25326429     X     %2s ($%2d)
8041c010:	203d2025 3038580a 00000000 50414e49      = %08X.....PANI
8041c020:	433a206f 7574206f 66206d65 6d6f7279     C: out of memory
8041c030:	210a0000 286e756c 6c290000 25732564     !...(null)..%s%d
8041c040:	00000000 0d25731b 5b4a0d0a 00000000     .....%s.[J......
8041c050:	5e430d0a 00000000 08200800 424f4f54     ^C....... ..BOOT
8041c060:	5f434f4e 534f4c45 00000000 726f6f74     _CONSOLE....root
8041c070:	40636769 6c6e7831 00000000 76656e20     @cgilnx1....ven 
8041c080:	6a756920 20362031 373a3531 3a313720     jui  6 17:51:17 
8041c090:	43455354 20323030 37000000 41424344     CEST 2007...ABCD
8041c0a0:	45464748 494a4b4c 4d4e4f50 51525354     EFGHIJKLMNOPQRST
8041c0b0:	55565758 595a6162 63646566 6768696a     UVWXYZabcdefghij
8041c0c0:	6b6c6d6e 6f707172 73747576 7778797a     klmnopqrstuvwxyz
8041c0d0:	30313233 34353637 38395f3f 00000000     0123456789_?....
8041c0e0:	203d090a 2722267c 3b000000 20090000      =..'"&|;... ...
8041c0f0:	20202020 20000000 252d3132 7320286e          ...%-12s (n
8041c100:	6f20696e 666f726d 6174696f 6e290a00     o information)..
8041c110:	252d3132 73202573 0a000000 25732000     %-12s %s....%s .
8041c120:	41766169 6c61626c 6520636f 6d6d616e     Available comman
8041c130:	64733a20 00000000 41766169 6c61626c     ds: ....Availabl
8041c140:	65202200 25732573 00000000 2220636f     e ".%s%s...." co
8041c150:	6d6d616e 64733a20 00000000 2c200000     mmands: ...., ..
8041c160:	41766169 6c61626c 6520636f 6d6d616e     Available comman
8041c170:	64733a0a 0a000000 466f7220 6d6f7265     ds:.....For more
8041c180:	20696e66 6f726d61 74696f6e 2061626f      information abo
8041c190:	75742061 20636f6d 6d616e64 2c20656e     ut a command, en
8041c1a0:	74657220 2768656c 7020636f 6d6d616e     ter 'help comman
8041c1b0:	642d6e61 6d65270a 00000000 4e6f2068     d-name'.....No h
8041c1c0:	656c7020 61766169 6c61626c 6520666f     elp available fo
8041c1d0:	72202725 73272e0a 0a000000 54797065     r '%s'......Type
8041c1e0:	20276865 6c702720 666f7220 61206c69      'help' for a li
8041c1f0:	7374206f 6620636f 6d6d616e 64732e0a     st of commands..
8041c200:	00000000 0a202053 554d4d41 52590a0a     .....  SUMMARY..
8041c210:	00000000 0a202055 53414745 0a0a0000     .....  USAGE....
8041c220:	0a20204f 5054494f 4e530a0a 00000000     .  OPTIONS......
8041c230:	496e7661 6c696420 636f6d6d 616e643a     Invalid command:
8041c240:	20222573 220a0000 496e636f 6d706c65      "%s"...Incomple
8041c250:	74652063 6f6d6d61 6e643a20 22257322     te command: "%s"
8041c260:	0a000000 68656c70 205b636f 6d6d616e     ....help [comman
8041c270:	645d0a0a 57697468 6f757420 616e7920     d]..Without any 
8041c280:	70617261 6d657465 72732c20 74686520     parameters, the 
8041c290:	2768656c 70272063 6f6d6d61 6e642077     'help' command w
8041c2a0:	696c6c20 64697370 6c617920 61207375     ill display a su
8041c2b0:	6d6d6172 790a6f66 20617661 696c6162     mmary.of availab
8041c2c0:	6c652063 6f6d6d61 6e64732e 2020466f     le commands.  Fo
8041c2d0:	72206d6f 72652064 65746169 6c73206f     r more details o
8041c2e0:	6e206120 636f6d6d 616e642c 20747970     n a command, typ
8041c2f0:	65202768 656c7027 0a616e64 20746865     e 'help'.and the
8041c300:	20636f6d 6d616e64 206e616d 652e0000      command name...
8041c310:	68656c70 00000000 4f627461 696e2068     help....Obtain h
8041c320:	656c7020 666f7220 43464520 636f6d6d     elp for CFE comm
8041c330:	616e6473 00000000 5b25735d 20000000     ands....[%s] ...
8041c340:	496e7661 6c696420 73776974 63683a20     Invalid switch: 
8041c350:	25730a00 54465450 20777269 74652065     %s..TFTP write e
8041c360:	72726f72 2025643a 2025730a 00000000     rror %d: %s.....
8041c370:	6f637465 74000000 54465450 20657272     octet...TFTP err
8041c380:	6f722025 643a2025 730a0000 5761726e     or %d: %s...Warn
8041c390:	696e673a 206e6567 61746976 65207365     ing: negative se
8041c3a0:	656b206f 6e207466 74702066 696c6520     ek on tftp file 
8041c3b0:	61747465 6d707465 640a0000 7472616e     attempted...tran
8041c3c0:	73666572 2063616e 63656c6c 65640000     sfer cancelled..
8041c3d0:	25732e25 73000000 4e45545f 44455649     %s.%s...NET_DEVI
8041c3e0:	43450000 4e45545f 49504144 44520000     CE..NET_IPADDR..
8041c3f0:	4e45545f 4e45544d 41534b00 4e45545f     NET_NETMASK.NET_
8041c400:	47415445 57415900 4e45545f 4e414d45     GATEWAY.NET_NAME
8041c410:	53455256 45520000 4e45545f 444f4d41     SERVER..NET_DOMA
8041c420:	494e0000 25490000 53746174 653d2564     IN..%I..State=%d
8041c430:	2053656e 644e6578 743d2575 2053656e      SendNext=%u Sen
8041c440:	64556e61 636b3d25 75200000 53656e64     dUnack=%u ..Send
8041c450:	57696e3d 25642041 636b3d25 75205278     Win=%d Ack=%u Rx
8041c460:	6c656e3d 25640a00 4572726f 7220616c     len=%d..Error al
8041c470:	6c6f6361 74696e67 206d656d 6f727920     locating memory 
8041c480:	666f7220 4c697444 65636f64 6572206d     for LitDecoder m
8041c490:	5f436f64 65727321 0a000000 4572726f     _Coders!....Erro
8041c4a0:	7220696e 20616c6c 6f636174 696e6720     r in allocating 
8041c4b0:	6d656d6f 72792066 6f722072 65766572     memory for rever
8041c4c0:	73654269 74547265 65446563 6f646572     seBitTreeDecoder
8041c4d0:	32210a00 4572726f 7220696e 20616c6c     2!..Error in all
8041c4e0:	6f636174 696e6720 6d656d6f 72792066     ocating memory f
8041c4f0:	6f722062 69745472 65654465 636f6465     or bitTreeDecode
8041c500:	72210a00 4572726f 7220696e 20616c6c     r!..Error in all
8041c510:	6f636174 696e6720 6d656d6f 72792066     ocating memory f
8041c520:	6f722072 65766572 73654269 74547265     or reverseBitTre
8041c530:	65446563 6f646572 210a0000 436f6465     eDecoder!...Code
8041c540:	5265616c 3a20696e 76616c69 64206461     Real: invalid da
8041c550:	74610a00                                ta..
